
SENTToUSB.elf:     file format elf32-littlearm

Sections:
Idx Name          Size      VMA       LMA       File off  Algn
  0 .isr_vector   000000c0  08000000  08000000  00001000  2**0
                  CONTENTS, ALLOC, LOAD, READONLY, DATA
  1 .text         00006a90  080000c0  080000c0  000010c0  2**2
                  CONTENTS, ALLOC, LOAD, READONLY, CODE
  2 .rodata       000000b0  08006b50  08006b50  00007b50  2**2
                  CONTENTS, ALLOC, LOAD, READONLY, DATA
  3 .ARM.extab    00000000  08006c00  08006c00  0000817c  2**0
                  CONTENTS, READONLY
  4 .ARM          00000000  08006c00  08006c00  0000817c  2**0
                  CONTENTS, READONLY
  5 .preinit_array 00000000  08006c00  08006c00  0000817c  2**0
                  CONTENTS, ALLOC, LOAD, DATA
  6 .init_array   00000004  08006c00  08006c00  00007c00  2**2
                  CONTENTS, ALLOC, LOAD, READONLY, DATA
  7 .fini_array   00000004  08006c04  08006c04  00007c04  2**2
                  CONTENTS, ALLOC, LOAD, READONLY, DATA
  8 .data         0000017c  20000000  08006c08  00008000  2**2
                  CONTENTS, ALLOC, LOAD, DATA
  9 .bss          00001194  2000017c  08006d84  0000817c  2**2
                  ALLOC
 10 ._user_heap_stack 00000400  20001310  08006d84  00008310  2**0
                  ALLOC
 11 .ARM.attributes 00000028  00000000  00000000  0000817c  2**0
                  CONTENTS, READONLY
 12 .debug_info   00006bd7  00000000  00000000  000081a4  2**0
                  CONTENTS, READONLY, DEBUGGING, OCTETS
 13 .debug_abbrev 000017d0  00000000  00000000  0000ed7b  2**0
                  CONTENTS, READONLY, DEBUGGING, OCTETS
 14 .debug_aranges 00000490  00000000  00000000  00010550  2**3
                  CONTENTS, READONLY, DEBUGGING, OCTETS
 15 .debug_rnglists 00000360  00000000  00000000  000109e0  2**0
                  CONTENTS, READONLY, DEBUGGING, OCTETS
 16 .debug_macro  00018d0d  00000000  00000000  00010d40  2**0
                  CONTENTS, READONLY, DEBUGGING, OCTETS
 17 .debug_line   000076f5  00000000  00000000  00029a4d  2**0
                  CONTENTS, READONLY, DEBUGGING, OCTETS
 18 .debug_str    000902b2  00000000  00000000  00031142  2**0
                  CONTENTS, READONLY, DEBUGGING, OCTETS
 19 .comment      00000043  00000000  00000000  000c13f4  2**0
                  CONTENTS, READONLY
 20 .debug_frame  00000e08  00000000  00000000  000c1438  2**2
                  CONTENTS, READONLY, DEBUGGING, OCTETS
 21 .debug_line_str 00000062  00000000  00000000  000c2240  2**0
                  CONTENTS, READONLY, DEBUGGING, OCTETS

Disassembly of section .text:

080000c0 <__do_global_dtors_aux>:
 80000c0:	b510      	push	{r4, lr}
 80000c2:	4c06      	ldr	r4, [pc, #24]	@ (80000dc <__do_global_dtors_aux+0x1c>)
 80000c4:	7823      	ldrb	r3, [r4, #0]
 80000c6:	2b00      	cmp	r3, #0
 80000c8:	d107      	bne.n	80000da <__do_global_dtors_aux+0x1a>
 80000ca:	4b05      	ldr	r3, [pc, #20]	@ (80000e0 <__do_global_dtors_aux+0x20>)
 80000cc:	2b00      	cmp	r3, #0
 80000ce:	d002      	beq.n	80000d6 <__do_global_dtors_aux+0x16>
 80000d0:	4804      	ldr	r0, [pc, #16]	@ (80000e4 <__do_global_dtors_aux+0x24>)
 80000d2:	e000      	b.n	80000d6 <__do_global_dtors_aux+0x16>
 80000d4:	bf00      	nop
 80000d6:	2301      	movs	r3, #1
 80000d8:	7023      	strb	r3, [r4, #0]
 80000da:	bd10      	pop	{r4, pc}
 80000dc:	2000017c 	.word	0x2000017c
 80000e0:	00000000 	.word	0x00000000
 80000e4:	08006b38 	.word	0x08006b38

080000e8 <frame_dummy>:
 80000e8:	4b04      	ldr	r3, [pc, #16]	@ (80000fc <frame_dummy+0x14>)
 80000ea:	b510      	push	{r4, lr}
 80000ec:	2b00      	cmp	r3, #0
 80000ee:	d003      	beq.n	80000f8 <frame_dummy+0x10>
 80000f0:	4903      	ldr	r1, [pc, #12]	@ (8000100 <frame_dummy+0x18>)
 80000f2:	4804      	ldr	r0, [pc, #16]	@ (8000104 <frame_dummy+0x1c>)
 80000f4:	e000      	b.n	80000f8 <frame_dummy+0x10>
 80000f6:	bf00      	nop
 80000f8:	bd10      	pop	{r4, pc}
 80000fa:	46c0      	nop			@ (mov r8, r8)
 80000fc:	00000000 	.word	0x00000000
 8000100:	20000180 	.word	0x20000180
 8000104:	08006b38 	.word	0x08006b38

08000108 <strlen>:
 8000108:	2300      	movs	r3, #0
 800010a:	5cc2      	ldrb	r2, [r0, r3]
 800010c:	3301      	adds	r3, #1
 800010e:	2a00      	cmp	r2, #0
 8000110:	d1fb      	bne.n	800010a <strlen+0x2>
 8000112:	1e58      	subs	r0, r3, #1
 8000114:	4770      	bx	lr
	...

08000118 <__gnu_thumb1_case_sqi>:
 8000118:	b402      	push	{r1}
 800011a:	4671      	mov	r1, lr
 800011c:	0849      	lsrs	r1, r1, #1
 800011e:	0049      	lsls	r1, r1, #1
 8000120:	5609      	ldrsb	r1, [r1, r0]
 8000122:	0049      	lsls	r1, r1, #1
 8000124:	448e      	add	lr, r1
 8000126:	bc02      	pop	{r1}
 8000128:	4770      	bx	lr
 800012a:	46c0      	nop			@ (mov r8, r8)

0800012c <__gnu_thumb1_case_uqi>:
 800012c:	b402      	push	{r1}
 800012e:	4671      	mov	r1, lr
 8000130:	0849      	lsrs	r1, r1, #1
 8000132:	0049      	lsls	r1, r1, #1
 8000134:	5c09      	ldrb	r1, [r1, r0]
 8000136:	0049      	lsls	r1, r1, #1
 8000138:	448e      	add	lr, r1
 800013a:	bc02      	pop	{r1}
 800013c:	4770      	bx	lr
 800013e:	46c0      	nop			@ (mov r8, r8)

08000140 <__gnu_thumb1_case_shi>:
 8000140:	b403      	push	{r0, r1}
 8000142:	4671      	mov	r1, lr
 8000144:	0849      	lsrs	r1, r1, #1
 8000146:	0040      	lsls	r0, r0, #1
 8000148:	0049      	lsls	r1, r1, #1
 800014a:	5e09      	ldrsh	r1, [r1, r0]
 800014c:	0049      	lsls	r1, r1, #1
 800014e:	448e      	add	lr, r1
 8000150:	bc03      	pop	{r0, r1}
 8000152:	4770      	bx	lr

08000154 <__udivsi3>:
 8000154:	2200      	movs	r2, #0
 8000156:	0843      	lsrs	r3, r0, #1
 8000158:	428b      	cmp	r3, r1
 800015a:	d374      	bcc.n	8000246 <__udivsi3+0xf2>
 800015c:	0903      	lsrs	r3, r0, #4
 800015e:	428b      	cmp	r3, r1
 8000160:	d35f      	bcc.n	8000222 <__udivsi3+0xce>
 8000162:	0a03      	lsrs	r3, r0, #8
 8000164:	428b      	cmp	r3, r1
 8000166:	d344      	bcc.n	80001f2 <__udivsi3+0x9e>
 8000168:	0b03      	lsrs	r3, r0, #12
 800016a:	428b      	cmp	r3, r1
 800016c:	d328      	bcc.n	80001c0 <__udivsi3+0x6c>
 800016e:	0c03      	lsrs	r3, r0, #16
 8000170:	428b      	cmp	r3, r1
 8000172:	d30d      	bcc.n	8000190 <__udivsi3+0x3c>
 8000174:	22ff      	movs	r2, #255	@ 0xff
 8000176:	0209      	lsls	r1, r1, #8
 8000178:	ba12      	rev	r2, r2
 800017a:	0c03      	lsrs	r3, r0, #16
 800017c:	428b      	cmp	r3, r1
 800017e:	d302      	bcc.n	8000186 <__udivsi3+0x32>
 8000180:	1212      	asrs	r2, r2, #8
 8000182:	0209      	lsls	r1, r1, #8
 8000184:	d065      	beq.n	8000252 <__udivsi3+0xfe>
 8000186:	0b03      	lsrs	r3, r0, #12
 8000188:	428b      	cmp	r3, r1
 800018a:	d319      	bcc.n	80001c0 <__udivsi3+0x6c>
 800018c:	e000      	b.n	8000190 <__udivsi3+0x3c>
 800018e:	0a09      	lsrs	r1, r1, #8
 8000190:	0bc3      	lsrs	r3, r0, #15
 8000192:	428b      	cmp	r3, r1
 8000194:	d301      	bcc.n	800019a <__udivsi3+0x46>
 8000196:	03cb      	lsls	r3, r1, #15
 8000198:	1ac0      	subs	r0, r0, r3
 800019a:	4152      	adcs	r2, r2
 800019c:	0b83      	lsrs	r3, r0, #14
 800019e:	428b      	cmp	r3, r1
 80001a0:	d301      	bcc.n	80001a6 <__udivsi3+0x52>
 80001a2:	038b      	lsls	r3, r1, #14
 80001a4:	1ac0      	subs	r0, r0, r3
 80001a6:	4152      	adcs	r2, r2
 80001a8:	0b43      	lsrs	r3, r0, #13
 80001aa:	428b      	cmp	r3, r1
 80001ac:	d301      	bcc.n	80001b2 <__udivsi3+0x5e>
 80001ae:	034b      	lsls	r3, r1, #13
 80001b0:	1ac0      	subs	r0, r0, r3
 80001b2:	4152      	adcs	r2, r2
 80001b4:	0b03      	lsrs	r3, r0, #12
 80001b6:	428b      	cmp	r3, r1
 80001b8:	d301      	bcc.n	80001be <__udivsi3+0x6a>
 80001ba:	030b      	lsls	r3, r1, #12
 80001bc:	1ac0      	subs	r0, r0, r3
 80001be:	4152      	adcs	r2, r2
 80001c0:	0ac3      	lsrs	r3, r0, #11
 80001c2:	428b      	cmp	r3, r1
 80001c4:	d301      	bcc.n	80001ca <__udivsi3+0x76>
 80001c6:	02cb      	lsls	r3, r1, #11
 80001c8:	1ac0      	subs	r0, r0, r3
 80001ca:	4152      	adcs	r2, r2
 80001cc:	0a83      	lsrs	r3, r0, #10
 80001ce:	428b      	cmp	r3, r1
 80001d0:	d301      	bcc.n	80001d6 <__udivsi3+0x82>
 80001d2:	028b      	lsls	r3, r1, #10
 80001d4:	1ac0      	subs	r0, r0, r3
 80001d6:	4152      	adcs	r2, r2
 80001d8:	0a43      	lsrs	r3, r0, #9
 80001da:	428b      	cmp	r3, r1
 80001dc:	d301      	bcc.n	80001e2 <__udivsi3+0x8e>
 80001de:	024b      	lsls	r3, r1, #9
 80001e0:	1ac0      	subs	r0, r0, r3
 80001e2:	4152      	adcs	r2, r2
 80001e4:	0a03      	lsrs	r3, r0, #8
 80001e6:	428b      	cmp	r3, r1
 80001e8:	d301      	bcc.n	80001ee <__udivsi3+0x9a>
 80001ea:	020b      	lsls	r3, r1, #8
 80001ec:	1ac0      	subs	r0, r0, r3
 80001ee:	4152      	adcs	r2, r2
 80001f0:	d2cd      	bcs.n	800018e <__udivsi3+0x3a>
 80001f2:	09c3      	lsrs	r3, r0, #7
 80001f4:	428b      	cmp	r3, r1
 80001f6:	d301      	bcc.n	80001fc <__udivsi3+0xa8>
 80001f8:	01cb      	lsls	r3, r1, #7
 80001fa:	1ac0      	subs	r0, r0, r3
 80001fc:	4152      	adcs	r2, r2
 80001fe:	0983      	lsrs	r3, r0, #6
 8000200:	428b      	cmp	r3, r1
 8000202:	d301      	bcc.n	8000208 <__udivsi3+0xb4>
 8000204:	018b      	lsls	r3, r1, #6
 8000206:	1ac0      	subs	r0, r0, r3
 8000208:	4152      	adcs	r2, r2
 800020a:	0943      	lsrs	r3, r0, #5
 800020c:	428b      	cmp	r3, r1
 800020e:	d301      	bcc.n	8000214 <__udivsi3+0xc0>
 8000210:	014b      	lsls	r3, r1, #5
 8000212:	1ac0      	subs	r0, r0, r3
 8000214:	4152      	adcs	r2, r2
 8000216:	0903      	lsrs	r3, r0, #4
 8000218:	428b      	cmp	r3, r1
 800021a:	d301      	bcc.n	8000220 <__udivsi3+0xcc>
 800021c:	010b      	lsls	r3, r1, #4
 800021e:	1ac0      	subs	r0, r0, r3
 8000220:	4152      	adcs	r2, r2
 8000222:	08c3      	lsrs	r3, r0, #3
 8000224:	428b      	cmp	r3, r1
 8000226:	d301      	bcc.n	800022c <__udivsi3+0xd8>
 8000228:	00cb      	lsls	r3, r1, #3
 800022a:	1ac0      	subs	r0, r0, r3
 800022c:	4152      	adcs	r2, r2
 800022e:	0883      	lsrs	r3, r0, #2
 8000230:	428b      	cmp	r3, r1
 8000232:	d301      	bcc.n	8000238 <__udivsi3+0xe4>
 8000234:	008b      	lsls	r3, r1, #2
 8000236:	1ac0      	subs	r0, r0, r3
 8000238:	4152      	adcs	r2, r2
 800023a:	0843      	lsrs	r3, r0, #1
 800023c:	428b      	cmp	r3, r1
 800023e:	d301      	bcc.n	8000244 <__udivsi3+0xf0>
 8000240:	004b      	lsls	r3, r1, #1
 8000242:	1ac0      	subs	r0, r0, r3
 8000244:	4152      	adcs	r2, r2
 8000246:	1a41      	subs	r1, r0, r1
 8000248:	d200      	bcs.n	800024c <__udivsi3+0xf8>
 800024a:	4601      	mov	r1, r0
 800024c:	4152      	adcs	r2, r2
 800024e:	4610      	mov	r0, r2
 8000250:	4770      	bx	lr
 8000252:	e7ff      	b.n	8000254 <__udivsi3+0x100>
 8000254:	b501      	push	{r0, lr}
 8000256:	2000      	movs	r0, #0
 8000258:	f000 f806 	bl	8000268 <__aeabi_idiv0>
 800025c:	bd02      	pop	{r1, pc}
 800025e:	46c0      	nop			@ (mov r8, r8)

08000260 <__aeabi_uidivmod>:
 8000260:	2900      	cmp	r1, #0
 8000262:	d0f7      	beq.n	8000254 <__udivsi3+0x100>
 8000264:	e776      	b.n	8000154 <__udivsi3>
 8000266:	4770      	bx	lr

08000268 <__aeabi_idiv0>:
 8000268:	4770      	bx	lr
 800026a:	46c0      	nop			@ (mov r8, r8)

0800026c <main>:
/**
  * @brief  The application entry point.
  * @retval int
  */
int main(void)
{
 800026c:	b580      	push	{r7, lr}
 800026e:	af00      	add	r7, sp, #0
  /* USER CODE END 1 */

  /* MCU Configuration--------------------------------------------------------*/

  /* Reset of all peripherals, Initializes the Flash interface and the Systick. */
  HAL_Init();
 8000270:	f003 f93e 	bl	80034f0 <HAL_Init>
  /* USER CODE BEGIN Init */

  /* USER CODE END Init */

  /* Configure the system clock */
  SystemClock_Config();
 8000274:	f000 f81e 	bl	80002b4 <SystemClock_Config>
  /* USER CODE BEGIN SysInit */

  /* USER CODE END SysInit */

  /* Initialize all configured peripherals */
  MX_GPIO_Init();
 8000278:	f000 f912 	bl	80004a0 <MX_GPIO_Init>
  MX_USB_DEVICE_Init();
 800027c:	f006 fa12 	bl	80066a4 <MX_USB_DEVICE_Init>
  MX_TIM2_Init();
 8000280:	f000 f86c 	bl	800035c <MX_TIM2_Init>
  MX_TIM14_Init();
 8000284:	f000 f8e6 	bl	8000454 <MX_TIM14_Init>
  /* USER CODE BEGIN 2 */
  SentApp_Init();
 8000288:	f000 fc9a 	bl	8000bc0 <SentApp_Init>

  /* Start RX: TIM2 CH3 input capture interrupt + overflow interrupt */
  HAL_TIM_IC_Start_IT(&htim2, TIM_CHANNEL_3);
 800028c:	4b08      	ldr	r3, [pc, #32]	@ (80002b0 <main+0x44>)
 800028e:	2108      	movs	r1, #8
 8000290:	0018      	movs	r0, r3
 8000292:	f004 ff7f 	bl	8005194 <HAL_TIM_IC_Start_IT>
  __HAL_TIM_ENABLE_IT(&htim2, TIM_IT_UPDATE);
 8000296:	4b06      	ldr	r3, [pc, #24]	@ (80002b0 <main+0x44>)
 8000298:	681b      	ldr	r3, [r3, #0]
 800029a:	68da      	ldr	r2, [r3, #12]
 800029c:	4b04      	ldr	r3, [pc, #16]	@ (80002b0 <main+0x44>)
 800029e:	681b      	ldr	r3, [r3, #0]
 80002a0:	2101      	movs	r1, #1
 80002a2:	430a      	orrs	r2, r1
 80002a4:	60da      	str	r2, [r3, #12]

  /* TIM14 is started on-demand when TX frames are submitted */

  /* Start RX mode: bridge decodes SENT frames from PA2 (TIM2 CH3) */
  SentApp_StartRxMode();
 80002a6:	f000 fd6f 	bl	8000d88 <SentApp_StartRxMode>
  while (1)
  {
    /* USER CODE END WHILE */

    /* USER CODE BEGIN 3 */
    SentApp_Process();
 80002aa:	f000 fcef 	bl	8000c8c <SentApp_Process>
 80002ae:	e7fc      	b.n	80002aa <main+0x3e>
 80002b0:	20000198 	.word	0x20000198

080002b4 <SystemClock_Config>:
/**
  * @brief System Clock Configuration
  * @retval None
  */
void SystemClock_Config(void)
{
 80002b4:	b590      	push	{r4, r7, lr}
 80002b6:	b099      	sub	sp, #100	@ 0x64
 80002b8:	af00      	add	r7, sp, #0
  RCC_OscInitTypeDef RCC_OscInitStruct = {0};
 80002ba:	242c      	movs	r4, #44	@ 0x2c
 80002bc:	193b      	adds	r3, r7, r4
 80002be:	0018      	movs	r0, r3
 80002c0:	2334      	movs	r3, #52	@ 0x34
 80002c2:	001a      	movs	r2, r3
 80002c4:	2100      	movs	r1, #0
 80002c6:	f006 fc00 	bl	8006aca <memset>
  RCC_ClkInitTypeDef RCC_ClkInitStruct = {0};
 80002ca:	231c      	movs	r3, #28
 80002cc:	18fb      	adds	r3, r7, r3
 80002ce:	0018      	movs	r0, r3
 80002d0:	2310      	movs	r3, #16
 80002d2:	001a      	movs	r2, r3
 80002d4:	2100      	movs	r1, #0
 80002d6:	f006 fbf8 	bl	8006aca <memset>
  RCC_PeriphCLKInitTypeDef PeriphClkInit = {0};
 80002da:	1d3b      	adds	r3, r7, #4
 80002dc:	0018      	movs	r0, r3
 80002de:	2318      	movs	r3, #24
 80002e0:	001a      	movs	r2, r3
 80002e2:	2100      	movs	r1, #0
 80002e4:	f006 fbf1 	bl	8006aca <memset>

  /** Initializes the RCC Oscillators according to the specified parameters
  * in the RCC_OscInitTypeDef structure.
  */
  RCC_OscInitStruct.OscillatorType = RCC_OSCILLATORTYPE_HSI48;
 80002e8:	193b      	adds	r3, r7, r4
 80002ea:	2220      	movs	r2, #32
 80002ec:	601a      	str	r2, [r3, #0]
  RCC_OscInitStruct.HSI48State = RCC_HSI48_ON;
 80002ee:	193b      	adds	r3, r7, r4
 80002f0:	2201      	movs	r2, #1
 80002f2:	621a      	str	r2, [r3, #32]
  RCC_OscInitStruct.PLL.PLLState = RCC_PLL_NONE;
 80002f4:	193b      	adds	r3, r7, r4
 80002f6:	2200      	movs	r2, #0
 80002f8:	625a      	str	r2, [r3, #36]	@ 0x24
  if (HAL_RCC_OscConfig(&RCC_OscInitStruct) != HAL_OK)
 80002fa:	193b      	adds	r3, r7, r4
 80002fc:	0018      	movs	r0, r3
 80002fe:	f004 f88d 	bl	800441c <HAL_RCC_OscConfig>
 8000302:	1e03      	subs	r3, r0, #0
 8000304:	d001      	beq.n	800030a <SystemClock_Config+0x56>
  {
    Error_Handler();
 8000306:	f000 fa2b 	bl	8000760 <Error_Handler>
  }

  /** Initializes the CPU, AHB and APB buses clocks
  */
  RCC_ClkInitStruct.ClockType = RCC_CLOCKTYPE_HCLK|RCC_CLOCKTYPE_SYSCLK
 800030a:	211c      	movs	r1, #28
 800030c:	187b      	adds	r3, r7, r1
 800030e:	2207      	movs	r2, #7
 8000310:	601a      	str	r2, [r3, #0]
                              |RCC_CLOCKTYPE_PCLK1;
  RCC_ClkInitStruct.SYSCLKSource = RCC_SYSCLKSOURCE_HSI48;
 8000312:	187b      	adds	r3, r7, r1
 8000314:	2203      	movs	r2, #3
 8000316:	605a      	str	r2, [r3, #4]
  RCC_ClkInitStruct.AHBCLKDivider = RCC_SYSCLK_DIV1;
 8000318:	187b      	adds	r3, r7, r1
 800031a:	2200      	movs	r2, #0
 800031c:	609a      	str	r2, [r3, #8]
  RCC_ClkInitStruct.APB1CLKDivider = RCC_HCLK_DIV1;
 800031e:	187b      	adds	r3, r7, r1
 8000320:	2200      	movs	r2, #0
 8000322:	60da      	str	r2, [r3, #12]

  if (HAL_RCC_ClockConfig(&RCC_ClkInitStruct, FLASH_LATENCY_1) != HAL_OK)
 8000324:	187b      	adds	r3, r7, r1
 8000326:	2101      	movs	r1, #1
 8000328:	0018      	movs	r0, r3
 800032a:	f004 fafd 	bl	8004928 <HAL_RCC_ClockConfig>
 800032e:	1e03      	subs	r3, r0, #0
 8000330:	d001      	beq.n	8000336 <SystemClock_Config+0x82>
  {
    Error_Handler();
 8000332:	f000 fa15 	bl	8000760 <Error_Handler>
  }
  PeriphClkInit.PeriphClockSelection = RCC_PERIPHCLK_USB;
 8000336:	1d3b      	adds	r3, r7, #4
 8000338:	2280      	movs	r2, #128	@ 0x80
 800033a:	0292      	lsls	r2, r2, #10
 800033c:	601a      	str	r2, [r3, #0]
  PeriphClkInit.UsbClockSelection = RCC_USBCLKSOURCE_HSI48;
 800033e:	1d3b      	adds	r3, r7, #4
 8000340:	2200      	movs	r2, #0
 8000342:	615a      	str	r2, [r3, #20]

  if (HAL_RCCEx_PeriphCLKConfig(&PeriphClkInit) != HAL_OK)
 8000344:	1d3b      	adds	r3, r7, #4
 8000346:	0018      	movs	r0, r3
 8000348:	f004 fb78 	bl	8004a3c <HAL_RCCEx_PeriphCLKConfig>
 800034c:	1e03      	subs	r3, r0, #0
 800034e:	d001      	beq.n	8000354 <SystemClock_Config+0xa0>
  {
    Error_Handler();
 8000350:	f000 fa06 	bl	8000760 <Error_Handler>
  }
}
 8000354:	46c0      	nop			@ (mov r8, r8)
 8000356:	46bd      	mov	sp, r7
 8000358:	b019      	add	sp, #100	@ 0x64
 800035a:	bd90      	pop	{r4, r7, pc}

0800035c <MX_TIM2_Init>:
  * @brief TIM2 Initialization Function
  * @param None
  * @retval None
  */
static void MX_TIM2_Init(void)
{
 800035c:	b580      	push	{r7, lr}
 800035e:	b08a      	sub	sp, #40	@ 0x28
 8000360:	af00      	add	r7, sp, #0

  /* USER CODE BEGIN TIM2_Init 0 */

  /* USER CODE END TIM2_Init 0 */

  TIM_ClockConfigTypeDef sClockSourceConfig = {0};
 8000362:	2318      	movs	r3, #24
 8000364:	18fb      	adds	r3, r7, r3
 8000366:	0018      	movs	r0, r3
 8000368:	2310      	movs	r3, #16
 800036a:	001a      	movs	r2, r3
 800036c:	2100      	movs	r1, #0
 800036e:	f006 fbac 	bl	8006aca <memset>
  TIM_MasterConfigTypeDef sMasterConfig = {0};
 8000372:	2310      	movs	r3, #16
 8000374:	18fb      	adds	r3, r7, r3
 8000376:	0018      	movs	r0, r3
 8000378:	2308      	movs	r3, #8
 800037a:	001a      	movs	r2, r3
 800037c:	2100      	movs	r1, #0
 800037e:	f006 fba4 	bl	8006aca <memset>
  TIM_IC_InitTypeDef sConfigIC = {0};
 8000382:	003b      	movs	r3, r7
 8000384:	0018      	movs	r0, r3
 8000386:	2310      	movs	r3, #16
 8000388:	001a      	movs	r2, r3
 800038a:	2100      	movs	r1, #0
 800038c:	f006 fb9d 	bl	8006aca <memset>

  /* USER CODE BEGIN TIM2_Init 1 */

  /* USER CODE END TIM2_Init 1 */
  htim2.Instance = TIM2;
 8000390:	4b2e      	ldr	r3, [pc, #184]	@ (800044c <MX_TIM2_Init+0xf0>)
 8000392:	2280      	movs	r2, #128	@ 0x80
 8000394:	05d2      	lsls	r2, r2, #23
 8000396:	601a      	str	r2, [r3, #0]
  htim2.Init.Prescaler = 0;
 8000398:	4b2c      	ldr	r3, [pc, #176]	@ (800044c <MX_TIM2_Init+0xf0>)
 800039a:	2200      	movs	r2, #0
 800039c:	605a      	str	r2, [r3, #4]
  htim2.Init.CounterMode = TIM_COUNTERMODE_UP;
 800039e:	4b2b      	ldr	r3, [pc, #172]	@ (800044c <MX_TIM2_Init+0xf0>)
 80003a0:	2200      	movs	r2, #0
 80003a2:	609a      	str	r2, [r3, #8]
  htim2.Init.Period = 65535 ;
 80003a4:	4b29      	ldr	r3, [pc, #164]	@ (800044c <MX_TIM2_Init+0xf0>)
 80003a6:	4a2a      	ldr	r2, [pc, #168]	@ (8000450 <MX_TIM2_Init+0xf4>)
 80003a8:	60da      	str	r2, [r3, #12]
  htim2.Init.ClockDivision = TIM_CLOCKDIVISION_DIV1;
 80003aa:	4b28      	ldr	r3, [pc, #160]	@ (800044c <MX_TIM2_Init+0xf0>)
 80003ac:	2200      	movs	r2, #0
 80003ae:	611a      	str	r2, [r3, #16]
  htim2.Init.AutoReloadPreload = TIM_AUTORELOAD_PRELOAD_DISABLE;
 80003b0:	4b26      	ldr	r3, [pc, #152]	@ (800044c <MX_TIM2_Init+0xf0>)
 80003b2:	2200      	movs	r2, #0
 80003b4:	619a      	str	r2, [r3, #24]
  if (HAL_TIM_Base_Init(&htim2) != HAL_OK)
 80003b6:	4b25      	ldr	r3, [pc, #148]	@ (800044c <MX_TIM2_Init+0xf0>)
 80003b8:	0018      	movs	r0, r3
 80003ba:	f004 fd19 	bl	8004df0 <HAL_TIM_Base_Init>
 80003be:	1e03      	subs	r3, r0, #0
 80003c0:	d001      	beq.n	80003c6 <MX_TIM2_Init+0x6a>
  {
    Error_Handler();
 80003c2:	f000 f9cd 	bl	8000760 <Error_Handler>
  }
  sClockSourceConfig.ClockSource = TIM_CLOCKSOURCE_INTERNAL;
 80003c6:	2118      	movs	r1, #24
 80003c8:	187b      	adds	r3, r7, r1
 80003ca:	2280      	movs	r2, #128	@ 0x80
 80003cc:	0152      	lsls	r2, r2, #5
 80003ce:	601a      	str	r2, [r3, #0]
  if (HAL_TIM_ConfigClockSource(&htim2, &sClockSourceConfig) != HAL_OK)
 80003d0:	187a      	adds	r2, r7, r1
 80003d2:	4b1e      	ldr	r3, [pc, #120]	@ (800044c <MX_TIM2_Init+0xf0>)
 80003d4:	0011      	movs	r1, r2
 80003d6:	0018      	movs	r0, r3
 80003d8:	f004 fe38 	bl	800504c <HAL_TIM_ConfigClockSource>
 80003dc:	1e03      	subs	r3, r0, #0
 80003de:	d001      	beq.n	80003e4 <MX_TIM2_Init+0x88>
  {
    Error_Handler();
 80003e0:	f000 f9be 	bl	8000760 <Error_Handler>
  }
  if (HAL_TIM_IC_Init(&htim2) != HAL_OK)
 80003e4:	4b19      	ldr	r3, [pc, #100]	@ (800044c <MX_TIM2_Init+0xf0>)
 80003e6:	0018      	movs	r0, r3
 80003e8:	f004 fd2a 	bl	8004e40 <HAL_TIM_IC_Init>
 80003ec:	1e03      	subs	r3, r0, #0
 80003ee:	d001      	beq.n	80003f4 <MX_TIM2_Init+0x98>
  {
    Error_Handler();
 80003f0:	f000 f9b6 	bl	8000760 <Error_Handler>
  }
  sMasterConfig.MasterOutputTrigger = TIM_TRGO_RESET;
 80003f4:	2110      	movs	r1, #16
 80003f6:	187b      	adds	r3, r7, r1
 80003f8:	2200      	movs	r2, #0
 80003fa:	601a      	str	r2, [r3, #0]
  sMasterConfig.MasterSlaveMode = TIM_MASTERSLAVEMODE_DISABLE;
 80003fc:	187b      	adds	r3, r7, r1
 80003fe:	2200      	movs	r2, #0
 8000400:	605a      	str	r2, [r3, #4]
  if (HAL_TIMEx_MasterConfigSynchronization(&htim2, &sMasterConfig) != HAL_OK)
 8000402:	187a      	adds	r2, r7, r1
 8000404:	4b11      	ldr	r3, [pc, #68]	@ (800044c <MX_TIM2_Init+0xf0>)
 8000406:	0011      	movs	r1, r2
 8000408:	0018      	movs	r0, r3
 800040a:	f004 ff1f 	bl	800524c <HAL_TIMEx_MasterConfigSynchronization>
 800040e:	1e03      	subs	r3, r0, #0
 8000410:	d001      	beq.n	8000416 <MX_TIM2_Init+0xba>
  {
    Error_Handler();
 8000412:	f000 f9a5 	bl	8000760 <Error_Handler>
  }
  sConfigIC.ICPolarity = TIM_INPUTCHANNELPOLARITY_FALLING;
 8000416:	003b      	movs	r3, r7
 8000418:	2202      	movs	r2, #2
 800041a:	601a      	str	r2, [r3, #0]
  sConfigIC.ICSelection = TIM_ICSELECTION_DIRECTTI;
 800041c:	003b      	movs	r3, r7
 800041e:	2201      	movs	r2, #1
 8000420:	605a      	str	r2, [r3, #4]
  sConfigIC.ICPrescaler = TIM_ICPSC_DIV1;
 8000422:	003b      	movs	r3, r7
 8000424:	2200      	movs	r2, #0
 8000426:	609a      	str	r2, [r3, #8]
  sConfigIC.ICFilter = 0;
 8000428:	003b      	movs	r3, r7
 800042a:	2200      	movs	r2, #0
 800042c:	60da      	str	r2, [r3, #12]
  if (HAL_TIM_IC_ConfigChannel(&htim2, &sConfigIC, TIM_CHANNEL_3) != HAL_OK)
 800042e:	0039      	movs	r1, r7
 8000430:	4b06      	ldr	r3, [pc, #24]	@ (800044c <MX_TIM2_Init+0xf0>)
 8000432:	2208      	movs	r2, #8
 8000434:	0018      	movs	r0, r3
 8000436:	f004 fd53 	bl	8004ee0 <HAL_TIM_IC_ConfigChannel>
 800043a:	1e03      	subs	r3, r0, #0
 800043c:	d001      	beq.n	8000442 <MX_TIM2_Init+0xe6>
  {
    Error_Handler();
 800043e:	f000 f98f 	bl	8000760 <Error_Handler>
  }
  /* USER CODE BEGIN TIM2_Init 2 */

  /* USER CODE END TIM2_Init 2 */

}
 8000442:	46c0      	nop			@ (mov r8, r8)
 8000444:	46bd      	mov	sp, r7
 8000446:	b00a      	add	sp, #40	@ 0x28
 8000448:	bd80      	pop	{r7, pc}
 800044a:	46c0      	nop			@ (mov r8, r8)
 800044c:	20000198 	.word	0x20000198
 8000450:	0000ffff 	.word	0x0000ffff

08000454 <MX_TIM14_Init>:
  * @brief TIM14 Initialization Function
  * @param None
  * @retval None
  */
static void MX_TIM14_Init(void)
{
 8000454:	b580      	push	{r7, lr}
 8000456:	af00      	add	r7, sp, #0
  /* USER CODE END TIM14_Init 0 */

  /* USER CODE BEGIN TIM14_Init 1 */

  /* USER CODE END TIM14_Init 1 */
  htim14.Instance = TIM14;
 8000458:	4b0e      	ldr	r3, [pc, #56]	@ (8000494 <MX_TIM14_Init+0x40>)
 800045a:	4a0f      	ldr	r2, [pc, #60]	@ (8000498 <MX_TIM14_Init+0x44>)
 800045c:	601a      	str	r2, [r3, #0]
  htim14.Init.Prescaler = 0;
 800045e:	4b0d      	ldr	r3, [pc, #52]	@ (8000494 <MX_TIM14_Init+0x40>)
 8000460:	2200      	movs	r2, #0
 8000462:	605a      	str	r2, [r3, #4]
  htim14.Init.CounterMode = TIM_COUNTERMODE_UP;
 8000464:	4b0b      	ldr	r3, [pc, #44]	@ (8000494 <MX_TIM14_Init+0x40>)
 8000466:	2200      	movs	r2, #0
 8000468:	609a      	str	r2, [r3, #8]
  htim14.Init.Period = 65535;
 800046a:	4b0a      	ldr	r3, [pc, #40]	@ (8000494 <MX_TIM14_Init+0x40>)
 800046c:	4a0b      	ldr	r2, [pc, #44]	@ (800049c <MX_TIM14_Init+0x48>)
 800046e:	60da      	str	r2, [r3, #12]
  htim14.Init.ClockDivision = TIM_CLOCKDIVISION_DIV1;
 8000470:	4b08      	ldr	r3, [pc, #32]	@ (8000494 <MX_TIM14_Init+0x40>)
 8000472:	2200      	movs	r2, #0
 8000474:	611a      	str	r2, [r3, #16]
  htim14.Init.AutoReloadPreload = TIM_AUTORELOAD_PRELOAD_ENABLE;
 8000476:	4b07      	ldr	r3, [pc, #28]	@ (8000494 <MX_TIM14_Init+0x40>)
 8000478:	2280      	movs	r2, #128	@ 0x80
 800047a:	619a      	str	r2, [r3, #24]
  if (HAL_TIM_Base_Init(&htim14) != HAL_OK)
 800047c:	4b05      	ldr	r3, [pc, #20]	@ (8000494 <MX_TIM14_Init+0x40>)
 800047e:	0018      	movs	r0, r3
 8000480:	f004 fcb6 	bl	8004df0 <HAL_TIM_Base_Init>
 8000484:	1e03      	subs	r3, r0, #0
 8000486:	d001      	beq.n	800048c <MX_TIM14_Init+0x38>
  {
    Error_Handler();
 8000488:	f000 f96a 	bl	8000760 <Error_Handler>
  }
  /* USER CODE BEGIN TIM14_Init 2 */

  /* USER CODE END TIM14_Init 2 */

}
 800048c:	46c0      	nop			@ (mov r8, r8)
 800048e:	46bd      	mov	sp, r7
 8000490:	bd80      	pop	{r7, pc}
 8000492:	46c0      	nop			@ (mov r8, r8)
 8000494:	200001e0 	.word	0x200001e0
 8000498:	40002000 	.word	0x40002000
 800049c:	0000ffff 	.word	0x0000ffff

080004a0 <MX_GPIO_Init>:
  * @brief GPIO Initialization Function
  * @param None
  * @retval None
  */
static void MX_GPIO_Init(void)
{
 80004a0:	b580      	push	{r7, lr}
 80004a2:	b086      	sub	sp, #24
 80004a4:	af00      	add	r7, sp, #0
  GPIO_InitTypeDef GPIO_InitStruct = {0};
 80004a6:	1d3b      	adds	r3, r7, #4
 80004a8:	0018      	movs	r0, r3
 80004aa:	2314      	movs	r3, #20
 80004ac:	001a      	movs	r2, r3
 80004ae:	2100      	movs	r1, #0
 80004b0:	f006 fb0b 	bl	8006aca <memset>
  /* USER CODE BEGIN MX_GPIO_Init_1 */

  /* USER CODE END MX_GPIO_Init_1 */

  /* GPIO Ports Clock Enable */
  __HAL_RCC_GPIOA_CLK_ENABLE();
 80004b4:	4b15      	ldr	r3, [pc, #84]	@ (800050c <MX_GPIO_Init+0x6c>)
 80004b6:	695a      	ldr	r2, [r3, #20]
 80004b8:	4b14      	ldr	r3, [pc, #80]	@ (800050c <MX_GPIO_Init+0x6c>)
 80004ba:	2180      	movs	r1, #128	@ 0x80
 80004bc:	0289      	lsls	r1, r1, #10
 80004be:	430a      	orrs	r2, r1
 80004c0:	615a      	str	r2, [r3, #20]
 80004c2:	4b12      	ldr	r3, [pc, #72]	@ (800050c <MX_GPIO_Init+0x6c>)
 80004c4:	695a      	ldr	r2, [r3, #20]
 80004c6:	2380      	movs	r3, #128	@ 0x80
 80004c8:	029b      	lsls	r3, r3, #10
 80004ca:	4013      	ands	r3, r2
 80004cc:	603b      	str	r3, [r7, #0]
 80004ce:	683b      	ldr	r3, [r7, #0]

  /*Configure GPIO pin Output Level */
  HAL_GPIO_WritePin(SENT_TX_GPIO_Port, SENT_TX_Pin, GPIO_PIN_RESET);
 80004d0:	2390      	movs	r3, #144	@ 0x90
 80004d2:	05db      	lsls	r3, r3, #23
 80004d4:	2200      	movs	r2, #0
 80004d6:	2110      	movs	r1, #16
 80004d8:	0018      	movs	r0, r3
 80004da:	f003 f92d 	bl	8003738 <HAL_GPIO_WritePin>

  /*Configure GPIO pin : SENT_TX_Pin */
  GPIO_InitStruct.Pin = SENT_TX_Pin;
 80004de:	1d3b      	adds	r3, r7, #4
 80004e0:	2210      	movs	r2, #16
 80004e2:	601a      	str	r2, [r3, #0]
  GPIO_InitStruct.Mode = GPIO_MODE_OUTPUT_PP;
 80004e4:	1d3b      	adds	r3, r7, #4
 80004e6:	2201      	movs	r2, #1
 80004e8:	605a      	str	r2, [r3, #4]
  GPIO_InitStruct.Pull = GPIO_NOPULL;
 80004ea:	1d3b      	adds	r3, r7, #4
 80004ec:	2200      	movs	r2, #0
 80004ee:	609a      	str	r2, [r3, #8]
  GPIO_InitStruct.Speed = GPIO_SPEED_FREQ_LOW;
 80004f0:	1d3b      	adds	r3, r7, #4
 80004f2:	2200      	movs	r2, #0
 80004f4:	60da      	str	r2, [r3, #12]
  HAL_GPIO_Init(SENT_TX_GPIO_Port, &GPIO_InitStruct);
 80004f6:	1d3a      	adds	r2, r7, #4
 80004f8:	2390      	movs	r3, #144	@ 0x90
 80004fa:	05db      	lsls	r3, r3, #23
 80004fc:	0011      	movs	r1, r2
 80004fe:	0018      	movs	r0, r3
 8000500:	f003 f868 	bl	80035d4 <HAL_GPIO_Init>

  /* USER CODE BEGIN MX_GPIO_Init_2 */

  /* USER CODE END MX_GPIO_Init_2 */
}
 8000504:	46c0      	nop			@ (mov r8, r8)
 8000506:	46bd      	mov	sp, r7
 8000508:	b006      	add	sp, #24
 800050a:	bd80      	pop	{r7, pc}
 800050c:	40021000 	.word	0x40021000

08000510 <HAL_TIM_IC_CaptureCallback>:
static volatile uint8_t g_sent_tx_need_terminal_edge = 0;
static volatile uint8_t g_sent_tx_first_interval_high_comp = 0;
static volatile uint16_t g_sent_tx_interval = 0;

void HAL_TIM_IC_CaptureCallback(TIM_HandleTypeDef *htim)
{
 8000510:	b580      	push	{r7, lr}
 8000512:	b084      	sub	sp, #16
 8000514:	af00      	add	r7, sp, #0
 8000516:	6078      	str	r0, [r7, #4]
  if (htim->Instance == TIM2 && htim->Channel == HAL_TIM_ACTIVE_CHANNEL_3)
 8000518:	687b      	ldr	r3, [r7, #4]
 800051a:	681a      	ldr	r2, [r3, #0]
 800051c:	2380      	movs	r3, #128	@ 0x80
 800051e:	05db      	lsls	r3, r3, #23
 8000520:	429a      	cmp	r2, r3
 8000522:	d111      	bne.n	8000548 <HAL_TIM_IC_CaptureCallback+0x38>
 8000524:	687b      	ldr	r3, [r7, #4]
 8000526:	7f1b      	ldrb	r3, [r3, #28]
 8000528:	2b04      	cmp	r3, #4
 800052a:	d10d      	bne.n	8000548 <HAL_TIM_IC_CaptureCallback+0x38>
  {
    uint16_t captured = (uint16_t)HAL_TIM_ReadCapturedValue(htim, TIM_CHANNEL_3);
 800052c:	687b      	ldr	r3, [r7, #4]
 800052e:	2108      	movs	r1, #8
 8000530:	0018      	movs	r0, r3
 8000532:	f004 fb60 	bl	8004bf6 <HAL_TIM_ReadCapturedValue>
 8000536:	0002      	movs	r2, r0
 8000538:	210e      	movs	r1, #14
 800053a:	187b      	adds	r3, r7, r1
 800053c:	801a      	strh	r2, [r3, #0]
    SentApp_OnSentRxCaptureEdge(captured);
 800053e:	187b      	adds	r3, r7, r1
 8000540:	881b      	ldrh	r3, [r3, #0]
 8000542:	0018      	movs	r0, r3
 8000544:	f000 fbda 	bl	8000cfc <SentApp_OnSentRxCaptureEdge>
  }
}
 8000548:	46c0      	nop			@ (mov r8, r8)
 800054a:	46bd      	mov	sp, r7
 800054c:	b004      	add	sp, #16
 800054e:	bd80      	pop	{r7, pc}

08000550 <SentApp_OnTim14UpdateIrq>:

void SentApp_OnTim14UpdateIrq(void)
{
 8000550:	b580      	push	{r7, lr}
 8000552:	b082      	sub	sp, #8
 8000554:	af00      	add	r7, sp, #0
  if (!g_sent_tx_in_low)
 8000556:	4b6f      	ldr	r3, [pc, #444]	@ (8000714 <SentApp_OnTim14UpdateIrq+0x1c4>)
 8000558:	781b      	ldrb	r3, [r3, #0]
 800055a:	b2db      	uxtb	r3, r3
 800055c:	2b00      	cmp	r3, #0
 800055e:	d000      	beq.n	8000562 <SentApp_OnTim14UpdateIrq+0x12>
 8000560:	e08a      	b.n	8000678 <SentApp_OnTim14UpdateIrq+0x128>
  {
    if (!SentApp_HasPendingTxIntervals())
 8000562:	f000 fc01 	bl	8000d68 <SentApp_HasPendingTxIntervals>
 8000566:	1e03      	subs	r3, r0, #0
 8000568:	d12f      	bne.n	80005ca <SentApp_OnTim14UpdateIrq+0x7a>
    {
      if (g_sent_tx_need_terminal_edge)
 800056a:	4b6b      	ldr	r3, [pc, #428]	@ (8000718 <SentApp_OnTim14UpdateIrq+0x1c8>)
 800056c:	781b      	ldrb	r3, [r3, #0]
 800056e:	b2db      	uxtb	r3, r3
 8000570:	2b00      	cmp	r3, #0
 8000572:	d018      	beq.n	80005a6 <SentApp_OnTim14UpdateIrq+0x56>
      {
        /* Emit one delimiter edge to close the last pause interval cleanly. */
        SENT_TX_GPIO_Port->BRR = SENT_TX_Pin;
 8000574:	2390      	movs	r3, #144	@ 0x90
 8000576:	05db      	lsls	r3, r3, #23
 8000578:	2210      	movs	r2, #16
 800057a:	629a      	str	r2, [r3, #40]	@ 0x28
        __HAL_TIM_SET_COUNTER(&htim14, 0U);
 800057c:	4b67      	ldr	r3, [pc, #412]	@ (800071c <SentApp_OnTim14UpdateIrq+0x1cc>)
 800057e:	681b      	ldr	r3, [r3, #0]
 8000580:	2200      	movs	r2, #0
 8000582:	625a      	str	r2, [r3, #36]	@ 0x24
        __HAL_TIM_SET_AUTORELOAD(&htim14, SENT_TX_LOW_TICKS - 1U);
 8000584:	4b65      	ldr	r3, [pc, #404]	@ (800071c <SentApp_OnTim14UpdateIrq+0x1cc>)
 8000586:	681b      	ldr	r3, [r3, #0]
 8000588:	2204      	movs	r2, #4
 800058a:	62da      	str	r2, [r3, #44]	@ 0x2c
 800058c:	4b63      	ldr	r3, [pc, #396]	@ (800071c <SentApp_OnTim14UpdateIrq+0x1cc>)
 800058e:	2204      	movs	r2, #4
 8000590:	60da      	str	r2, [r3, #12]
        g_sent_tx_in_low = 1;
 8000592:	4b60      	ldr	r3, [pc, #384]	@ (8000714 <SentApp_OnTim14UpdateIrq+0x1c4>)
 8000594:	2201      	movs	r2, #1
 8000596:	701a      	strb	r2, [r3, #0]
        g_sent_tx_stop_after_low = 1U;
 8000598:	4b61      	ldr	r3, [pc, #388]	@ (8000720 <SentApp_OnTim14UpdateIrq+0x1d0>)
 800059a:	2201      	movs	r2, #1
 800059c:	701a      	strb	r2, [r3, #0]
        g_sent_tx_need_terminal_edge = 0U;
 800059e:	4b5e      	ldr	r3, [pc, #376]	@ (8000718 <SentApp_OnTim14UpdateIrq+0x1c8>)
 80005a0:	2200      	movs	r2, #0
 80005a2:	701a      	strb	r2, [r3, #0]
        return;
 80005a4:	e0b2      	b.n	800070c <SentApp_OnTim14UpdateIrq+0x1bc>
      }

      SENT_TX_GPIO_Port->BSRR = SENT_TX_Pin;
 80005a6:	2390      	movs	r3, #144	@ 0x90
 80005a8:	05db      	lsls	r3, r3, #23
 80005aa:	2210      	movs	r2, #16
 80005ac:	619a      	str	r2, [r3, #24]
      g_sent_tx_in_low = 0U;
 80005ae:	4b59      	ldr	r3, [pc, #356]	@ (8000714 <SentApp_OnTim14UpdateIrq+0x1c4>)
 80005b0:	2200      	movs	r2, #0
 80005b2:	701a      	strb	r2, [r3, #0]
      g_sent_tx_stop_after_low = 0U;
 80005b4:	4b5a      	ldr	r3, [pc, #360]	@ (8000720 <SentApp_OnTim14UpdateIrq+0x1d0>)
 80005b6:	2200      	movs	r2, #0
 80005b8:	701a      	strb	r2, [r3, #0]
      g_sent_tx_first_interval_high_comp = 0U;
 80005ba:	4b5a      	ldr	r3, [pc, #360]	@ (8000724 <SentApp_OnTim14UpdateIrq+0x1d4>)
 80005bc:	2200      	movs	r2, #0
 80005be:	701a      	strb	r2, [r3, #0]
      HAL_TIM_Base_Stop_IT(&htim14);
 80005c0:	4b56      	ldr	r3, [pc, #344]	@ (800071c <SentApp_OnTim14UpdateIrq+0x1cc>)
 80005c2:	0018      	movs	r0, r3
 80005c4:	f004 fafc 	bl	8004bc0 <HAL_TIM_Base_Stop_IT>
      return;
 80005c8:	e0a0      	b.n	800070c <SentApp_OnTim14UpdateIrq+0x1bc>
    }

    /* Phase 0: falling edge marks start of next SENT interval. */
    SENT_TX_GPIO_Port->BRR = SENT_TX_Pin;
 80005ca:	2390      	movs	r3, #144	@ 0x90
 80005cc:	05db      	lsls	r3, r3, #23
 80005ce:	2210      	movs	r2, #16
 80005d0:	629a      	str	r2, [r3, #40]	@ 0x28
    __HAL_TIM_SET_COUNTER(&htim14, 0U);
 80005d2:	4b52      	ldr	r3, [pc, #328]	@ (800071c <SentApp_OnTim14UpdateIrq+0x1cc>)
 80005d4:	681b      	ldr	r3, [r3, #0]
 80005d6:	2200      	movs	r2, #0
 80005d8:	625a      	str	r2, [r3, #36]	@ 0x24
    uint16_t low_ticks = SENT_TX_LOW_TICKS;
 80005da:	1dbb      	adds	r3, r7, #6
 80005dc:	2205      	movs	r2, #5
 80005de:	801a      	strh	r2, [r3, #0]
    if (g_sent_tx_need_terminal_edge == 0U &&
 80005e0:	4b4d      	ldr	r3, [pc, #308]	@ (8000718 <SentApp_OnTim14UpdateIrq+0x1c8>)
 80005e2:	781b      	ldrb	r3, [r3, #0]
 80005e4:	b2db      	uxtb	r3, r3
 80005e6:	2b00      	cmp	r3, #0
 80005e8:	d108      	bne.n	80005fc <SentApp_OnTim14UpdateIrq+0xac>
 80005ea:	1dbb      	adds	r3, r7, #6
 80005ec:	881b      	ldrh	r3, [r3, #0]
 80005ee:	2b01      	cmp	r3, #1
 80005f0:	d904      	bls.n	80005fc <SentApp_OnTim14UpdateIrq+0xac>
        low_ticks > SENT_TX_FIRST_LOW_COMP_TICKS)
    {
      low_ticks = (uint16_t)(low_ticks - SENT_TX_FIRST_LOW_COMP_TICKS);
 80005f2:	1dbb      	adds	r3, r7, #6
 80005f4:	1dba      	adds	r2, r7, #6
 80005f6:	8812      	ldrh	r2, [r2, #0]
 80005f8:	3a01      	subs	r2, #1
 80005fa:	801a      	strh	r2, [r3, #0]
    }
    __HAL_TIM_SET_AUTORELOAD(&htim14, low_ticks - 1U);
 80005fc:	1dbb      	adds	r3, r7, #6
 80005fe:	881a      	ldrh	r2, [r3, #0]
 8000600:	4b46      	ldr	r3, [pc, #280]	@ (800071c <SentApp_OnTim14UpdateIrq+0x1cc>)
 8000602:	681b      	ldr	r3, [r3, #0]
 8000604:	3a01      	subs	r2, #1
 8000606:	62da      	str	r2, [r3, #44]	@ 0x2c
 8000608:	1dbb      	adds	r3, r7, #6
 800060a:	881b      	ldrh	r3, [r3, #0]
 800060c:	1e5a      	subs	r2, r3, #1
 800060e:	4b43      	ldr	r3, [pc, #268]	@ (800071c <SentApp_OnTim14UpdateIrq+0x1cc>)
 8000610:	60da      	str	r2, [r3, #12]
    g_sent_tx_in_low = 1;
 8000612:	4b40      	ldr	r3, [pc, #256]	@ (8000714 <SentApp_OnTim14UpdateIrq+0x1c4>)
 8000614:	2201      	movs	r2, #1
 8000616:	701a      	strb	r2, [r3, #0]
    g_sent_tx_stop_after_low = 0U;
 8000618:	4b41      	ldr	r3, [pc, #260]	@ (8000720 <SentApp_OnTim14UpdateIrq+0x1d0>)
 800061a:	2200      	movs	r2, #0
 800061c:	701a      	strb	r2, [r3, #0]

    uint16_t next_ticks;
    if (SentApp_PopNextTxIntervalTicks(&next_ticks))
 800061e:	1cbb      	adds	r3, r7, #2
 8000620:	0018      	movs	r0, r3
 8000622:	f000 fb8b 	bl	8000d3c <SentApp_PopNextTxIntervalTicks>
 8000626:	1e03      	subs	r3, r0, #0
 8000628:	d011      	beq.n	800064e <SentApp_OnTim14UpdateIrq+0xfe>
    {
      g_sent_tx_interval = next_ticks;
 800062a:	1cbb      	adds	r3, r7, #2
 800062c:	881a      	ldrh	r2, [r3, #0]
 800062e:	4b3e      	ldr	r3, [pc, #248]	@ (8000728 <SentApp_OnTim14UpdateIrq+0x1d8>)
 8000630:	801a      	strh	r2, [r3, #0]
      g_sent_tx_first_interval_high_comp = (g_sent_tx_need_terminal_edge == 0U) ? 1U : 0U;
 8000632:	4b39      	ldr	r3, [pc, #228]	@ (8000718 <SentApp_OnTim14UpdateIrq+0x1c8>)
 8000634:	781b      	ldrb	r3, [r3, #0]
 8000636:	b2db      	uxtb	r3, r3
 8000638:	2b00      	cmp	r3, #0
 800063a:	d101      	bne.n	8000640 <SentApp_OnTim14UpdateIrq+0xf0>
 800063c:	2201      	movs	r2, #1
 800063e:	e000      	b.n	8000642 <SentApp_OnTim14UpdateIrq+0xf2>
 8000640:	2200      	movs	r2, #0
 8000642:	4b38      	ldr	r3, [pc, #224]	@ (8000724 <SentApp_OnTim14UpdateIrq+0x1d4>)
 8000644:	701a      	strb	r2, [r3, #0]
      g_sent_tx_need_terminal_edge = 1U;
 8000646:	4b34      	ldr	r3, [pc, #208]	@ (8000718 <SentApp_OnTim14UpdateIrq+0x1c8>)
 8000648:	2201      	movs	r2, #1
 800064a:	701a      	strb	r2, [r3, #0]
 800064c:	e05e      	b.n	800070c <SentApp_OnTim14UpdateIrq+0x1bc>
    }
    else
    {
      SENT_TX_GPIO_Port->BSRR = SENT_TX_Pin;
 800064e:	2390      	movs	r3, #144	@ 0x90
 8000650:	05db      	lsls	r3, r3, #23
 8000652:	2210      	movs	r2, #16
 8000654:	619a      	str	r2, [r3, #24]
      g_sent_tx_in_low = 0;
 8000656:	4b2f      	ldr	r3, [pc, #188]	@ (8000714 <SentApp_OnTim14UpdateIrq+0x1c4>)
 8000658:	2200      	movs	r2, #0
 800065a:	701a      	strb	r2, [r3, #0]
      g_sent_tx_stop_after_low = 0U;
 800065c:	4b30      	ldr	r3, [pc, #192]	@ (8000720 <SentApp_OnTim14UpdateIrq+0x1d0>)
 800065e:	2200      	movs	r2, #0
 8000660:	701a      	strb	r2, [r3, #0]
      g_sent_tx_need_terminal_edge = 0U;
 8000662:	4b2d      	ldr	r3, [pc, #180]	@ (8000718 <SentApp_OnTim14UpdateIrq+0x1c8>)
 8000664:	2200      	movs	r2, #0
 8000666:	701a      	strb	r2, [r3, #0]
      g_sent_tx_first_interval_high_comp = 0U;
 8000668:	4b2e      	ldr	r3, [pc, #184]	@ (8000724 <SentApp_OnTim14UpdateIrq+0x1d4>)
 800066a:	2200      	movs	r2, #0
 800066c:	701a      	strb	r2, [r3, #0]
      HAL_TIM_Base_Stop_IT(&htim14);
 800066e:	4b2b      	ldr	r3, [pc, #172]	@ (800071c <SentApp_OnTim14UpdateIrq+0x1cc>)
 8000670:	0018      	movs	r0, r3
 8000672:	f004 faa5 	bl	8004bc0 <HAL_TIM_Base_Stop_IT>
 8000676:	e049      	b.n	800070c <SentApp_OnTim14UpdateIrq+0x1bc>
    }
  }
  else
  {
    /* Phase 1: end of low pulse. */
    SENT_TX_GPIO_Port->BSRR = SENT_TX_Pin;
 8000678:	2390      	movs	r3, #144	@ 0x90
 800067a:	05db      	lsls	r3, r3, #23
 800067c:	2210      	movs	r2, #16
 800067e:	619a      	str	r2, [r3, #24]
    if (g_sent_tx_stop_after_low)
 8000680:	4b27      	ldr	r3, [pc, #156]	@ (8000720 <SentApp_OnTim14UpdateIrq+0x1d0>)
 8000682:	781b      	ldrb	r3, [r3, #0]
 8000684:	b2db      	uxtb	r3, r3
 8000686:	2b00      	cmp	r3, #0
 8000688:	d00a      	beq.n	80006a0 <SentApp_OnTim14UpdateIrq+0x150>
    {
      g_sent_tx_in_low = 0U;
 800068a:	4b22      	ldr	r3, [pc, #136]	@ (8000714 <SentApp_OnTim14UpdateIrq+0x1c4>)
 800068c:	2200      	movs	r2, #0
 800068e:	701a      	strb	r2, [r3, #0]
      g_sent_tx_stop_after_low = 0U;
 8000690:	4b23      	ldr	r3, [pc, #140]	@ (8000720 <SentApp_OnTim14UpdateIrq+0x1d0>)
 8000692:	2200      	movs	r2, #0
 8000694:	701a      	strb	r2, [r3, #0]
      HAL_TIM_Base_Stop_IT(&htim14);
 8000696:	4b21      	ldr	r3, [pc, #132]	@ (800071c <SentApp_OnTim14UpdateIrq+0x1cc>)
 8000698:	0018      	movs	r0, r3
 800069a:	f004 fa91 	bl	8004bc0 <HAL_TIM_Base_Stop_IT>
 800069e:	e035      	b.n	800070c <SentApp_OnTim14UpdateIrq+0x1bc>
    }
    else
    {
      uint16_t high_ticks = (uint16_t)(g_sent_tx_interval - SENT_TX_LOW_TICKS);
 80006a0:	4b21      	ldr	r3, [pc, #132]	@ (8000728 <SentApp_OnTim14UpdateIrq+0x1d8>)
 80006a2:	881b      	ldrh	r3, [r3, #0]
 80006a4:	b29a      	uxth	r2, r3
 80006a6:	1d3b      	adds	r3, r7, #4
 80006a8:	3a05      	subs	r2, #5
 80006aa:	801a      	strh	r2, [r3, #0]
      if (high_ticks > SENT_TX_FALL_EDGE_ISR_LATENCY_TICKS)
 80006ac:	1d3b      	adds	r3, r7, #4
 80006ae:	881b      	ldrh	r3, [r3, #0]
 80006b0:	2b02      	cmp	r3, #2
 80006b2:	d905      	bls.n	80006c0 <SentApp_OnTim14UpdateIrq+0x170>
      {
        high_ticks = (uint16_t)(high_ticks - SENT_TX_FALL_EDGE_ISR_LATENCY_TICKS);
 80006b4:	1d3b      	adds	r3, r7, #4
 80006b6:	1d3a      	adds	r2, r7, #4
 80006b8:	8812      	ldrh	r2, [r2, #0]
 80006ba:	3a02      	subs	r2, #2
 80006bc:	801a      	strh	r2, [r3, #0]
 80006be:	e002      	b.n	80006c6 <SentApp_OnTim14UpdateIrq+0x176>
      }
      else
      {
        high_ticks = 1U;
 80006c0:	1d3b      	adds	r3, r7, #4
 80006c2:	2201      	movs	r2, #1
 80006c4:	801a      	strh	r2, [r3, #0]
      }
      if (g_sent_tx_first_interval_high_comp != 0U)
 80006c6:	4b17      	ldr	r3, [pc, #92]	@ (8000724 <SentApp_OnTim14UpdateIrq+0x1d4>)
 80006c8:	781b      	ldrb	r3, [r3, #0]
 80006ca:	b2db      	uxtb	r3, r3
 80006cc:	2b00      	cmp	r3, #0
 80006ce:	d00b      	beq.n	80006e8 <SentApp_OnTim14UpdateIrq+0x198>
      {
        if (high_ticks > 1U)
 80006d0:	1d3b      	adds	r3, r7, #4
 80006d2:	881b      	ldrh	r3, [r3, #0]
 80006d4:	2b01      	cmp	r3, #1
 80006d6:	d904      	bls.n	80006e2 <SentApp_OnTim14UpdateIrq+0x192>
        {
          high_ticks = (uint16_t)(high_ticks - 1U);
 80006d8:	1d3b      	adds	r3, r7, #4
 80006da:	1d3a      	adds	r2, r7, #4
 80006dc:	8812      	ldrh	r2, [r2, #0]
 80006de:	3a01      	subs	r2, #1
 80006e0:	801a      	strh	r2, [r3, #0]
        }
        g_sent_tx_first_interval_high_comp = 0U;
 80006e2:	4b10      	ldr	r3, [pc, #64]	@ (8000724 <SentApp_OnTim14UpdateIrq+0x1d4>)
 80006e4:	2200      	movs	r2, #0
 80006e6:	701a      	strb	r2, [r3, #0]
      }

      __HAL_TIM_SET_COUNTER(&htim14, 0U);
 80006e8:	4b0c      	ldr	r3, [pc, #48]	@ (800071c <SentApp_OnTim14UpdateIrq+0x1cc>)
 80006ea:	681b      	ldr	r3, [r3, #0]
 80006ec:	2200      	movs	r2, #0
 80006ee:	625a      	str	r2, [r3, #36]	@ 0x24
      __HAL_TIM_SET_AUTORELOAD(&htim14, high_ticks - 1U);
 80006f0:	1d3b      	adds	r3, r7, #4
 80006f2:	881a      	ldrh	r2, [r3, #0]
 80006f4:	4b09      	ldr	r3, [pc, #36]	@ (800071c <SentApp_OnTim14UpdateIrq+0x1cc>)
 80006f6:	681b      	ldr	r3, [r3, #0]
 80006f8:	3a01      	subs	r2, #1
 80006fa:	62da      	str	r2, [r3, #44]	@ 0x2c
 80006fc:	1d3b      	adds	r3, r7, #4
 80006fe:	881b      	ldrh	r3, [r3, #0]
 8000700:	1e5a      	subs	r2, r3, #1
 8000702:	4b06      	ldr	r3, [pc, #24]	@ (800071c <SentApp_OnTim14UpdateIrq+0x1cc>)
 8000704:	60da      	str	r2, [r3, #12]
      g_sent_tx_in_low = 0;
 8000706:	4b03      	ldr	r3, [pc, #12]	@ (8000714 <SentApp_OnTim14UpdateIrq+0x1c4>)
 8000708:	2200      	movs	r2, #0
 800070a:	701a      	strb	r2, [r3, #0]
    }
  }
}
 800070c:	46bd      	mov	sp, r7
 800070e:	b002      	add	sp, #8
 8000710:	bd80      	pop	{r7, pc}
 8000712:	46c0      	nop			@ (mov r8, r8)
 8000714:	20000228 	.word	0x20000228
 8000718:	2000022a 	.word	0x2000022a
 800071c:	200001e0 	.word	0x200001e0
 8000720:	20000229 	.word	0x20000229
 8000724:	2000022b 	.word	0x2000022b
 8000728:	2000022c 	.word	0x2000022c

0800072c <HAL_TIM_PeriodElapsedCallback>:

void HAL_TIM_PeriodElapsedCallback(TIM_HandleTypeDef *htim)
{
 800072c:	b580      	push	{r7, lr}
 800072e:	b082      	sub	sp, #8
 8000730:	af00      	add	r7, sp, #0
 8000732:	6078      	str	r0, [r7, #4]
  if (htim->Instance == TIM2)
 8000734:	687b      	ldr	r3, [r7, #4]
 8000736:	681a      	ldr	r2, [r3, #0]
 8000738:	2380      	movs	r3, #128	@ 0x80
 800073a:	05db      	lsls	r3, r3, #23
 800073c:	429a      	cmp	r2, r3
 800073e:	d102      	bne.n	8000746 <HAL_TIM_PeriodElapsedCallback+0x1a>
  {
    SentApp_OnSentRxTimerOverflow();
 8000740:	f000 faf0 	bl	8000d24 <SentApp_OnSentRxTimerOverflow>
  }
  else if (htim->Instance == TIM14)
  {
    SentApp_OnTim14UpdateIrq();
  }
}
 8000744:	e006      	b.n	8000754 <HAL_TIM_PeriodElapsedCallback+0x28>
  else if (htim->Instance == TIM14)
 8000746:	687b      	ldr	r3, [r7, #4]
 8000748:	681b      	ldr	r3, [r3, #0]
 800074a:	4a04      	ldr	r2, [pc, #16]	@ (800075c <HAL_TIM_PeriodElapsedCallback+0x30>)
 800074c:	4293      	cmp	r3, r2
 800074e:	d101      	bne.n	8000754 <HAL_TIM_PeriodElapsedCallback+0x28>
    SentApp_OnTim14UpdateIrq();
 8000750:	f7ff fefe 	bl	8000550 <SentApp_OnTim14UpdateIrq>
}
 8000754:	46c0      	nop			@ (mov r8, r8)
 8000756:	46bd      	mov	sp, r7
 8000758:	b002      	add	sp, #8
 800075a:	bd80      	pop	{r7, pc}
 800075c:	40002000 	.word	0x40002000

08000760 <Error_Handler>:
/**
  * @brief  This function is executed in case of error occurrence.
  * @retval None
  */
void Error_Handler(void)
{
 8000760:	b580      	push	{r7, lr}
 8000762:	af00      	add	r7, sp, #0
  \details Disables IRQ interrupts by setting the I-bit in the CPSR.
           Can only be executed in Privileged modes.
 */
__STATIC_FORCEINLINE void __disable_irq(void)
{
  __ASM volatile ("cpsid i" : : : "memory");
 8000764:	b672      	cpsid	i
}
 8000766:	46c0      	nop			@ (mov r8, r8)
  /* USER CODE BEGIN Error_Handler_Debug */
  /* User can add his own implementation to report the HAL error return state */
  __disable_irq();
  while (1)
 8000768:	46c0      	nop			@ (mov r8, r8)
 800076a:	e7fd      	b.n	8000768 <Error_Handler+0x8>

0800076c <next_index>:

#define SENT_APP_USB_RX_RING_SIZE 128U
#define SENT_APP_USB_TX_RING_SIZE 128U
#define SENT_APP_SLCAN_LINE_MAX 64U

static uint16_t next_index(uint16_t index, uint16_t size) {
 800076c:	b580      	push	{r7, lr}
 800076e:	b082      	sub	sp, #8
 8000770:	af00      	add	r7, sp, #0
 8000772:	0002      	movs	r2, r0
 8000774:	1dbb      	adds	r3, r7, #6
 8000776:	801a      	strh	r2, [r3, #0]
 8000778:	1d3b      	adds	r3, r7, #4
 800077a:	1c0a      	adds	r2, r1, #0
 800077c:	801a      	strh	r2, [r3, #0]
    return (uint16_t)((index + 1U) % size);
 800077e:	1dbb      	adds	r3, r7, #6
 8000780:	881b      	ldrh	r3, [r3, #0]
 8000782:	1c5a      	adds	r2, r3, #1
 8000784:	1d3b      	adds	r3, r7, #4
 8000786:	881b      	ldrh	r3, [r3, #0]
 8000788:	0019      	movs	r1, r3
 800078a:	0010      	movs	r0, r2
 800078c:	f7ff fd68 	bl	8000260 <__aeabi_uidivmod>
 8000790:	000b      	movs	r3, r1
 8000792:	b29b      	uxth	r3, r3
}
 8000794:	0018      	movs	r0, r3
 8000796:	46bd      	mov	sp, r7
 8000798:	b002      	add	sp, #8
 800079a:	bd80      	pop	{r7, pc}

0800079c <rx_ring_push>:
static uint16_t g_tx_tail = 0U;

static char g_line_buffer[SENT_APP_SLCAN_LINE_MAX];
static size_t g_line_len = 0U;

static bool rx_ring_push(uint8_t b) {
 800079c:	b5b0      	push	{r4, r5, r7, lr}
 800079e:	b084      	sub	sp, #16
 80007a0:	af00      	add	r7, sp, #0
 80007a2:	0002      	movs	r2, r0
 80007a4:	1dfb      	adds	r3, r7, #7
 80007a6:	701a      	strb	r2, [r3, #0]
    uint16_t head = g_rx_head;
 80007a8:	210e      	movs	r1, #14
 80007aa:	187b      	adds	r3, r7, r1
 80007ac:	4a13      	ldr	r2, [pc, #76]	@ (80007fc <rx_ring_push+0x60>)
 80007ae:	8812      	ldrh	r2, [r2, #0]
 80007b0:	801a      	strh	r2, [r3, #0]
    uint16_t next = next_index(head, SENT_APP_USB_RX_RING_SIZE);
 80007b2:	250c      	movs	r5, #12
 80007b4:	197c      	adds	r4, r7, r5
 80007b6:	187b      	adds	r3, r7, r1
 80007b8:	881b      	ldrh	r3, [r3, #0]
 80007ba:	2180      	movs	r1, #128	@ 0x80
 80007bc:	0018      	movs	r0, r3
 80007be:	f7ff ffd5 	bl	800076c <next_index>
 80007c2:	0003      	movs	r3, r0
 80007c4:	8023      	strh	r3, [r4, #0]
    if (next == g_rx_tail) {
 80007c6:	4b0e      	ldr	r3, [pc, #56]	@ (8000800 <rx_ring_push+0x64>)
 80007c8:	881b      	ldrh	r3, [r3, #0]
 80007ca:	b29b      	uxth	r3, r3
 80007cc:	197a      	adds	r2, r7, r5
 80007ce:	8812      	ldrh	r2, [r2, #0]
 80007d0:	429a      	cmp	r2, r3
 80007d2:	d101      	bne.n	80007d8 <rx_ring_push+0x3c>
        return false;
 80007d4:	2300      	movs	r3, #0
 80007d6:	e00c      	b.n	80007f2 <rx_ring_push+0x56>
    }
    g_rx_ring[head] = b;
 80007d8:	230e      	movs	r3, #14
 80007da:	18fb      	adds	r3, r7, r3
 80007dc:	881b      	ldrh	r3, [r3, #0]
 80007de:	4a09      	ldr	r2, [pc, #36]	@ (8000804 <rx_ring_push+0x68>)
 80007e0:	1df9      	adds	r1, r7, #7
 80007e2:	7809      	ldrb	r1, [r1, #0]
 80007e4:	54d1      	strb	r1, [r2, r3]
    g_rx_head = next;
 80007e6:	4b05      	ldr	r3, [pc, #20]	@ (80007fc <rx_ring_push+0x60>)
 80007e8:	220c      	movs	r2, #12
 80007ea:	18ba      	adds	r2, r7, r2
 80007ec:	8812      	ldrh	r2, [r2, #0]
 80007ee:	801a      	strh	r2, [r3, #0]
    return true;
 80007f0:	2301      	movs	r3, #1
}
 80007f2:	0018      	movs	r0, r3
 80007f4:	46bd      	mov	sp, r7
 80007f6:	b004      	add	sp, #16
 80007f8:	bdb0      	pop	{r4, r5, r7, pc}
 80007fa:	46c0      	nop			@ (mov r8, r8)
 80007fc:	2000047c 	.word	0x2000047c
 8000800:	2000047e 	.word	0x2000047e
 8000804:	200003fc 	.word	0x200003fc

08000808 <rx_ring_pop>:

static bool rx_ring_pop(uint8_t* out) {
 8000808:	b580      	push	{r7, lr}
 800080a:	b084      	sub	sp, #16
 800080c:	af00      	add	r7, sp, #0
 800080e:	6078      	str	r0, [r7, #4]
    SENT_ASSERT(out != NULL);
 8000810:	687b      	ldr	r3, [r7, #4]
 8000812:	2b00      	cmp	r3, #0
 8000814:	d102      	bne.n	800081c <rx_ring_pop+0x14>
 8000816:	be00      	bkpt	0x0000
 8000818:	46c0      	nop			@ (mov r8, r8)
 800081a:	e7fd      	b.n	8000818 <rx_ring_pop+0x10>

    uint16_t tail = g_rx_tail;
 800081c:	210e      	movs	r1, #14
 800081e:	187b      	adds	r3, r7, r1
 8000820:	4a10      	ldr	r2, [pc, #64]	@ (8000864 <rx_ring_pop+0x5c>)
 8000822:	8812      	ldrh	r2, [r2, #0]
 8000824:	801a      	strh	r2, [r3, #0]
    if (tail == g_rx_head) {
 8000826:	4b10      	ldr	r3, [pc, #64]	@ (8000868 <rx_ring_pop+0x60>)
 8000828:	881b      	ldrh	r3, [r3, #0]
 800082a:	b29b      	uxth	r3, r3
 800082c:	187a      	adds	r2, r7, r1
 800082e:	8812      	ldrh	r2, [r2, #0]
 8000830:	429a      	cmp	r2, r3
 8000832:	d101      	bne.n	8000838 <rx_ring_pop+0x30>
        return false;
 8000834:	2300      	movs	r3, #0
 8000836:	e011      	b.n	800085c <rx_ring_pop+0x54>
    }

    *out = g_rx_ring[tail];
 8000838:	210e      	movs	r1, #14
 800083a:	187b      	adds	r3, r7, r1
 800083c:	881b      	ldrh	r3, [r3, #0]
 800083e:	4a0b      	ldr	r2, [pc, #44]	@ (800086c <rx_ring_pop+0x64>)
 8000840:	5cd2      	ldrb	r2, [r2, r3]
 8000842:	687b      	ldr	r3, [r7, #4]
 8000844:	701a      	strb	r2, [r3, #0]
    g_rx_tail = next_index(tail, SENT_APP_USB_RX_RING_SIZE);
 8000846:	187b      	adds	r3, r7, r1
 8000848:	881b      	ldrh	r3, [r3, #0]
 800084a:	2180      	movs	r1, #128	@ 0x80
 800084c:	0018      	movs	r0, r3
 800084e:	f7ff ff8d 	bl	800076c <next_index>
 8000852:	0003      	movs	r3, r0
 8000854:	001a      	movs	r2, r3
 8000856:	4b03      	ldr	r3, [pc, #12]	@ (8000864 <rx_ring_pop+0x5c>)
 8000858:	801a      	strh	r2, [r3, #0]
    return true;
 800085a:	2301      	movs	r3, #1
}
 800085c:	0018      	movs	r0, r3
 800085e:	46bd      	mov	sp, r7
 8000860:	b004      	add	sp, #16
 8000862:	bd80      	pop	{r7, pc}
 8000864:	2000047e 	.word	0x2000047e
 8000868:	2000047c 	.word	0x2000047c
 800086c:	200003fc 	.word	0x200003fc

08000870 <tx_ring_push>:

static bool tx_ring_push(uint8_t b) {
 8000870:	b5b0      	push	{r4, r5, r7, lr}
 8000872:	b084      	sub	sp, #16
 8000874:	af00      	add	r7, sp, #0
 8000876:	0002      	movs	r2, r0
 8000878:	1dfb      	adds	r3, r7, #7
 800087a:	701a      	strb	r2, [r3, #0]
    uint16_t next = next_index(g_tx_head, SENT_APP_USB_TX_RING_SIZE);
 800087c:	4b11      	ldr	r3, [pc, #68]	@ (80008c4 <tx_ring_push+0x54>)
 800087e:	881b      	ldrh	r3, [r3, #0]
 8000880:	250e      	movs	r5, #14
 8000882:	197c      	adds	r4, r7, r5
 8000884:	2180      	movs	r1, #128	@ 0x80
 8000886:	0018      	movs	r0, r3
 8000888:	f7ff ff70 	bl	800076c <next_index>
 800088c:	0003      	movs	r3, r0
 800088e:	8023      	strh	r3, [r4, #0]
    if (next == g_tx_tail) {
 8000890:	4b0d      	ldr	r3, [pc, #52]	@ (80008c8 <tx_ring_push+0x58>)
 8000892:	881b      	ldrh	r3, [r3, #0]
 8000894:	197a      	adds	r2, r7, r5
 8000896:	8812      	ldrh	r2, [r2, #0]
 8000898:	429a      	cmp	r2, r3
 800089a:	d101      	bne.n	80008a0 <tx_ring_push+0x30>
        return false;
 800089c:	2300      	movs	r3, #0
 800089e:	e00c      	b.n	80008ba <tx_ring_push+0x4a>
    }
    g_tx_ring[g_tx_head] = b;
 80008a0:	4b08      	ldr	r3, [pc, #32]	@ (80008c4 <tx_ring_push+0x54>)
 80008a2:	881b      	ldrh	r3, [r3, #0]
 80008a4:	0019      	movs	r1, r3
 80008a6:	4b09      	ldr	r3, [pc, #36]	@ (80008cc <tx_ring_push+0x5c>)
 80008a8:	1dfa      	adds	r2, r7, #7
 80008aa:	7812      	ldrb	r2, [r2, #0]
 80008ac:	545a      	strb	r2, [r3, r1]
    g_tx_head = next;
 80008ae:	4b05      	ldr	r3, [pc, #20]	@ (80008c4 <tx_ring_push+0x54>)
 80008b0:	220e      	movs	r2, #14
 80008b2:	18ba      	adds	r2, r7, r2
 80008b4:	8812      	ldrh	r2, [r2, #0]
 80008b6:	801a      	strh	r2, [r3, #0]
    return true;
 80008b8:	2301      	movs	r3, #1
}
 80008ba:	0018      	movs	r0, r3
 80008bc:	46bd      	mov	sp, r7
 80008be:	b004      	add	sp, #16
 80008c0:	bdb0      	pop	{r4, r5, r7, pc}
 80008c2:	46c0      	nop			@ (mov r8, r8)
 80008c4:	20000500 	.word	0x20000500
 80008c8:	20000502 	.word	0x20000502
 80008cc:	20000480 	.word	0x20000480

080008d0 <tx_enqueue_bytes>:

static void tx_enqueue_bytes(const uint8_t* data, size_t len) {
 80008d0:	b580      	push	{r7, lr}
 80008d2:	b084      	sub	sp, #16
 80008d4:	af00      	add	r7, sp, #0
 80008d6:	6078      	str	r0, [r7, #4]
 80008d8:	6039      	str	r1, [r7, #0]
    SENT_ASSERT(data != NULL);
 80008da:	687b      	ldr	r3, [r7, #4]
 80008dc:	2b00      	cmp	r3, #0
 80008de:	d102      	bne.n	80008e6 <tx_enqueue_bytes+0x16>
 80008e0:	be00      	bkpt	0x0000
 80008e2:	46c0      	nop			@ (mov r8, r8)
 80008e4:	e7fd      	b.n	80008e2 <tx_enqueue_bytes+0x12>

    for (size_t i = 0U; i < len; ++i) {
 80008e6:	2300      	movs	r3, #0
 80008e8:	60fb      	str	r3, [r7, #12]
 80008ea:	e010      	b.n	800090e <tx_enqueue_bytes+0x3e>
        if (!tx_ring_push(data[i])) {
 80008ec:	687a      	ldr	r2, [r7, #4]
 80008ee:	68fb      	ldr	r3, [r7, #12]
 80008f0:	18d3      	adds	r3, r2, r3
 80008f2:	781b      	ldrb	r3, [r3, #0]
 80008f4:	0018      	movs	r0, r3
 80008f6:	f7ff ffbb 	bl	8000870 <tx_ring_push>
 80008fa:	0003      	movs	r3, r0
 80008fc:	001a      	movs	r2, r3
 80008fe:	2301      	movs	r3, #1
 8000900:	4053      	eors	r3, r2
 8000902:	b2db      	uxtb	r3, r3
 8000904:	2b00      	cmp	r3, #0
 8000906:	d107      	bne.n	8000918 <tx_enqueue_bytes+0x48>
    for (size_t i = 0U; i < len; ++i) {
 8000908:	68fb      	ldr	r3, [r7, #12]
 800090a:	3301      	adds	r3, #1
 800090c:	60fb      	str	r3, [r7, #12]
 800090e:	68fa      	ldr	r2, [r7, #12]
 8000910:	683b      	ldr	r3, [r7, #0]
 8000912:	429a      	cmp	r2, r3
 8000914:	d3ea      	bcc.n	80008ec <tx_enqueue_bytes+0x1c>
            break;
        }
    }
}
 8000916:	e000      	b.n	800091a <tx_enqueue_bytes+0x4a>
            break;
 8000918:	46c0      	nop			@ (mov r8, r8)
}
 800091a:	46c0      	nop			@ (mov r8, r8)
 800091c:	46bd      	mov	sp, r7
 800091e:	b004      	add	sp, #16
 8000920:	bd80      	pop	{r7, pc}

08000922 <tx_enqueue_cstr>:

static void tx_enqueue_cstr(const char* text) {
 8000922:	b580      	push	{r7, lr}
 8000924:	b082      	sub	sp, #8
 8000926:	af00      	add	r7, sp, #0
 8000928:	6078      	str	r0, [r7, #4]
    SENT_ASSERT(text != NULL);
 800092a:	687b      	ldr	r3, [r7, #4]
 800092c:	2b00      	cmp	r3, #0
 800092e:	d102      	bne.n	8000936 <tx_enqueue_cstr+0x14>
 8000930:	be00      	bkpt	0x0000
 8000932:	46c0      	nop			@ (mov r8, r8)
 8000934:	e7fd      	b.n	8000932 <tx_enqueue_cstr+0x10>
    tx_enqueue_bytes((const uint8_t*)text, strlen(text));
 8000936:	687b      	ldr	r3, [r7, #4]
 8000938:	0018      	movs	r0, r3
 800093a:	f7ff fbe5 	bl	8000108 <strlen>
 800093e:	0002      	movs	r2, r0
 8000940:	687b      	ldr	r3, [r7, #4]
 8000942:	0011      	movs	r1, r2
 8000944:	0018      	movs	r0, r3
 8000946:	f7ff ffc3 	bl	80008d0 <tx_enqueue_bytes>
}
 800094a:	46c0      	nop			@ (mov r8, r8)
 800094c:	46bd      	mov	sp, r7
 800094e:	b002      	add	sp, #8
 8000950:	bd80      	pop	{r7, pc}
	...

08000954 <kick_tx_timer>:

extern TIM_HandleTypeDef htim14;

static void kick_tx_timer(void) {
 8000954:	b580      	push	{r7, lr}
 8000956:	af00      	add	r7, sp, #0
    if (sent_stm32f042_tx_pending_frames(&g_tx_hal) > 0U &&
 8000958:	4b13      	ldr	r3, [pc, #76]	@ (80009a8 <kick_tx_timer+0x54>)
 800095a:	0018      	movs	r0, r3
 800095c:	f001 fda4 	bl	80024a8 <sent_stm32f042_tx_pending_frames>
 8000960:	1e03      	subs	r3, r0, #0
 8000962:	d01d      	beq.n	80009a0 <kick_tx_timer+0x4c>
        !(htim14.Instance->CR1 & TIM_CR1_CEN)) {
 8000964:	4b11      	ldr	r3, [pc, #68]	@ (80009ac <kick_tx_timer+0x58>)
 8000966:	681b      	ldr	r3, [r3, #0]
 8000968:	681b      	ldr	r3, [r3, #0]
 800096a:	2201      	movs	r2, #1
 800096c:	4013      	ands	r3, r2
    if (sent_stm32f042_tx_pending_frames(&g_tx_hal) > 0U &&
 800096e:	d117      	bne.n	80009a0 <kick_tx_timer+0x4c>
        SENT_TX_GPIO_Port->BSRR = SENT_TX_Pin;        /* ensure idle HIGH */
 8000970:	2390      	movs	r3, #144	@ 0x90
 8000972:	05db      	lsls	r3, r3, #23
 8000974:	2210      	movs	r2, #16
 8000976:	619a      	str	r2, [r3, #24]
        __HAL_TIM_SET_COUNTER(&htim14, 0);
 8000978:	4b0c      	ldr	r3, [pc, #48]	@ (80009ac <kick_tx_timer+0x58>)
 800097a:	681b      	ldr	r3, [r3, #0]
 800097c:	2200      	movs	r2, #0
 800097e:	625a      	str	r2, [r3, #36]	@ 0x24
        __HAL_TIM_SET_AUTORELOAD(&htim14, 1);         /* fire ISR ASAP */
 8000980:	4b0a      	ldr	r3, [pc, #40]	@ (80009ac <kick_tx_timer+0x58>)
 8000982:	681b      	ldr	r3, [r3, #0]
 8000984:	2201      	movs	r2, #1
 8000986:	62da      	str	r2, [r3, #44]	@ 0x2c
 8000988:	4b08      	ldr	r3, [pc, #32]	@ (80009ac <kick_tx_timer+0x58>)
 800098a:	2201      	movs	r2, #1
 800098c:	60da      	str	r2, [r3, #12]
        __HAL_TIM_CLEAR_FLAG(&htim14, TIM_FLAG_UPDATE); /* clear stale UIF */
 800098e:	4b07      	ldr	r3, [pc, #28]	@ (80009ac <kick_tx_timer+0x58>)
 8000990:	681b      	ldr	r3, [r3, #0]
 8000992:	2202      	movs	r2, #2
 8000994:	4252      	negs	r2, r2
 8000996:	611a      	str	r2, [r3, #16]
        HAL_TIM_Base_Start_IT(&htim14);
 8000998:	4b04      	ldr	r3, [pc, #16]	@ (80009ac <kick_tx_timer+0x58>)
 800099a:	0018      	movs	r0, r3
 800099c:	f004 f8e6 	bl	8004b6c <HAL_TIM_Base_Start_IT>
    }
}
 80009a0:	46c0      	nop			@ (mov r8, r8)
 80009a2:	46bd      	mov	sp, r7
 80009a4:	bd80      	pop	{r7, pc}
 80009a6:	46c0      	nop			@ (mov r8, r8)
 80009a8:	200002fc 	.word	0x200002fc
 80009ac:	200001e0 	.word	0x200001e0

080009b0 <handle_slcan_line>:

static void handle_slcan_line(const char* text) {
 80009b0:	b590      	push	{r4, r7, lr}
 80009b2:	b095      	sub	sp, #84	@ 0x54
 80009b4:	af00      	add	r7, sp, #0
 80009b6:	6078      	str	r0, [r7, #4]
    sent_bridge_slcan_responses_t responses;
    if (!sent_bridge_on_slcan_line(&g_bridge, text, &responses)) {
 80009b8:	2308      	movs	r3, #8
 80009ba:	18fa      	adds	r2, r7, r3
 80009bc:	6879      	ldr	r1, [r7, #4]
 80009be:	4b19      	ldr	r3, [pc, #100]	@ (8000a24 <handle_slcan_line+0x74>)
 80009c0:	0018      	movs	r0, r3
 80009c2:	f000 fdfb 	bl	80015bc <sent_bridge_on_slcan_line>
 80009c6:	0003      	movs	r3, r0
 80009c8:	001a      	movs	r2, r3
 80009ca:	2301      	movs	r3, #1
 80009cc:	4053      	eors	r3, r2
 80009ce:	b2db      	uxtb	r3, r3
 80009d0:	2b00      	cmp	r3, #0
 80009d2:	d123      	bne.n	8000a1c <handle_slcan_line+0x6c>
        return;
    }

    for (uint8_t i = 0U; i < responses.count; ++i) {
 80009d4:	234f      	movs	r3, #79	@ 0x4f
 80009d6:	18fb      	adds	r3, r7, r3
 80009d8:	2200      	movs	r2, #0
 80009da:	701a      	strb	r2, [r3, #0]
 80009dc:	e013      	b.n	8000a06 <handle_slcan_line+0x56>
        tx_enqueue_cstr(responses.lines[i]);
 80009de:	244f      	movs	r4, #79	@ 0x4f
 80009e0:	193b      	adds	r3, r7, r4
 80009e2:	781a      	ldrb	r2, [r3, #0]
 80009e4:	2308      	movs	r3, #8
 80009e6:	18f9      	adds	r1, r7, r3
 80009e8:	0013      	movs	r3, r2
 80009ea:	009b      	lsls	r3, r3, #2
 80009ec:	189b      	adds	r3, r3, r2
 80009ee:	00da      	lsls	r2, r3, #3
 80009f0:	1ad2      	subs	r2, r2, r3
 80009f2:	188b      	adds	r3, r1, r2
 80009f4:	3301      	adds	r3, #1
 80009f6:	0018      	movs	r0, r3
 80009f8:	f7ff ff93 	bl	8000922 <tx_enqueue_cstr>
    for (uint8_t i = 0U; i < responses.count; ++i) {
 80009fc:	193b      	adds	r3, r7, r4
 80009fe:	193a      	adds	r2, r7, r4
 8000a00:	7812      	ldrb	r2, [r2, #0]
 8000a02:	3201      	adds	r2, #1
 8000a04:	701a      	strb	r2, [r3, #0]
 8000a06:	2308      	movs	r3, #8
 8000a08:	18fb      	adds	r3, r7, r3
 8000a0a:	781b      	ldrb	r3, [r3, #0]
 8000a0c:	224f      	movs	r2, #79	@ 0x4f
 8000a0e:	18ba      	adds	r2, r7, r2
 8000a10:	7812      	ldrb	r2, [r2, #0]
 8000a12:	429a      	cmp	r2, r3
 8000a14:	d3e3      	bcc.n	80009de <handle_slcan_line+0x2e>
    }

    kick_tx_timer();
 8000a16:	f7ff ff9d 	bl	8000954 <kick_tx_timer>
 8000a1a:	e000      	b.n	8000a1e <handle_slcan_line+0x6e>
        return;
 8000a1c:	46c0      	nop			@ (mov r8, r8)
}
 8000a1e:	46bd      	mov	sp, r7
 8000a20:	b015      	add	sp, #84	@ 0x54
 8000a22:	bd90      	pop	{r4, r7, pc}
 8000a24:	200003a8 	.word	0x200003a8

08000a28 <process_usb_rx>:

static void process_usb_rx(void) {
 8000a28:	b580      	push	{r7, lr}
 8000a2a:	b082      	sub	sp, #8
 8000a2c:	af00      	add	r7, sp, #0
    uint8_t byte = 0U;
 8000a2e:	1dfb      	adds	r3, r7, #7
 8000a30:	2200      	movs	r2, #0
 8000a32:	701a      	strb	r2, [r3, #0]
    while (rx_ring_pop(&byte)) {
 8000a34:	e02b      	b.n	8000a8e <process_usb_rx+0x66>
        if (byte == '\r' || byte == '\n') {
 8000a36:	1dfb      	adds	r3, r7, #7
 8000a38:	781b      	ldrb	r3, [r3, #0]
 8000a3a:	2b0d      	cmp	r3, #13
 8000a3c:	d003      	beq.n	8000a46 <process_usb_rx+0x1e>
 8000a3e:	1dfb      	adds	r3, r7, #7
 8000a40:	781b      	ldrb	r3, [r3, #0]
 8000a42:	2b0a      	cmp	r3, #10
 8000a44:	d110      	bne.n	8000a68 <process_usb_rx+0x40>
            if (g_line_len > 0U) {
 8000a46:	4b17      	ldr	r3, [pc, #92]	@ (8000aa4 <process_usb_rx+0x7c>)
 8000a48:	681b      	ldr	r3, [r3, #0]
 8000a4a:	2b00      	cmp	r3, #0
 8000a4c:	d01e      	beq.n	8000a8c <process_usb_rx+0x64>
                g_line_buffer[g_line_len] = '\0';
 8000a4e:	4b15      	ldr	r3, [pc, #84]	@ (8000aa4 <process_usb_rx+0x7c>)
 8000a50:	681b      	ldr	r3, [r3, #0]
 8000a52:	4a15      	ldr	r2, [pc, #84]	@ (8000aa8 <process_usb_rx+0x80>)
 8000a54:	2100      	movs	r1, #0
 8000a56:	54d1      	strb	r1, [r2, r3]
                handle_slcan_line(g_line_buffer);
 8000a58:	4b13      	ldr	r3, [pc, #76]	@ (8000aa8 <process_usb_rx+0x80>)
 8000a5a:	0018      	movs	r0, r3
 8000a5c:	f7ff ffa8 	bl	80009b0 <handle_slcan_line>
                g_line_len = 0U;
 8000a60:	4b10      	ldr	r3, [pc, #64]	@ (8000aa4 <process_usb_rx+0x7c>)
 8000a62:	2200      	movs	r2, #0
 8000a64:	601a      	str	r2, [r3, #0]
            }
            continue;
 8000a66:	e011      	b.n	8000a8c <process_usb_rx+0x64>
        }

        if (g_line_len >= (SENT_APP_SLCAN_LINE_MAX - 1U)) {
 8000a68:	4b0e      	ldr	r3, [pc, #56]	@ (8000aa4 <process_usb_rx+0x7c>)
 8000a6a:	681b      	ldr	r3, [r3, #0]
 8000a6c:	2b3e      	cmp	r3, #62	@ 0x3e
 8000a6e:	d903      	bls.n	8000a78 <process_usb_rx+0x50>
            g_line_len = 0U;
 8000a70:	4b0c      	ldr	r3, [pc, #48]	@ (8000aa4 <process_usb_rx+0x7c>)
 8000a72:	2200      	movs	r2, #0
 8000a74:	601a      	str	r2, [r3, #0]
            continue;
 8000a76:	e00a      	b.n	8000a8e <process_usb_rx+0x66>
        }

        g_line_buffer[g_line_len++] = (char)byte;
 8000a78:	4b0a      	ldr	r3, [pc, #40]	@ (8000aa4 <process_usb_rx+0x7c>)
 8000a7a:	681b      	ldr	r3, [r3, #0]
 8000a7c:	1c59      	adds	r1, r3, #1
 8000a7e:	4a09      	ldr	r2, [pc, #36]	@ (8000aa4 <process_usb_rx+0x7c>)
 8000a80:	6011      	str	r1, [r2, #0]
 8000a82:	1dfa      	adds	r2, r7, #7
 8000a84:	7811      	ldrb	r1, [r2, #0]
 8000a86:	4a08      	ldr	r2, [pc, #32]	@ (8000aa8 <process_usb_rx+0x80>)
 8000a88:	54d1      	strb	r1, [r2, r3]
 8000a8a:	e000      	b.n	8000a8e <process_usb_rx+0x66>
            continue;
 8000a8c:	46c0      	nop			@ (mov r8, r8)
    while (rx_ring_pop(&byte)) {
 8000a8e:	1dfb      	adds	r3, r7, #7
 8000a90:	0018      	movs	r0, r3
 8000a92:	f7ff feb9 	bl	8000808 <rx_ring_pop>
 8000a96:	1e03      	subs	r3, r0, #0
 8000a98:	d1cd      	bne.n	8000a36 <process_usb_rx+0xe>
    }
}
 8000a9a:	46c0      	nop			@ (mov r8, r8)
 8000a9c:	46c0      	nop			@ (mov r8, r8)
 8000a9e:	46bd      	mov	sp, r7
 8000aa0:	b002      	add	sp, #8
 8000aa2:	bd80      	pop	{r7, pc}
 8000aa4:	20000544 	.word	0x20000544
 8000aa8:	20000504 	.word	0x20000504

08000aac <process_sent_rx>:

static void process_sent_rx(void) {
 8000aac:	b590      	push	{r4, r7, lr}
 8000aae:	b08f      	sub	sp, #60	@ 0x3c
 8000ab0:	af00      	add	r7, sp, #0
    for (;;) {
        sent_can_frame_t frame;
        if (!sent_bridge_poll_rx_hal(&g_bridge, &frame)) {
 8000ab2:	2424      	movs	r4, #36	@ 0x24
 8000ab4:	193a      	adds	r2, r7, r4
 8000ab6:	4b1a      	ldr	r3, [pc, #104]	@ (8000b20 <process_sent_rx+0x74>)
 8000ab8:	0011      	movs	r1, r2
 8000aba:	0018      	movs	r0, r3
 8000abc:	f000 fffb 	bl	8001ab6 <sent_bridge_poll_rx_hal>
 8000ac0:	0003      	movs	r3, r0
 8000ac2:	001a      	movs	r2, r3
 8000ac4:	2301      	movs	r3, #1
 8000ac6:	4053      	eors	r3, r2
 8000ac8:	b2db      	uxtb	r3, r3
 8000aca:	2b00      	cmp	r3, #0
 8000acc:	d124      	bne.n	8000b18 <process_sent_rx+0x6c>
            break;
        }

        char line[SENT_SLCAN_MAX_LINE_LEN + 2U];
        if (!sent_slcan_serialize_frame(&frame, line, sizeof(line))) {
 8000ace:	0039      	movs	r1, r7
 8000ad0:	193b      	adds	r3, r7, r4
 8000ad2:	2222      	movs	r2, #34	@ 0x22
 8000ad4:	0018      	movs	r0, r3
 8000ad6:	f002 fc16 	bl	8003306 <sent_slcan_serialize_frame>
 8000ada:	0003      	movs	r3, r0
 8000adc:	001a      	movs	r2, r3
 8000ade:	2301      	movs	r3, #1
 8000ae0:	4053      	eors	r3, r2
 8000ae2:	b2db      	uxtb	r3, r3
 8000ae4:	2b00      	cmp	r3, #0
 8000ae6:	d115      	bne.n	8000b14 <process_sent_rx+0x68>
            continue;
        }

        size_t len = strlen(line);
 8000ae8:	003b      	movs	r3, r7
 8000aea:	0018      	movs	r0, r3
 8000aec:	f7ff fb0c 	bl	8000108 <strlen>
 8000af0:	0003      	movs	r3, r0
 8000af2:	637b      	str	r3, [r7, #52]	@ 0x34
        line[len++] = '\r';
 8000af4:	6b7b      	ldr	r3, [r7, #52]	@ 0x34
 8000af6:	1c5a      	adds	r2, r3, #1
 8000af8:	637a      	str	r2, [r7, #52]	@ 0x34
 8000afa:	003a      	movs	r2, r7
 8000afc:	210d      	movs	r1, #13
 8000afe:	54d1      	strb	r1, [r2, r3]
        line[len] = '\0';
 8000b00:	003a      	movs	r2, r7
 8000b02:	6b7b      	ldr	r3, [r7, #52]	@ 0x34
 8000b04:	18d3      	adds	r3, r2, r3
 8000b06:	2200      	movs	r2, #0
 8000b08:	701a      	strb	r2, [r3, #0]
        tx_enqueue_cstr(line);
 8000b0a:	003b      	movs	r3, r7
 8000b0c:	0018      	movs	r0, r3
 8000b0e:	f7ff ff08 	bl	8000922 <tx_enqueue_cstr>
 8000b12:	e7ce      	b.n	8000ab2 <process_sent_rx+0x6>
            continue;
 8000b14:	46c0      	nop			@ (mov r8, r8)
    for (;;) {
 8000b16:	e7cc      	b.n	8000ab2 <process_sent_rx+0x6>
    }
}
 8000b18:	46c0      	nop			@ (mov r8, r8)
 8000b1a:	46bd      	mov	sp, r7
 8000b1c:	b00f      	add	sp, #60	@ 0x3c
 8000b1e:	bd90      	pop	{r4, r7, pc}
 8000b20:	200003a8 	.word	0x200003a8

08000b24 <flush_usb_tx>:

static void flush_usb_tx(void) {
 8000b24:	b580      	push	{r7, lr}
 8000b26:	b082      	sub	sp, #8
 8000b28:	af00      	add	r7, sp, #0
    uint16_t tail = g_tx_tail;
 8000b2a:	1dbb      	adds	r3, r7, #6
 8000b2c:	4a21      	ldr	r2, [pc, #132]	@ (8000bb4 <flush_usb_tx+0x90>)
 8000b2e:	8812      	ldrh	r2, [r2, #0]
 8000b30:	801a      	strh	r2, [r3, #0]
    uint16_t head = g_tx_head;
 8000b32:	1cbb      	adds	r3, r7, #2
 8000b34:	4a20      	ldr	r2, [pc, #128]	@ (8000bb8 <flush_usb_tx+0x94>)
 8000b36:	8812      	ldrh	r2, [r2, #0]
 8000b38:	801a      	strh	r2, [r3, #0]
    if (tail == head) {
 8000b3a:	1dba      	adds	r2, r7, #6
 8000b3c:	1cbb      	adds	r3, r7, #2
 8000b3e:	8812      	ldrh	r2, [r2, #0]
 8000b40:	881b      	ldrh	r3, [r3, #0]
 8000b42:	429a      	cmp	r2, r3
 8000b44:	d032      	beq.n	8000bac <flush_usb_tx+0x88>
    }

    /* Transmit the contiguous portion from tail towards end of buffer.
     * If data wraps around, the remainder is sent on the next call. */
    uint16_t count;
    if (head > tail) {
 8000b46:	1cba      	adds	r2, r7, #2
 8000b48:	1dbb      	adds	r3, r7, #6
 8000b4a:	8812      	ldrh	r2, [r2, #0]
 8000b4c:	881b      	ldrh	r3, [r3, #0]
 8000b4e:	429a      	cmp	r2, r3
 8000b50:	d907      	bls.n	8000b62 <flush_usb_tx+0x3e>
        count = head - tail;
 8000b52:	1d3b      	adds	r3, r7, #4
 8000b54:	1cb9      	adds	r1, r7, #2
 8000b56:	1dba      	adds	r2, r7, #6
 8000b58:	8809      	ldrh	r1, [r1, #0]
 8000b5a:	8812      	ldrh	r2, [r2, #0]
 8000b5c:	1a8a      	subs	r2, r1, r2
 8000b5e:	801a      	strh	r2, [r3, #0]
 8000b60:	e005      	b.n	8000b6e <flush_usb_tx+0x4a>
    } else {
        count = SENT_APP_USB_TX_RING_SIZE - tail;
 8000b62:	1d3b      	adds	r3, r7, #4
 8000b64:	1dba      	adds	r2, r7, #6
 8000b66:	8812      	ldrh	r2, [r2, #0]
 8000b68:	2180      	movs	r1, #128	@ 0x80
 8000b6a:	1a8a      	subs	r2, r1, r2
 8000b6c:	801a      	strh	r2, [r3, #0]
    }

    if (CDC_Transmit_FS(&g_tx_ring[tail], count) == USBD_OK) {
 8000b6e:	1dbb      	adds	r3, r7, #6
 8000b70:	881a      	ldrh	r2, [r3, #0]
 8000b72:	4b12      	ldr	r3, [pc, #72]	@ (8000bbc <flush_usb_tx+0x98>)
 8000b74:	18d2      	adds	r2, r2, r3
 8000b76:	1d3b      	adds	r3, r7, #4
 8000b78:	881b      	ldrh	r3, [r3, #0]
 8000b7a:	0019      	movs	r1, r3
 8000b7c:	0010      	movs	r0, r2
 8000b7e:	f005 fde7 	bl	8006750 <CDC_Transmit_FS>
 8000b82:	1e03      	subs	r3, r0, #0
 8000b84:	d113      	bne.n	8000bae <flush_usb_tx+0x8a>
        tail += count;
 8000b86:	1dbb      	adds	r3, r7, #6
 8000b88:	1db9      	adds	r1, r7, #6
 8000b8a:	1d3a      	adds	r2, r7, #4
 8000b8c:	8809      	ldrh	r1, [r1, #0]
 8000b8e:	8812      	ldrh	r2, [r2, #0]
 8000b90:	188a      	adds	r2, r1, r2
 8000b92:	801a      	strh	r2, [r3, #0]
        if (tail >= SENT_APP_USB_TX_RING_SIZE) {
 8000b94:	1dbb      	adds	r3, r7, #6
 8000b96:	881b      	ldrh	r3, [r3, #0]
 8000b98:	2b7f      	cmp	r3, #127	@ 0x7f
 8000b9a:	d902      	bls.n	8000ba2 <flush_usb_tx+0x7e>
            tail = 0U;
 8000b9c:	1dbb      	adds	r3, r7, #6
 8000b9e:	2200      	movs	r2, #0
 8000ba0:	801a      	strh	r2, [r3, #0]
        }
        g_tx_tail = tail;
 8000ba2:	4b04      	ldr	r3, [pc, #16]	@ (8000bb4 <flush_usb_tx+0x90>)
 8000ba4:	1dba      	adds	r2, r7, #6
 8000ba6:	8812      	ldrh	r2, [r2, #0]
 8000ba8:	801a      	strh	r2, [r3, #0]
 8000baa:	e000      	b.n	8000bae <flush_usb_tx+0x8a>
        return;
 8000bac:	46c0      	nop			@ (mov r8, r8)
    }
}
 8000bae:	46bd      	mov	sp, r7
 8000bb0:	b002      	add	sp, #8
 8000bb2:	bd80      	pop	{r7, pc}
 8000bb4:	20000502 	.word	0x20000502
 8000bb8:	20000500 	.word	0x20000500
 8000bbc:	20000480 	.word	0x20000480

08000bc0 <SentApp_Init>:

void SentApp_Init(void) {
 8000bc0:	b590      	push	{r4, r7, lr}
 8000bc2:	b087      	sub	sp, #28
 8000bc4:	af00      	add	r7, sp, #0
    g_rx_head = 0U;
 8000bc6:	4b26      	ldr	r3, [pc, #152]	@ (8000c60 <SentApp_Init+0xa0>)
 8000bc8:	2200      	movs	r2, #0
 8000bca:	801a      	strh	r2, [r3, #0]
    g_rx_tail = 0U;
 8000bcc:	4b25      	ldr	r3, [pc, #148]	@ (8000c64 <SentApp_Init+0xa4>)
 8000bce:	2200      	movs	r2, #0
 8000bd0:	801a      	strh	r2, [r3, #0]
    g_tx_head = 0U;
 8000bd2:	4b25      	ldr	r3, [pc, #148]	@ (8000c68 <SentApp_Init+0xa8>)
 8000bd4:	2200      	movs	r2, #0
 8000bd6:	801a      	strh	r2, [r3, #0]
    g_tx_tail = 0U;
 8000bd8:	4b24      	ldr	r3, [pc, #144]	@ (8000c6c <SentApp_Init+0xac>)
 8000bda:	2200      	movs	r2, #0
 8000bdc:	801a      	strh	r2, [r3, #0]
    g_line_len = 0U;
 8000bde:	4b24      	ldr	r3, [pc, #144]	@ (8000c70 <SentApp_Init+0xb0>)
 8000be0:	2200      	movs	r2, #0
 8000be2:	601a      	str	r2, [r3, #0]

    sent_stm32f042_rx_config_t rx_cfg;
    rx_cfg.timer_clock_hz = 48000000U;
 8000be4:	2110      	movs	r1, #16
 8000be6:	187b      	adds	r3, r7, r1
 8000be8:	4a22      	ldr	r2, [pc, #136]	@ (8000c74 <SentApp_Init+0xb4>)
 8000bea:	601a      	str	r2, [r3, #0]
    rx_cfg.timer_autoreload = 0xFFFFU;
 8000bec:	187b      	adds	r3, r7, r1
 8000bee:	2201      	movs	r2, #1
 8000bf0:	4252      	negs	r2, r2
 8000bf2:	809a      	strh	r2, [r3, #4]
    rx_cfg.capture_batch_size = SENT_STM32F042_RX_MAX_BATCH_SIZE;
 8000bf4:	187b      	adds	r3, r7, r1
 8000bf6:	220d      	movs	r2, #13
 8000bf8:	719a      	strb	r2, [r3, #6]
    rx_cfg.ready_queue_depth = SENT_STM32F042_RX_MAX_READY_BATCHES;
 8000bfa:	187b      	adds	r3, r7, r1
 8000bfc:	2202      	movs	r2, #2
 8000bfe:	71da      	strb	r2, [r3, #7]

    sent_stm32f042_tx_config_t tx_cfg;
    tx_cfg.max_pending_frames = 3U;
 8000c00:	240c      	movs	r4, #12
 8000c02:	193b      	adds	r3, r7, r4
 8000c04:	2203      	movs	r2, #3
 8000c06:	709a      	strb	r2, [r3, #2]
    tx_cfg.default_pause_ticks = 12U;
 8000c08:	193b      	adds	r3, r7, r4
 8000c0a:	220c      	movs	r2, #12
 8000c0c:	801a      	strh	r2, [r3, #0]

    sent_stm32f042_rx_hal_init(&g_rx_hal, &rx_cfg);
 8000c0e:	187a      	adds	r2, r7, r1
 8000c10:	4b19      	ldr	r3, [pc, #100]	@ (8000c78 <SentApp_Init+0xb8>)
 8000c12:	0011      	movs	r1, r2
 8000c14:	0018      	movs	r0, r3
 8000c16:	f001 f937 	bl	8001e88 <sent_stm32f042_rx_hal_init>
    sent_stm32f042_tx_hal_init(&g_tx_hal, &tx_cfg);
 8000c1a:	193a      	adds	r2, r7, r4
 8000c1c:	4b17      	ldr	r3, [pc, #92]	@ (8000c7c <SentApp_Init+0xbc>)
 8000c1e:	0011      	movs	r1, r2
 8000c20:	0018      	movs	r0, r3
 8000c22:	f001 fb52 	bl	80022ca <sent_stm32f042_tx_hal_init>
    sent_stm32f042_make_rx_hal(&g_rx_hal, &g_rx_hal_if);
 8000c26:	4a16      	ldr	r2, [pc, #88]	@ (8000c80 <SentApp_Init+0xc0>)
 8000c28:	4b13      	ldr	r3, [pc, #76]	@ (8000c78 <SentApp_Init+0xb8>)
 8000c2a:	0011      	movs	r1, r2
 8000c2c:	0018      	movs	r0, r3
 8000c2e:	f001 f957 	bl	8001ee0 <sent_stm32f042_make_rx_hal>
    sent_stm32f042_make_tx_hal(&g_tx_hal, &g_tx_hal_if);
 8000c32:	4a14      	ldr	r2, [pc, #80]	@ (8000c84 <SentApp_Init+0xc4>)
 8000c34:	4b11      	ldr	r3, [pc, #68]	@ (8000c7c <SentApp_Init+0xbc>)
 8000c36:	0011      	movs	r1, r2
 8000c38:	0018      	movs	r0, r3
 8000c3a:	f001 fb6d 	bl	8002318 <sent_stm32f042_make_tx_hal>

    sent_config_t cfg = sent_default_config();
 8000c3e:	1d3b      	adds	r3, r7, #4
 8000c40:	0018      	movs	r0, r3
 8000c42:	f002 f835 	bl	8002cb0 <sent_default_config>
    /* 04L906051B: 6 data nibbles, DATA_ONLY CRC, MSB-first, no pause pulse.
     * Lower min_tick bound to 2 us: the Q12 fixed-point converter at 48 MHz
     * underestimates by ~0.4%, so a 3 us-tick sensor's 168 us sync reads
     * back as 167 us (sync_x10=1670 < 56*30=1680 minimum). 20 gives ample
     * margin while still rejecting non-SENT noise. */
    cfg.min_tick_x10_us = 20U;
 8000c46:	1d3b      	adds	r3, r7, #4
 8000c48:	2214      	movs	r2, #20
 8000c4a:	809a      	strh	r2, [r3, #4]
    sent_bridge_init(&g_bridge, &cfg, &g_rx_hal_if, &g_tx_hal_if);
 8000c4c:	4b0d      	ldr	r3, [pc, #52]	@ (8000c84 <SentApp_Init+0xc4>)
 8000c4e:	4a0c      	ldr	r2, [pc, #48]	@ (8000c80 <SentApp_Init+0xc0>)
 8000c50:	1d39      	adds	r1, r7, #4
 8000c52:	480d      	ldr	r0, [pc, #52]	@ (8000c88 <SentApp_Init+0xc8>)
 8000c54:	f000 fc59 	bl	800150a <sent_bridge_init>
}
 8000c58:	46c0      	nop			@ (mov r8, r8)
 8000c5a:	46bd      	mov	sp, r7
 8000c5c:	b007      	add	sp, #28
 8000c5e:	bd90      	pop	{r4, r7, pc}
 8000c60:	2000047c 	.word	0x2000047c
 8000c64:	2000047e 	.word	0x2000047e
 8000c68:	20000500 	.word	0x20000500
 8000c6c:	20000502 	.word	0x20000502
 8000c70:	20000544 	.word	0x20000544
 8000c74:	02dc6c00 	.word	0x02dc6c00
 8000c78:	20000230 	.word	0x20000230
 8000c7c:	200002fc 	.word	0x200002fc
 8000c80:	20000388 	.word	0x20000388
 8000c84:	20000398 	.word	0x20000398
 8000c88:	200003a8 	.word	0x200003a8

08000c8c <SentApp_Process>:

void SentApp_Process(void) {
 8000c8c:	b580      	push	{r7, lr}
 8000c8e:	af00      	add	r7, sp, #0
    process_usb_rx();
 8000c90:	f7ff feca 	bl	8000a28 <process_usb_rx>
    process_sent_rx();
 8000c94:	f7ff ff0a 	bl	8000aac <process_sent_rx>
    flush_usb_tx();
 8000c98:	f7ff ff44 	bl	8000b24 <flush_usb_tx>
}
 8000c9c:	46c0      	nop			@ (mov r8, r8)
 8000c9e:	46bd      	mov	sp, r7
 8000ca0:	bd80      	pop	{r7, pc}

08000ca2 <SentApp_OnUsbRx>:

void SentApp_OnUsbRx(const uint8_t* data, uint32_t len) {
 8000ca2:	b580      	push	{r7, lr}
 8000ca4:	b084      	sub	sp, #16
 8000ca6:	af00      	add	r7, sp, #0
 8000ca8:	6078      	str	r0, [r7, #4]
 8000caa:	6039      	str	r1, [r7, #0]
    SENT_ASSERT(data != NULL);
 8000cac:	687b      	ldr	r3, [r7, #4]
 8000cae:	2b00      	cmp	r3, #0
 8000cb0:	d102      	bne.n	8000cb8 <SentApp_OnUsbRx+0x16>
 8000cb2:	be00      	bkpt	0x0000
 8000cb4:	46c0      	nop			@ (mov r8, r8)
 8000cb6:	e7fd      	b.n	8000cb4 <SentApp_OnUsbRx+0x12>
    if (len == 0U) {
 8000cb8:	683b      	ldr	r3, [r7, #0]
 8000cba:	2b00      	cmp	r3, #0
 8000cbc:	d018      	beq.n	8000cf0 <SentApp_OnUsbRx+0x4e>
        return;
    }

    for (uint32_t i = 0U; i < len; ++i) {
 8000cbe:	2300      	movs	r3, #0
 8000cc0:	60fb      	str	r3, [r7, #12]
 8000cc2:	e010      	b.n	8000ce6 <SentApp_OnUsbRx+0x44>
        if (!rx_ring_push(data[i])) {
 8000cc4:	687a      	ldr	r2, [r7, #4]
 8000cc6:	68fb      	ldr	r3, [r7, #12]
 8000cc8:	18d3      	adds	r3, r2, r3
 8000cca:	781b      	ldrb	r3, [r3, #0]
 8000ccc:	0018      	movs	r0, r3
 8000cce:	f7ff fd65 	bl	800079c <rx_ring_push>
 8000cd2:	0003      	movs	r3, r0
 8000cd4:	001a      	movs	r2, r3
 8000cd6:	2301      	movs	r3, #1
 8000cd8:	4053      	eors	r3, r2
 8000cda:	b2db      	uxtb	r3, r3
 8000cdc:	2b00      	cmp	r3, #0
 8000cde:	d109      	bne.n	8000cf4 <SentApp_OnUsbRx+0x52>
    for (uint32_t i = 0U; i < len; ++i) {
 8000ce0:	68fb      	ldr	r3, [r7, #12]
 8000ce2:	3301      	adds	r3, #1
 8000ce4:	60fb      	str	r3, [r7, #12]
 8000ce6:	68fa      	ldr	r2, [r7, #12]
 8000ce8:	683b      	ldr	r3, [r7, #0]
 8000cea:	429a      	cmp	r2, r3
 8000cec:	d3ea      	bcc.n	8000cc4 <SentApp_OnUsbRx+0x22>
 8000cee:	e002      	b.n	8000cf6 <SentApp_OnUsbRx+0x54>
        return;
 8000cf0:	46c0      	nop			@ (mov r8, r8)
 8000cf2:	e000      	b.n	8000cf6 <SentApp_OnUsbRx+0x54>
            break;
 8000cf4:	46c0      	nop			@ (mov r8, r8)
        }
    }
}
 8000cf6:	46bd      	mov	sp, r7
 8000cf8:	b004      	add	sp, #16
 8000cfa:	bd80      	pop	{r7, pc}

08000cfc <SentApp_OnSentRxCaptureEdge>:

void SentApp_OnSentRxCaptureEdge(uint16_t captured_counter) {
 8000cfc:	b580      	push	{r7, lr}
 8000cfe:	b082      	sub	sp, #8
 8000d00:	af00      	add	r7, sp, #0
 8000d02:	0002      	movs	r2, r0
 8000d04:	1dbb      	adds	r3, r7, #6
 8000d06:	801a      	strh	r2, [r3, #0]
    sent_stm32f042_rx_on_capture_edge_isr(&g_rx_hal, captured_counter);
 8000d08:	1dbb      	adds	r3, r7, #6
 8000d0a:	881a      	ldrh	r2, [r3, #0]
 8000d0c:	4b04      	ldr	r3, [pc, #16]	@ (8000d20 <SentApp_OnSentRxCaptureEdge+0x24>)
 8000d0e:	0011      	movs	r1, r2
 8000d10:	0018      	movs	r0, r3
 8000d12:	f001 f907 	bl	8001f24 <sent_stm32f042_rx_on_capture_edge_isr>
}
 8000d16:	46c0      	nop			@ (mov r8, r8)
 8000d18:	46bd      	mov	sp, r7
 8000d1a:	b002      	add	sp, #8
 8000d1c:	bd80      	pop	{r7, pc}
 8000d1e:	46c0      	nop			@ (mov r8, r8)
 8000d20:	20000230 	.word	0x20000230

08000d24 <SentApp_OnSentRxTimerOverflow>:

void SentApp_OnSentRxTimerOverflow(void) {
 8000d24:	b580      	push	{r7, lr}
 8000d26:	af00      	add	r7, sp, #0
    sent_stm32f042_rx_on_overflow_isr(&g_rx_hal);
 8000d28:	4b03      	ldr	r3, [pc, #12]	@ (8000d38 <SentApp_OnSentRxTimerOverflow+0x14>)
 8000d2a:	0018      	movs	r0, r3
 8000d2c:	f001 f9a7 	bl	800207e <sent_stm32f042_rx_on_overflow_isr>
}
 8000d30:	46c0      	nop			@ (mov r8, r8)
 8000d32:	46bd      	mov	sp, r7
 8000d34:	bd80      	pop	{r7, pc}
 8000d36:	46c0      	nop			@ (mov r8, r8)
 8000d38:	20000230 	.word	0x20000230

08000d3c <SentApp_PopNextTxIntervalTicks>:

uint8_t SentApp_PopNextTxIntervalTicks(uint16_t* out_ticks) {
 8000d3c:	b580      	push	{r7, lr}
 8000d3e:	b082      	sub	sp, #8
 8000d40:	af00      	add	r7, sp, #0
 8000d42:	6078      	str	r0, [r7, #4]
    return sent_stm32f042_tx_pop_next_interval_ticks_from_isr(&g_tx_hal, out_ticks) ? 1U : 0U;
 8000d44:	687a      	ldr	r2, [r7, #4]
 8000d46:	4b07      	ldr	r3, [pc, #28]	@ (8000d64 <SentApp_PopNextTxIntervalTicks+0x28>)
 8000d48:	0011      	movs	r1, r2
 8000d4a:	0018      	movs	r0, r3
 8000d4c:	f001 fb06 	bl	800235c <sent_stm32f042_tx_pop_next_interval_ticks_from_isr>
 8000d50:	1e03      	subs	r3, r0, #0
 8000d52:	d001      	beq.n	8000d58 <SentApp_PopNextTxIntervalTicks+0x1c>
 8000d54:	2301      	movs	r3, #1
 8000d56:	e000      	b.n	8000d5a <SentApp_PopNextTxIntervalTicks+0x1e>
 8000d58:	2300      	movs	r3, #0
}
 8000d5a:	0018      	movs	r0, r3
 8000d5c:	46bd      	mov	sp, r7
 8000d5e:	b002      	add	sp, #8
 8000d60:	bd80      	pop	{r7, pc}
 8000d62:	46c0      	nop			@ (mov r8, r8)
 8000d64:	200002fc 	.word	0x200002fc

08000d68 <SentApp_HasPendingTxIntervals>:

uint8_t SentApp_HasPendingTxIntervals(void) {
 8000d68:	b580      	push	{r7, lr}
 8000d6a:	af00      	add	r7, sp, #0
    return sent_stm32f042_tx_pending_frames(&g_tx_hal) > 0U ? 1U : 0U;
 8000d6c:	4b05      	ldr	r3, [pc, #20]	@ (8000d84 <SentApp_HasPendingTxIntervals+0x1c>)
 8000d6e:	0018      	movs	r0, r3
 8000d70:	f001 fb9a 	bl	80024a8 <sent_stm32f042_tx_pending_frames>
 8000d74:	1e03      	subs	r3, r0, #0
 8000d76:	d001      	beq.n	8000d7c <SentApp_HasPendingTxIntervals+0x14>
 8000d78:	2301      	movs	r3, #1
 8000d7a:	e000      	b.n	8000d7e <SentApp_HasPendingTxIntervals+0x16>
 8000d7c:	2300      	movs	r3, #0
}
 8000d7e:	0018      	movs	r0, r3
 8000d80:	46bd      	mov	sp, r7
 8000d82:	bd80      	pop	{r7, pc}
 8000d84:	200002fc 	.word	0x200002fc

08000d88 <SentApp_StartRxMode>:

void SentApp_StartRxMode(void) {
 8000d88:	b580      	push	{r7, lr}
 8000d8a:	af00      	add	r7, sp, #0
    /* Start RX mode: CAN ID 0x600, DLC=1, data=[0x01] */
    handle_slcan_line("t600101");
 8000d8c:	4b03      	ldr	r3, [pc, #12]	@ (8000d9c <SentApp_StartRxMode+0x14>)
 8000d8e:	0018      	movs	r0, r3
 8000d90:	f7ff fe0e 	bl	80009b0 <handle_slcan_line>
}
 8000d94:	46c0      	nop			@ (mov r8, r8)
 8000d96:	46bd      	mov	sp, r7
 8000d98:	bd80      	pop	{r7, pc}
 8000d9a:	46c0      	nop			@ (mov r8, r8)
 8000d9c:	08006b50 	.word	0x08006b50

08000da0 <HAL_MspInit>:
/* USER CODE END 0 */
/**
  * Initializes the Global MSP.
  */
void HAL_MspInit(void)
{
 8000da0:	b580      	push	{r7, lr}
 8000da2:	b082      	sub	sp, #8
 8000da4:	af00      	add	r7, sp, #0

  /* USER CODE BEGIN MspInit 0 */

  /* USER CODE END MspInit 0 */

  __HAL_RCC_SYSCFG_CLK_ENABLE();
 8000da6:	4b12      	ldr	r3, [pc, #72]	@ (8000df0 <HAL_MspInit+0x50>)
 8000da8:	699a      	ldr	r2, [r3, #24]
 8000daa:	4b11      	ldr	r3, [pc, #68]	@ (8000df0 <HAL_MspInit+0x50>)
 8000dac:	2101      	movs	r1, #1
 8000dae:	430a      	orrs	r2, r1
 8000db0:	619a      	str	r2, [r3, #24]
 8000db2:	4b0f      	ldr	r3, [pc, #60]	@ (8000df0 <HAL_MspInit+0x50>)
 8000db4:	699b      	ldr	r3, [r3, #24]
 8000db6:	2201      	movs	r2, #1
 8000db8:	4013      	ands	r3, r2
 8000dba:	607b      	str	r3, [r7, #4]
 8000dbc:	687b      	ldr	r3, [r7, #4]
  __HAL_RCC_PWR_CLK_ENABLE();
 8000dbe:	4b0c      	ldr	r3, [pc, #48]	@ (8000df0 <HAL_MspInit+0x50>)
 8000dc0:	69da      	ldr	r2, [r3, #28]
 8000dc2:	4b0b      	ldr	r3, [pc, #44]	@ (8000df0 <HAL_MspInit+0x50>)
 8000dc4:	2180      	movs	r1, #128	@ 0x80
 8000dc6:	0549      	lsls	r1, r1, #21
 8000dc8:	430a      	orrs	r2, r1
 8000dca:	61da      	str	r2, [r3, #28]
 8000dcc:	4b08      	ldr	r3, [pc, #32]	@ (8000df0 <HAL_MspInit+0x50>)
 8000dce:	69da      	ldr	r2, [r3, #28]
 8000dd0:	2380      	movs	r3, #128	@ 0x80
 8000dd2:	055b      	lsls	r3, r3, #21
 8000dd4:	4013      	ands	r3, r2
 8000dd6:	603b      	str	r3, [r7, #0]
 8000dd8:	683b      	ldr	r3, [r7, #0]

  /* System interrupt init*/

  __HAL_REMAP_PIN_ENABLE(HAL_REMAP_PA11_PA12);
 8000dda:	4b06      	ldr	r3, [pc, #24]	@ (8000df4 <HAL_MspInit+0x54>)
 8000ddc:	681a      	ldr	r2, [r3, #0]
 8000dde:	4b05      	ldr	r3, [pc, #20]	@ (8000df4 <HAL_MspInit+0x54>)
 8000de0:	2110      	movs	r1, #16
 8000de2:	430a      	orrs	r2, r1
 8000de4:	601a      	str	r2, [r3, #0]

  /* USER CODE BEGIN MspInit 1 */

  /* USER CODE END MspInit 1 */
}
 8000de6:	46c0      	nop			@ (mov r8, r8)
 8000de8:	46bd      	mov	sp, r7
 8000dea:	b002      	add	sp, #8
 8000dec:	bd80      	pop	{r7, pc}
 8000dee:	46c0      	nop			@ (mov r8, r8)
 8000df0:	40021000 	.word	0x40021000
 8000df4:	40010000 	.word	0x40010000

08000df8 <HAL_TIM_Base_MspInit>:
  * This function configures the hardware resources used in this example
  * @param htim_base: TIM_Base handle pointer
  * @retval None
  */
void HAL_TIM_Base_MspInit(TIM_HandleTypeDef* htim_base)
{
 8000df8:	b590      	push	{r4, r7, lr}
 8000dfa:	b08b      	sub	sp, #44	@ 0x2c
 8000dfc:	af00      	add	r7, sp, #0
 8000dfe:	6078      	str	r0, [r7, #4]
  GPIO_InitTypeDef GPIO_InitStruct = {0};
 8000e00:	2414      	movs	r4, #20
 8000e02:	193b      	adds	r3, r7, r4
 8000e04:	0018      	movs	r0, r3
 8000e06:	2314      	movs	r3, #20
 8000e08:	001a      	movs	r2, r3
 8000e0a:	2100      	movs	r1, #0
 8000e0c:	f005 fe5d 	bl	8006aca <memset>
  if(htim_base->Instance==TIM2)
 8000e10:	687b      	ldr	r3, [r7, #4]
 8000e12:	681a      	ldr	r2, [r3, #0]
 8000e14:	2380      	movs	r3, #128	@ 0x80
 8000e16:	05db      	lsls	r3, r3, #23
 8000e18:	429a      	cmp	r2, r3
 8000e1a:	d139      	bne.n	8000e90 <HAL_TIM_Base_MspInit+0x98>
  {
    /* USER CODE BEGIN TIM2_MspInit 0 */

    /* USER CODE END TIM2_MspInit 0 */
    /* Peripheral clock enable */
    __HAL_RCC_TIM2_CLK_ENABLE();
 8000e1c:	4b2c      	ldr	r3, [pc, #176]	@ (8000ed0 <HAL_TIM_Base_MspInit+0xd8>)
 8000e1e:	69da      	ldr	r2, [r3, #28]
 8000e20:	4b2b      	ldr	r3, [pc, #172]	@ (8000ed0 <HAL_TIM_Base_MspInit+0xd8>)
 8000e22:	2101      	movs	r1, #1
 8000e24:	430a      	orrs	r2, r1
 8000e26:	61da      	str	r2, [r3, #28]
 8000e28:	4b29      	ldr	r3, [pc, #164]	@ (8000ed0 <HAL_TIM_Base_MspInit+0xd8>)
 8000e2a:	69db      	ldr	r3, [r3, #28]
 8000e2c:	2201      	movs	r2, #1
 8000e2e:	4013      	ands	r3, r2
 8000e30:	613b      	str	r3, [r7, #16]
 8000e32:	693b      	ldr	r3, [r7, #16]

    __HAL_RCC_GPIOA_CLK_ENABLE();
 8000e34:	4b26      	ldr	r3, [pc, #152]	@ (8000ed0 <HAL_TIM_Base_MspInit+0xd8>)
 8000e36:	695a      	ldr	r2, [r3, #20]
 8000e38:	4b25      	ldr	r3, [pc, #148]	@ (8000ed0 <HAL_TIM_Base_MspInit+0xd8>)
 8000e3a:	2180      	movs	r1, #128	@ 0x80
 8000e3c:	0289      	lsls	r1, r1, #10
 8000e3e:	430a      	orrs	r2, r1
 8000e40:	615a      	str	r2, [r3, #20]
 8000e42:	4b23      	ldr	r3, [pc, #140]	@ (8000ed0 <HAL_TIM_Base_MspInit+0xd8>)
 8000e44:	695a      	ldr	r2, [r3, #20]
 8000e46:	2380      	movs	r3, #128	@ 0x80
 8000e48:	029b      	lsls	r3, r3, #10
 8000e4a:	4013      	ands	r3, r2
 8000e4c:	60fb      	str	r3, [r7, #12]
 8000e4e:	68fb      	ldr	r3, [r7, #12]
    /**TIM2 GPIO Configuration
    PA2     ------> TIM2_CH3
    */
    GPIO_InitStruct.Pin = SENT_RX_Pin;
 8000e50:	0021      	movs	r1, r4
 8000e52:	187b      	adds	r3, r7, r1
 8000e54:	2204      	movs	r2, #4
 8000e56:	601a      	str	r2, [r3, #0]
    GPIO_InitStruct.Mode = GPIO_MODE_AF_PP;
 8000e58:	187b      	adds	r3, r7, r1
 8000e5a:	2202      	movs	r2, #2
 8000e5c:	605a      	str	r2, [r3, #4]
    GPIO_InitStruct.Pull = GPIO_NOPULL;
 8000e5e:	187b      	adds	r3, r7, r1
 8000e60:	2200      	movs	r2, #0
 8000e62:	609a      	str	r2, [r3, #8]
    GPIO_InitStruct.Speed = GPIO_SPEED_FREQ_LOW;
 8000e64:	187b      	adds	r3, r7, r1
 8000e66:	2200      	movs	r2, #0
 8000e68:	60da      	str	r2, [r3, #12]
    GPIO_InitStruct.Alternate = GPIO_AF2_TIM2;
 8000e6a:	187b      	adds	r3, r7, r1
 8000e6c:	2202      	movs	r2, #2
 8000e6e:	611a      	str	r2, [r3, #16]
    HAL_GPIO_Init(SENT_RX_GPIO_Port, &GPIO_InitStruct);
 8000e70:	187a      	adds	r2, r7, r1
 8000e72:	2390      	movs	r3, #144	@ 0x90
 8000e74:	05db      	lsls	r3, r3, #23
 8000e76:	0011      	movs	r1, r2
 8000e78:	0018      	movs	r0, r3
 8000e7a:	f002 fbab 	bl	80035d4 <HAL_GPIO_Init>

    /* TIM2 interrupt Init */
    HAL_NVIC_SetPriority(TIM2_IRQn, 1, 0);
 8000e7e:	2200      	movs	r2, #0
 8000e80:	2101      	movs	r1, #1
 8000e82:	200f      	movs	r0, #15
 8000e84:	f002 fb56 	bl	8003534 <HAL_NVIC_SetPriority>
    HAL_NVIC_EnableIRQ(TIM2_IRQn);
 8000e88:	200f      	movs	r0, #15
 8000e8a:	f002 fb7d 	bl	8003588 <HAL_NVIC_EnableIRQ>
    /* USER CODE BEGIN TIM14_MspInit 1 */

    /* USER CODE END TIM14_MspInit 1 */
  }

}
 8000e8e:	e01a      	b.n	8000ec6 <HAL_TIM_Base_MspInit+0xce>
  else if(htim_base->Instance==TIM14)
 8000e90:	687b      	ldr	r3, [r7, #4]
 8000e92:	681b      	ldr	r3, [r3, #0]
 8000e94:	4a0f      	ldr	r2, [pc, #60]	@ (8000ed4 <HAL_TIM_Base_MspInit+0xdc>)
 8000e96:	4293      	cmp	r3, r2
 8000e98:	d115      	bne.n	8000ec6 <HAL_TIM_Base_MspInit+0xce>
    __HAL_RCC_TIM14_CLK_ENABLE();
 8000e9a:	4b0d      	ldr	r3, [pc, #52]	@ (8000ed0 <HAL_TIM_Base_MspInit+0xd8>)
 8000e9c:	69da      	ldr	r2, [r3, #28]
 8000e9e:	4b0c      	ldr	r3, [pc, #48]	@ (8000ed0 <HAL_TIM_Base_MspInit+0xd8>)
 8000ea0:	2180      	movs	r1, #128	@ 0x80
 8000ea2:	0049      	lsls	r1, r1, #1
 8000ea4:	430a      	orrs	r2, r1
 8000ea6:	61da      	str	r2, [r3, #28]
 8000ea8:	4b09      	ldr	r3, [pc, #36]	@ (8000ed0 <HAL_TIM_Base_MspInit+0xd8>)
 8000eaa:	69da      	ldr	r2, [r3, #28]
 8000eac:	2380      	movs	r3, #128	@ 0x80
 8000eae:	005b      	lsls	r3, r3, #1
 8000eb0:	4013      	ands	r3, r2
 8000eb2:	60bb      	str	r3, [r7, #8]
 8000eb4:	68bb      	ldr	r3, [r7, #8]
    HAL_NVIC_SetPriority(TIM14_IRQn, 1, 0);
 8000eb6:	2200      	movs	r2, #0
 8000eb8:	2101      	movs	r1, #1
 8000eba:	2013      	movs	r0, #19
 8000ebc:	f002 fb3a 	bl	8003534 <HAL_NVIC_SetPriority>
    HAL_NVIC_EnableIRQ(TIM14_IRQn);
 8000ec0:	2013      	movs	r0, #19
 8000ec2:	f002 fb61 	bl	8003588 <HAL_NVIC_EnableIRQ>
}
 8000ec6:	46c0      	nop			@ (mov r8, r8)
 8000ec8:	46bd      	mov	sp, r7
 8000eca:	b00b      	add	sp, #44	@ 0x2c
 8000ecc:	bd90      	pop	{r4, r7, pc}
 8000ece:	46c0      	nop			@ (mov r8, r8)
 8000ed0:	40021000 	.word	0x40021000
 8000ed4:	40002000 	.word	0x40002000

08000ed8 <NMI_Handler>:
/******************************************************************************/
/**
  * @brief This function handles Non maskable interrupt.
  */
void NMI_Handler(void)
{
 8000ed8:	b580      	push	{r7, lr}
 8000eda:	af00      	add	r7, sp, #0
  /* USER CODE BEGIN NonMaskableInt_IRQn 0 */

  /* USER CODE END NonMaskableInt_IRQn 0 */
  /* USER CODE BEGIN NonMaskableInt_IRQn 1 */
   while (1)
 8000edc:	46c0      	nop			@ (mov r8, r8)
 8000ede:	e7fd      	b.n	8000edc <NMI_Handler+0x4>

08000ee0 <HardFault_Handler>:

/**
  * @brief This function handles Hard fault interrupt.
  */
void HardFault_Handler(void)
{
 8000ee0:	b580      	push	{r7, lr}
 8000ee2:	af00      	add	r7, sp, #0
  /* USER CODE BEGIN HardFault_IRQn 0 */

  /* USER CODE END HardFault_IRQn 0 */
  while (1)
 8000ee4:	46c0      	nop			@ (mov r8, r8)
 8000ee6:	e7fd      	b.n	8000ee4 <HardFault_Handler+0x4>

08000ee8 <SVC_Handler>:

/**
  * @brief This function handles System service call via SWI instruction.
  */
void SVC_Handler(void)
{
 8000ee8:	b580      	push	{r7, lr}
 8000eea:	af00      	add	r7, sp, #0

  /* USER CODE END SVC_IRQn 0 */
  /* USER CODE BEGIN SVC_IRQn 1 */

  /* USER CODE END SVC_IRQn 1 */
}
 8000eec:	46c0      	nop			@ (mov r8, r8)
 8000eee:	46bd      	mov	sp, r7
 8000ef0:	bd80      	pop	{r7, pc}

08000ef2 <PendSV_Handler>:

/**
  * @brief This function handles Pendable request for system service.
  */
void PendSV_Handler(void)
{
 8000ef2:	b580      	push	{r7, lr}
 8000ef4:	af00      	add	r7, sp, #0

  /* USER CODE END PendSV_IRQn 0 */
  /* USER CODE BEGIN PendSV_IRQn 1 */

  /* USER CODE END PendSV_IRQn 1 */
}
 8000ef6:	46c0      	nop			@ (mov r8, r8)
 8000ef8:	46bd      	mov	sp, r7
 8000efa:	bd80      	pop	{r7, pc}

08000efc <SysTick_Handler>:

/**
  * @brief This function handles System tick timer.
  */
void SysTick_Handler(void)
{
 8000efc:	b580      	push	{r7, lr}
 8000efe:	af00      	add	r7, sp, #0
  /* USER CODE BEGIN SysTick_IRQn 0 */

  /* USER CODE END SysTick_IRQn 0 */
  HAL_IncTick();
 8000f00:	f002 fb06 	bl	8003510 <HAL_IncTick>
  /* USER CODE BEGIN SysTick_IRQn 1 */

  /* USER CODE END SysTick_IRQn 1 */
}
 8000f04:	46c0      	nop			@ (mov r8, r8)
 8000f06:	46bd      	mov	sp, r7
 8000f08:	bd80      	pop	{r7, pc}
	...

08000f0c <TIM2_IRQHandler>:

/**
  * @brief This function handles TIM2 global interrupt.
  */
void TIM2_IRQHandler(void)
{
 8000f0c:	b580      	push	{r7, lr}
 8000f0e:	af00      	add	r7, sp, #0
  /* USER CODE BEGIN TIM2_IRQn 0 */

  /* USER CODE END TIM2_IRQn 0 */
  HAL_TIM_IRQHandler(&htim2);
 8000f10:	4b03      	ldr	r3, [pc, #12]	@ (8000f20 <TIM2_IRQHandler+0x14>)
 8000f12:	0018      	movs	r0, r3
 8000f14:	f003 fe89 	bl	8004c2a <HAL_TIM_IRQHandler>
  /* USER CODE BEGIN TIM2_IRQn 1 */

  /* USER CODE END TIM2_IRQn 1 */
}
 8000f18:	46c0      	nop			@ (mov r8, r8)
 8000f1a:	46bd      	mov	sp, r7
 8000f1c:	bd80      	pop	{r7, pc}
 8000f1e:	46c0      	nop			@ (mov r8, r8)
 8000f20:	20000198 	.word	0x20000198

08000f24 <TIM14_IRQHandler>:

/**
  * @brief This function handles TIM14 global interrupt.
  */
void TIM14_IRQHandler(void)
{
 8000f24:	b580      	push	{r7, lr}
 8000f26:	af00      	add	r7, sp, #0
  /* USER CODE BEGIN TIM14_IRQn 0 */
  if (__HAL_TIM_GET_FLAG(&htim14, TIM_FLAG_UPDATE) != RESET &&
 8000f28:	4b0d      	ldr	r3, [pc, #52]	@ (8000f60 <TIM14_IRQHandler+0x3c>)
 8000f2a:	681b      	ldr	r3, [r3, #0]
 8000f2c:	691b      	ldr	r3, [r3, #16]
 8000f2e:	2201      	movs	r2, #1
 8000f30:	4013      	ands	r3, r2
 8000f32:	2b01      	cmp	r3, #1
 8000f34:	d10e      	bne.n	8000f54 <TIM14_IRQHandler+0x30>
      __HAL_TIM_GET_IT_SOURCE(&htim14, TIM_IT_UPDATE) != RESET)
 8000f36:	4b0a      	ldr	r3, [pc, #40]	@ (8000f60 <TIM14_IRQHandler+0x3c>)
 8000f38:	681b      	ldr	r3, [r3, #0]
 8000f3a:	68db      	ldr	r3, [r3, #12]
 8000f3c:	2201      	movs	r2, #1
 8000f3e:	4013      	ands	r3, r2
  if (__HAL_TIM_GET_FLAG(&htim14, TIM_FLAG_UPDATE) != RESET &&
 8000f40:	2b01      	cmp	r3, #1
 8000f42:	d107      	bne.n	8000f54 <TIM14_IRQHandler+0x30>
  {
    __HAL_TIM_CLEAR_IT(&htim14, TIM_IT_UPDATE);
 8000f44:	4b06      	ldr	r3, [pc, #24]	@ (8000f60 <TIM14_IRQHandler+0x3c>)
 8000f46:	681b      	ldr	r3, [r3, #0]
 8000f48:	2202      	movs	r2, #2
 8000f4a:	4252      	negs	r2, r2
 8000f4c:	611a      	str	r2, [r3, #16]
    SentApp_OnTim14UpdateIrq();
 8000f4e:	f7ff faff 	bl	8000550 <SentApp_OnTim14UpdateIrq>
    return;
 8000f52:	e003      	b.n	8000f5c <TIM14_IRQHandler+0x38>
  }

  /* USER CODE END TIM14_IRQn 0 */
  HAL_TIM_IRQHandler(&htim14);
 8000f54:	4b02      	ldr	r3, [pc, #8]	@ (8000f60 <TIM14_IRQHandler+0x3c>)
 8000f56:	0018      	movs	r0, r3
 8000f58:	f003 fe67 	bl	8004c2a <HAL_TIM_IRQHandler>
  /* USER CODE BEGIN TIM14_IRQn 1 */

  /* USER CODE END TIM14_IRQn 1 */
}
 8000f5c:	46bd      	mov	sp, r7
 8000f5e:	bd80      	pop	{r7, pc}
 8000f60:	200001e0 	.word	0x200001e0

08000f64 <USB_IRQHandler>:

/**
  * @brief This function handles USB global Interrupt / USB wake-up interrupt through EXTI line 18.
  */
void USB_IRQHandler(void)
{
 8000f64:	b580      	push	{r7, lr}
 8000f66:	af00      	add	r7, sp, #0
  /* USER CODE BEGIN USB_IRQn 0 */

  /* USER CODE END USB_IRQn 0 */
  HAL_PCD_IRQHandler(&hpcd_USB_FS);
 8000f68:	4b03      	ldr	r3, [pc, #12]	@ (8000f78 <USB_IRQHandler+0x14>)
 8000f6a:	0018      	movs	r0, r3
 8000f6c:	f002 fc5a 	bl	8003824 <HAL_PCD_IRQHandler>
  /* USER CODE BEGIN USB_IRQn 1 */

  /* USER CODE END USB_IRQn 1 */
}
 8000f70:	46c0      	nop			@ (mov r8, r8)
 8000f72:	46bd      	mov	sp, r7
 8000f74:	bd80      	pop	{r7, pc}
 8000f76:	46c0      	nop			@ (mov r8, r8)
 8000f78:	20001034 	.word	0x20001034

08000f7c <SystemInit>:
  * @brief  Setup the microcontroller system
  * @param  None
  * @retval None
  */
void SystemInit(void)
{
 8000f7c:	b580      	push	{r7, lr}
 8000f7e:	af00      	add	r7, sp, #0
                         before branch to main program. This call is made inside
                         the "startup_stm32f0xx.s" file.
                         User can setups the default system clock (System clock source, PLL Multiplier
                         and Divider factors, AHB/APBx prescalers and Flash settings).
   */
}
 8000f80:	46c0      	nop			@ (mov r8, r8)
 8000f82:	46bd      	mov	sp, r7
 8000f84:	bd80      	pop	{r7, pc}

08000f86 <sent_mode_manager_mode>:
void sent_mode_manager_init(sent_mode_manager_t* manager);
void sent_mode_manager_start_rx(sent_mode_manager_t* manager);
void sent_mode_manager_start_tx(sent_mode_manager_t* manager);
void sent_mode_manager_stop(sent_mode_manager_t* manager);

static inline sent_mode_t sent_mode_manager_mode(const sent_mode_manager_t* manager) {
 8000f86:	b580      	push	{r7, lr}
 8000f88:	b082      	sub	sp, #8
 8000f8a:	af00      	add	r7, sp, #0
 8000f8c:	6078      	str	r0, [r7, #4]
    return manager != NULL ? manager->mode : SENT_MODE_STOPPED;
 8000f8e:	687b      	ldr	r3, [r7, #4]
 8000f90:	2b00      	cmp	r3, #0
 8000f92:	d002      	beq.n	8000f9a <sent_mode_manager_mode+0x14>
 8000f94:	687b      	ldr	r3, [r7, #4]
 8000f96:	781b      	ldrb	r3, [r3, #0]
 8000f98:	e000      	b.n	8000f9c <sent_mode_manager_mode+0x16>
 8000f9a:	2300      	movs	r3, #0
}
 8000f9c:	0018      	movs	r0, r3
 8000f9e:	46bd      	mov	sp, r7
 8000fa0:	b002      	add	sp, #8
 8000fa2:	bd80      	pop	{r7, pc}

08000fa4 <sent_mode_manager_is_rx>:

static inline bool sent_mode_manager_is_rx(const sent_mode_manager_t* manager) {
 8000fa4:	b580      	push	{r7, lr}
 8000fa6:	b082      	sub	sp, #8
 8000fa8:	af00      	add	r7, sp, #0
 8000faa:	6078      	str	r0, [r7, #4]
    return sent_mode_manager_mode(manager) == SENT_MODE_RX;
 8000fac:	687b      	ldr	r3, [r7, #4]
 8000fae:	0018      	movs	r0, r3
 8000fb0:	f7ff ffe9 	bl	8000f86 <sent_mode_manager_mode>
 8000fb4:	0003      	movs	r3, r0
 8000fb6:	3b01      	subs	r3, #1
 8000fb8:	425a      	negs	r2, r3
 8000fba:	4153      	adcs	r3, r2
 8000fbc:	b2db      	uxtb	r3, r3
}
 8000fbe:	0018      	movs	r0, r3
 8000fc0:	46bd      	mov	sp, r7
 8000fc2:	b002      	add	sp, #8
 8000fc4:	bd80      	pop	{r7, pc}

08000fc6 <sent_mode_manager_is_tx>:

static inline bool sent_mode_manager_is_tx(const sent_mode_manager_t* manager) {
 8000fc6:	b580      	push	{r7, lr}
 8000fc8:	b082      	sub	sp, #8
 8000fca:	af00      	add	r7, sp, #0
 8000fcc:	6078      	str	r0, [r7, #4]
    return sent_mode_manager_mode(manager) == SENT_MODE_TX;
 8000fce:	687b      	ldr	r3, [r7, #4]
 8000fd0:	0018      	movs	r0, r3
 8000fd2:	f7ff ffd8 	bl	8000f86 <sent_mode_manager_mode>
 8000fd6:	0003      	movs	r3, r0
 8000fd8:	3b02      	subs	r3, #2
 8000fda:	425a      	negs	r2, r3
 8000fdc:	4153      	adcs	r3, r2
 8000fde:	b2db      	uxtb	r3, r3
}
 8000fe0:	0018      	movs	r0, r3
 8000fe2:	46bd      	mov	sp, r7
 8000fe4:	b002      	add	sp, #8
 8000fe6:	bd80      	pop	{r7, pc}

08000fe8 <response_push>:

/* Append a response line to the SLCAN response buffer.
 * @param out_responses  [in/out] response collection to append to
 * @param line           null-terminated response string
 * @return               true if appended, false if buffer full */
static bool response_push(sent_bridge_slcan_responses_t* out_responses, const char* line) {
 8000fe8:	b580      	push	{r7, lr}
 8000fea:	b086      	sub	sp, #24
 8000fec:	af00      	add	r7, sp, #0
 8000fee:	6078      	str	r0, [r7, #4]
 8000ff0:	6039      	str	r1, [r7, #0]
    SENT_ASSERT(out_responses != NULL && line != NULL);
 8000ff2:	687b      	ldr	r3, [r7, #4]
 8000ff4:	2b00      	cmp	r3, #0
 8000ff6:	d002      	beq.n	8000ffe <response_push+0x16>
 8000ff8:	683b      	ldr	r3, [r7, #0]
 8000ffa:	2b00      	cmp	r3, #0
 8000ffc:	d102      	bne.n	8001004 <response_push+0x1c>
 8000ffe:	be00      	bkpt	0x0000
 8001000:	46c0      	nop			@ (mov r8, r8)
 8001002:	e7fd      	b.n	8001000 <response_push+0x18>
    if (out_responses->count >= SENT_BRIDGE_MAX_RESPONSES) {
 8001004:	687b      	ldr	r3, [r7, #4]
 8001006:	781b      	ldrb	r3, [r3, #0]
 8001008:	2b01      	cmp	r3, #1
 800100a:	d901      	bls.n	8001010 <response_push+0x28>
        return false;
 800100c:	2300      	movs	r3, #0
 800100e:	e03c      	b.n	800108a <response_push+0xa2>
    }

    size_t idx = out_responses->count;
 8001010:	687b      	ldr	r3, [r7, #4]
 8001012:	781b      	ldrb	r3, [r3, #0]
 8001014:	613b      	str	r3, [r7, #16]
    size_t len = strlen(line);
 8001016:	683b      	ldr	r3, [r7, #0]
 8001018:	0018      	movs	r0, r3
 800101a:	f7ff f875 	bl	8000108 <strlen>
 800101e:	0003      	movs	r3, r0
 8001020:	60fb      	str	r3, [r7, #12]
    if (len >= sizeof(out_responses->lines[idx])) {
 8001022:	68fb      	ldr	r3, [r7, #12]
 8001024:	2b22      	cmp	r3, #34	@ 0x22
 8001026:	d901      	bls.n	800102c <response_push+0x44>
        return false;
 8001028:	2300      	movs	r3, #0
 800102a:	e02e      	b.n	800108a <response_push+0xa2>
    }

    for (size_t i = 0U; i < len; ++i) {
 800102c:	2300      	movs	r3, #0
 800102e:	617b      	str	r3, [r7, #20]
 8001030:	e013      	b.n	800105a <response_push+0x72>
        out_responses->lines[idx][i] = line[i];
 8001032:	683a      	ldr	r2, [r7, #0]
 8001034:	697b      	ldr	r3, [r7, #20]
 8001036:	18d3      	adds	r3, r2, r3
 8001038:	7818      	ldrb	r0, [r3, #0]
 800103a:	6879      	ldr	r1, [r7, #4]
 800103c:	693a      	ldr	r2, [r7, #16]
 800103e:	0013      	movs	r3, r2
 8001040:	009b      	lsls	r3, r3, #2
 8001042:	189b      	adds	r3, r3, r2
 8001044:	00da      	lsls	r2, r3, #3
 8001046:	1ad2      	subs	r2, r2, r3
 8001048:	188a      	adds	r2, r1, r2
 800104a:	697b      	ldr	r3, [r7, #20]
 800104c:	18d3      	adds	r3, r2, r3
 800104e:	3301      	adds	r3, #1
 8001050:	1c02      	adds	r2, r0, #0
 8001052:	701a      	strb	r2, [r3, #0]
    for (size_t i = 0U; i < len; ++i) {
 8001054:	697b      	ldr	r3, [r7, #20]
 8001056:	3301      	adds	r3, #1
 8001058:	617b      	str	r3, [r7, #20]
 800105a:	697a      	ldr	r2, [r7, #20]
 800105c:	68fb      	ldr	r3, [r7, #12]
 800105e:	429a      	cmp	r2, r3
 8001060:	d3e7      	bcc.n	8001032 <response_push+0x4a>
    }
    out_responses->lines[idx][len] = '\0';
 8001062:	6879      	ldr	r1, [r7, #4]
 8001064:	693a      	ldr	r2, [r7, #16]
 8001066:	0013      	movs	r3, r2
 8001068:	009b      	lsls	r3, r3, #2
 800106a:	189b      	adds	r3, r3, r2
 800106c:	00da      	lsls	r2, r3, #3
 800106e:	1ad2      	subs	r2, r2, r3
 8001070:	188a      	adds	r2, r1, r2
 8001072:	68fb      	ldr	r3, [r7, #12]
 8001074:	18d3      	adds	r3, r2, r3
 8001076:	3301      	adds	r3, #1
 8001078:	2200      	movs	r2, #0
 800107a:	701a      	strb	r2, [r3, #0]
    out_responses->count++;
 800107c:	687b      	ldr	r3, [r7, #4]
 800107e:	781b      	ldrb	r3, [r3, #0]
 8001080:	3301      	adds	r3, #1
 8001082:	b2da      	uxtb	r2, r3
 8001084:	687b      	ldr	r3, [r7, #4]
 8001086:	701a      	strb	r2, [r3, #0]
    return true;
 8001088:	2301      	movs	r3, #1
}
 800108a:	0018      	movs	r0, r3
 800108c:	46bd      	mov	sp, r7
 800108e:	b006      	add	sp, #24
 8001090:	bd80      	pop	{r7, pc}
	...

08001094 <ack_line>:

/* Return SLCAN ACK ("\r") or NACK ("\a") string based on success.
 * @param ok  true for ACK, false for NACK
 * @return    "\r" or "\a" */
static const char* ack_line(bool ok) {
 8001094:	b580      	push	{r7, lr}
 8001096:	b082      	sub	sp, #8
 8001098:	af00      	add	r7, sp, #0
 800109a:	0002      	movs	r2, r0
 800109c:	1dfb      	adds	r3, r7, #7
 800109e:	701a      	strb	r2, [r3, #0]
    return ok ? "\r" : "\a";
 80010a0:	1dfb      	adds	r3, r7, #7
 80010a2:	781b      	ldrb	r3, [r3, #0]
 80010a4:	2b00      	cmp	r3, #0
 80010a6:	d001      	beq.n	80010ac <ack_line+0x18>
 80010a8:	4b03      	ldr	r3, [pc, #12]	@ (80010b8 <ack_line+0x24>)
 80010aa:	e000      	b.n	80010ae <ack_line+0x1a>
 80010ac:	4b03      	ldr	r3, [pc, #12]	@ (80010bc <ack_line+0x28>)
}
 80010ae:	0018      	movs	r0, r3
 80010b0:	46bd      	mov	sp, r7
 80010b2:	b002      	add	sp, #8
 80010b4:	bd80      	pop	{r7, pc}
 80010b6:	46c0      	nop			@ (mov r8, r8)
 80010b8:	08006b70 	.word	0x08006b70
 80010bc:	08006b74 	.word	0x08006b74

080010c0 <bridge_start_rx>:

/* HAL helpers — guard + call, return true if no HAL present (no-op). */

static bool bridge_start_rx(sent_bridge_t* b) {
 80010c0:	b580      	push	{r7, lr}
 80010c2:	b082      	sub	sp, #8
 80010c4:	af00      	add	r7, sp, #0
 80010c6:	6078      	str	r0, [r7, #4]
    if (!b->has_rx_hal || b->rx_hal.start_rx == NULL) {
 80010c8:	687b      	ldr	r3, [r7, #4]
 80010ca:	2240      	movs	r2, #64	@ 0x40
 80010cc:	5c9b      	ldrb	r3, [r3, r2]
 80010ce:	2201      	movs	r2, #1
 80010d0:	4053      	eors	r3, r2
 80010d2:	b2db      	uxtb	r3, r3
 80010d4:	2b00      	cmp	r3, #0
 80010d6:	d103      	bne.n	80010e0 <bridge_start_rx+0x20>
 80010d8:	687b      	ldr	r3, [r7, #4]
 80010da:	6a5b      	ldr	r3, [r3, #36]	@ 0x24
 80010dc:	2b00      	cmp	r3, #0
 80010de:	d101      	bne.n	80010e4 <bridge_start_rx+0x24>
        return true;
 80010e0:	2301      	movs	r3, #1
 80010e2:	e006      	b.n	80010f2 <bridge_start_rx+0x32>
    }
    return b->rx_hal.start_rx(b->rx_hal.context);
 80010e4:	687b      	ldr	r3, [r7, #4]
 80010e6:	6a5a      	ldr	r2, [r3, #36]	@ 0x24
 80010e8:	687b      	ldr	r3, [r7, #4]
 80010ea:	6a1b      	ldr	r3, [r3, #32]
 80010ec:	0018      	movs	r0, r3
 80010ee:	4790      	blx	r2
 80010f0:	0003      	movs	r3, r0
}
 80010f2:	0018      	movs	r0, r3
 80010f4:	46bd      	mov	sp, r7
 80010f6:	b002      	add	sp, #8
 80010f8:	bd80      	pop	{r7, pc}

080010fa <bridge_stop_rx>:

static void bridge_stop_rx(sent_bridge_t* b) {
 80010fa:	b580      	push	{r7, lr}
 80010fc:	b082      	sub	sp, #8
 80010fe:	af00      	add	r7, sp, #0
 8001100:	6078      	str	r0, [r7, #4]
    if (b->has_rx_hal && b->rx_hal.stop_rx != NULL) {
 8001102:	687b      	ldr	r3, [r7, #4]
 8001104:	2240      	movs	r2, #64	@ 0x40
 8001106:	5c9b      	ldrb	r3, [r3, r2]
 8001108:	2b00      	cmp	r3, #0
 800110a:	d009      	beq.n	8001120 <bridge_stop_rx+0x26>
 800110c:	687b      	ldr	r3, [r7, #4]
 800110e:	6a9b      	ldr	r3, [r3, #40]	@ 0x28
 8001110:	2b00      	cmp	r3, #0
 8001112:	d005      	beq.n	8001120 <bridge_stop_rx+0x26>
        b->rx_hal.stop_rx(b->rx_hal.context);
 8001114:	687b      	ldr	r3, [r7, #4]
 8001116:	6a9a      	ldr	r2, [r3, #40]	@ 0x28
 8001118:	687b      	ldr	r3, [r7, #4]
 800111a:	6a1b      	ldr	r3, [r3, #32]
 800111c:	0018      	movs	r0, r3
 800111e:	4790      	blx	r2
    }
}
 8001120:	46c0      	nop			@ (mov r8, r8)
 8001122:	46bd      	mov	sp, r7
 8001124:	b002      	add	sp, #8
 8001126:	bd80      	pop	{r7, pc}

08001128 <bridge_start_tx>:

static bool bridge_start_tx(sent_bridge_t* b) {
 8001128:	b580      	push	{r7, lr}
 800112a:	b082      	sub	sp, #8
 800112c:	af00      	add	r7, sp, #0
 800112e:	6078      	str	r0, [r7, #4]
    if (!b->has_tx_hal || b->tx_hal.start_tx == NULL) {
 8001130:	687b      	ldr	r3, [r7, #4]
 8001132:	2241      	movs	r2, #65	@ 0x41
 8001134:	5c9b      	ldrb	r3, [r3, r2]
 8001136:	2201      	movs	r2, #1
 8001138:	4053      	eors	r3, r2
 800113a:	b2db      	uxtb	r3, r3
 800113c:	2b00      	cmp	r3, #0
 800113e:	d103      	bne.n	8001148 <bridge_start_tx+0x20>
 8001140:	687b      	ldr	r3, [r7, #4]
 8001142:	6b5b      	ldr	r3, [r3, #52]	@ 0x34
 8001144:	2b00      	cmp	r3, #0
 8001146:	d101      	bne.n	800114c <bridge_start_tx+0x24>
        return true;
 8001148:	2301      	movs	r3, #1
 800114a:	e006      	b.n	800115a <bridge_start_tx+0x32>
    }
    return b->tx_hal.start_tx(b->tx_hal.context);
 800114c:	687b      	ldr	r3, [r7, #4]
 800114e:	6b5a      	ldr	r2, [r3, #52]	@ 0x34
 8001150:	687b      	ldr	r3, [r7, #4]
 8001152:	6b1b      	ldr	r3, [r3, #48]	@ 0x30
 8001154:	0018      	movs	r0, r3
 8001156:	4790      	blx	r2
 8001158:	0003      	movs	r3, r0
}
 800115a:	0018      	movs	r0, r3
 800115c:	46bd      	mov	sp, r7
 800115e:	b002      	add	sp, #8
 8001160:	bd80      	pop	{r7, pc}

08001162 <bridge_stop_tx>:

static void bridge_stop_tx(sent_bridge_t* b) {
 8001162:	b580      	push	{r7, lr}
 8001164:	b082      	sub	sp, #8
 8001166:	af00      	add	r7, sp, #0
 8001168:	6078      	str	r0, [r7, #4]
    if (b->has_tx_hal && b->tx_hal.stop_tx != NULL) {
 800116a:	687b      	ldr	r3, [r7, #4]
 800116c:	2241      	movs	r2, #65	@ 0x41
 800116e:	5c9b      	ldrb	r3, [r3, r2]
 8001170:	2b00      	cmp	r3, #0
 8001172:	d009      	beq.n	8001188 <bridge_stop_tx+0x26>
 8001174:	687b      	ldr	r3, [r7, #4]
 8001176:	6b9b      	ldr	r3, [r3, #56]	@ 0x38
 8001178:	2b00      	cmp	r3, #0
 800117a:	d005      	beq.n	8001188 <bridge_stop_tx+0x26>
        b->tx_hal.stop_tx(b->tx_hal.context);
 800117c:	687b      	ldr	r3, [r7, #4]
 800117e:	6b9a      	ldr	r2, [r3, #56]	@ 0x38
 8001180:	687b      	ldr	r3, [r7, #4]
 8001182:	6b1b      	ldr	r3, [r3, #48]	@ 0x30
 8001184:	0018      	movs	r0, r3
 8001186:	4790      	blx	r2
    }
}
 8001188:	46c0      	nop			@ (mov r8, r8)
 800118a:	46bd      	mov	sp, r7
 800118c:	b002      	add	sp, #8
 800118e:	bd80      	pop	{r7, pc}

08001190 <bridge_stop_all>:

static void bridge_stop_all(sent_bridge_t* b) {
 8001190:	b580      	push	{r7, lr}
 8001192:	b082      	sub	sp, #8
 8001194:	af00      	add	r7, sp, #0
 8001196:	6078      	str	r0, [r7, #4]
    bridge_stop_rx(b);
 8001198:	687b      	ldr	r3, [r7, #4]
 800119a:	0018      	movs	r0, r3
 800119c:	f7ff ffad 	bl	80010fa <bridge_stop_rx>
    bridge_stop_tx(b);
 80011a0:	687b      	ldr	r3, [r7, #4]
 80011a2:	0018      	movs	r0, r3
 80011a4:	f7ff ffdd 	bl	8001162 <bridge_stop_tx>
}
 80011a8:	46c0      	nop			@ (mov r8, r8)
 80011aa:	46bd      	mov	sp, r7
 80011ac:	b002      	add	sp, #8
 80011ae:	bd80      	pop	{r7, pc}

080011b0 <pack_rx_can_frame>:
 * @param f      decoded SENT frame
 * @param order  nibble byte-order for packing
 * @param out    [out] CAN frame to populate */
static void pack_rx_can_frame(const sent_frame_t* f,
                               sent_nibble_order_t order,
                               sent_can_frame_t* out) {
 80011b0:	b590      	push	{r4, r7, lr}
 80011b2:	b087      	sub	sp, #28
 80011b4:	af00      	add	r7, sp, #0
 80011b6:	60f8      	str	r0, [r7, #12]
 80011b8:	607a      	str	r2, [r7, #4]
 80011ba:	240b      	movs	r4, #11
 80011bc:	193b      	adds	r3, r7, r4
 80011be:	1c0a      	adds	r2, r1, #0
 80011c0:	701a      	strb	r2, [r3, #0]
    uint32_t packed_data = sent_pack_nibbles(f->data_nibbles, f->data_nibbles_count, order);
 80011c2:	68fb      	ldr	r3, [r7, #12]
 80011c4:	1c58      	adds	r0, r3, #1
 80011c6:	68fb      	ldr	r3, [r7, #12]
 80011c8:	7a5b      	ldrb	r3, [r3, #9]
 80011ca:	0019      	movs	r1, r3
 80011cc:	193b      	adds	r3, r7, r4
 80011ce:	781b      	ldrb	r3, [r3, #0]
 80011d0:	001a      	movs	r2, r3
 80011d2:	f001 fdba 	bl	8002d4a <sent_pack_nibbles>
 80011d6:	0003      	movs	r3, r0
 80011d8:	617b      	str	r3, [r7, #20]
    uint16_t tick_x10 = f->tick_x10_us;
 80011da:	2412      	movs	r4, #18
 80011dc:	193b      	adds	r3, r7, r4
 80011de:	68fa      	ldr	r2, [r7, #12]
 80011e0:	8992      	ldrh	r2, [r2, #12]
 80011e2:	801a      	strh	r2, [r3, #0]

    memset(out, 0, sizeof(*out));
 80011e4:	687b      	ldr	r3, [r7, #4]
 80011e6:	2210      	movs	r2, #16
 80011e8:	2100      	movs	r1, #0
 80011ea:	0018      	movs	r0, r3
 80011ec:	f005 fc6d 	bl	8006aca <memset>
    out->id = SENT_CAN_ID_SENT_RX_FRAME;
 80011f0:	687b      	ldr	r3, [r7, #4]
 80011f2:	22a2      	movs	r2, #162	@ 0xa2
 80011f4:	00d2      	lsls	r2, r2, #3
 80011f6:	601a      	str	r2, [r3, #0]
    out->extended = false;
 80011f8:	687b      	ldr	r3, [r7, #4]
 80011fa:	2200      	movs	r2, #0
 80011fc:	711a      	strb	r2, [r3, #4]
    out->dlc = 8U;
 80011fe:	687b      	ldr	r3, [r7, #4]
 8001200:	2208      	movs	r2, #8
 8001202:	715a      	strb	r2, [r3, #5]
    out->data[0] = f->status;
 8001204:	68fb      	ldr	r3, [r7, #12]
 8001206:	781a      	ldrb	r2, [r3, #0]
 8001208:	687b      	ldr	r3, [r7, #4]
 800120a:	719a      	strb	r2, [r3, #6]
    out->data[1] = (uint8_t)((packed_data >> 24U) & 0xFFU);
 800120c:	697b      	ldr	r3, [r7, #20]
 800120e:	0e1b      	lsrs	r3, r3, #24
 8001210:	b2da      	uxtb	r2, r3
 8001212:	687b      	ldr	r3, [r7, #4]
 8001214:	71da      	strb	r2, [r3, #7]
    out->data[2] = (uint8_t)((packed_data >> 16U) & 0xFFU);
 8001216:	697b      	ldr	r3, [r7, #20]
 8001218:	0c1b      	lsrs	r3, r3, #16
 800121a:	b2da      	uxtb	r2, r3
 800121c:	687b      	ldr	r3, [r7, #4]
 800121e:	721a      	strb	r2, [r3, #8]
    out->data[3] = (uint8_t)((packed_data >> 8U) & 0xFFU);
 8001220:	697b      	ldr	r3, [r7, #20]
 8001222:	0a1b      	lsrs	r3, r3, #8
 8001224:	b2da      	uxtb	r2, r3
 8001226:	687b      	ldr	r3, [r7, #4]
 8001228:	725a      	strb	r2, [r3, #9]
    out->data[4] = (uint8_t)(packed_data & 0xFFU);
 800122a:	697b      	ldr	r3, [r7, #20]
 800122c:	b2da      	uxtb	r2, r3
 800122e:	687b      	ldr	r3, [r7, #4]
 8001230:	729a      	strb	r2, [r3, #10]
    out->data[5] = f->crc;
 8001232:	68fb      	ldr	r3, [r7, #12]
 8001234:	7a9a      	ldrb	r2, [r3, #10]
 8001236:	687b      	ldr	r3, [r7, #4]
 8001238:	72da      	strb	r2, [r3, #11]
    out->data[6] = (uint8_t)(tick_x10 & 0xFFU);
 800123a:	193b      	adds	r3, r7, r4
 800123c:	881b      	ldrh	r3, [r3, #0]
 800123e:	b2da      	uxtb	r2, r3
 8001240:	687b      	ldr	r3, [r7, #4]
 8001242:	731a      	strb	r2, [r3, #12]
    out->data[7] = (uint8_t)((tick_x10 >> 8U) & 0xFFU);
 8001244:	193b      	adds	r3, r7, r4
 8001246:	881b      	ldrh	r3, [r3, #0]
 8001248:	0a1b      	lsrs	r3, r3, #8
 800124a:	b29b      	uxth	r3, r3
 800124c:	b2da      	uxtb	r2, r3
 800124e:	687b      	ldr	r3, [r7, #4]
 8001250:	735a      	strb	r2, [r3, #13]
}
 8001252:	46c0      	nop			@ (mov r8, r8)
 8001254:	46bd      	mov	sp, r7
 8001256:	b007      	add	sp, #28
 8001258:	bd90      	pop	{r4, r7, pc}

0800125a <handle_tx_can_frame>:

/* Unpack a CAN TX frame (ID 0x520) into a SENT frame and submit to TX HAL.
 * @param bridge  bridge instance
 * @param frame   CAN frame with packed SENT data (status, data, pause ticks)
 * @return        true if frame was submitted to TX HAL */
static bool handle_tx_can_frame(sent_bridge_t* bridge, const sent_can_frame_t* frame) {
 800125a:	b590      	push	{r4, r7, lr}
 800125c:	b08b      	sub	sp, #44	@ 0x2c
 800125e:	af00      	add	r7, sp, #0
 8001260:	6078      	str	r0, [r7, #4]
 8001262:	6039      	str	r1, [r7, #0]
    SENT_ASSERT(bridge != NULL && frame != NULL);
 8001264:	687b      	ldr	r3, [r7, #4]
 8001266:	2b00      	cmp	r3, #0
 8001268:	d002      	beq.n	8001270 <handle_tx_can_frame+0x16>
 800126a:	683b      	ldr	r3, [r7, #0]
 800126c:	2b00      	cmp	r3, #0
 800126e:	d102      	bne.n	8001276 <handle_tx_can_frame+0x1c>
 8001270:	be00      	bkpt	0x0000
 8001272:	46c0      	nop			@ (mov r8, r8)
 8001274:	e7fd      	b.n	8001272 <handle_tx_can_frame+0x18>
    if (!bridge->config_valid || !sent_mode_manager_is_tx(&bridge->mode_manager) || !bridge->has_tx_hal ||
 8001276:	687b      	ldr	r3, [r7, #4]
 8001278:	7a1b      	ldrb	r3, [r3, #8]
 800127a:	2201      	movs	r2, #1
 800127c:	4053      	eors	r3, r2
 800127e:	b2db      	uxtb	r3, r3
 8001280:	2b00      	cmp	r3, #0
 8001282:	d117      	bne.n	80012b4 <handle_tx_can_frame+0x5a>
 8001284:	687b      	ldr	r3, [r7, #4]
 8001286:	330c      	adds	r3, #12
 8001288:	0018      	movs	r0, r3
 800128a:	f7ff fe9c 	bl	8000fc6 <sent_mode_manager_is_tx>
 800128e:	0003      	movs	r3, r0
 8001290:	001a      	movs	r2, r3
 8001292:	2301      	movs	r3, #1
 8001294:	4053      	eors	r3, r2
 8001296:	b2db      	uxtb	r3, r3
 8001298:	2b00      	cmp	r3, #0
 800129a:	d10b      	bne.n	80012b4 <handle_tx_can_frame+0x5a>
 800129c:	687b      	ldr	r3, [r7, #4]
 800129e:	2241      	movs	r2, #65	@ 0x41
 80012a0:	5c9b      	ldrb	r3, [r3, r2]
 80012a2:	2201      	movs	r2, #1
 80012a4:	4053      	eors	r3, r2
 80012a6:	b2db      	uxtb	r3, r3
 80012a8:	2b00      	cmp	r3, #0
 80012aa:	d103      	bne.n	80012b4 <handle_tx_can_frame+0x5a>
        bridge->tx_hal.submit_frame == NULL) {
 80012ac:	687b      	ldr	r3, [r7, #4]
 80012ae:	6bdb      	ldr	r3, [r3, #60]	@ 0x3c
    if (!bridge->config_valid || !sent_mode_manager_is_tx(&bridge->mode_manager) || !bridge->has_tx_hal ||
 80012b0:	2b00      	cmp	r3, #0
 80012b2:	d101      	bne.n	80012b8 <handle_tx_can_frame+0x5e>
        return false;
 80012b4:	2300      	movs	r3, #0
 80012b6:	e059      	b.n	800136c <handle_tx_can_frame+0x112>
    }
    if (frame->dlc < 5U) {
 80012b8:	683b      	ldr	r3, [r7, #0]
 80012ba:	795b      	ldrb	r3, [r3, #5]
 80012bc:	2b04      	cmp	r3, #4
 80012be:	d801      	bhi.n	80012c4 <handle_tx_can_frame+0x6a>
        return false;
 80012c0:	2300      	movs	r3, #0
 80012c2:	e053      	b.n	800136c <handle_tx_can_frame+0x112>
    }

    sent_frame_t tx_frame;
    memset(&tx_frame, 0, sizeof(tx_frame));
 80012c4:	240c      	movs	r4, #12
 80012c6:	193b      	adds	r3, r7, r4
 80012c8:	2212      	movs	r2, #18
 80012ca:	2100      	movs	r1, #0
 80012cc:	0018      	movs	r0, r3
 80012ce:	f005 fbfc 	bl	8006aca <memset>
    tx_frame.status = (uint8_t)(frame->data[0] & 0x0FU);
 80012d2:	683b      	ldr	r3, [r7, #0]
 80012d4:	799b      	ldrb	r3, [r3, #6]
 80012d6:	220f      	movs	r2, #15
 80012d8:	4013      	ands	r3, r2
 80012da:	b2da      	uxtb	r2, r3
 80012dc:	0020      	movs	r0, r4
 80012de:	183b      	adds	r3, r7, r0
 80012e0:	701a      	strb	r2, [r3, #0]
    tx_frame.data_nibbles_count = bridge->config.data_nibbles;
 80012e2:	687b      	ldr	r3, [r7, #4]
 80012e4:	781a      	ldrb	r2, [r3, #0]
 80012e6:	183b      	adds	r3, r7, r0
 80012e8:	725a      	strb	r2, [r3, #9]

    uint32_t packed = ((uint32_t)frame->data[1] << 24U) |
 80012ea:	683b      	ldr	r3, [r7, #0]
 80012ec:	79db      	ldrb	r3, [r3, #7]
 80012ee:	061a      	lsls	r2, r3, #24
                      ((uint32_t)frame->data[2] << 16U) |
 80012f0:	683b      	ldr	r3, [r7, #0]
 80012f2:	7a1b      	ldrb	r3, [r3, #8]
 80012f4:	041b      	lsls	r3, r3, #16
    uint32_t packed = ((uint32_t)frame->data[1] << 24U) |
 80012f6:	431a      	orrs	r2, r3
                      ((uint32_t)frame->data[3] << 8U) |
 80012f8:	683b      	ldr	r3, [r7, #0]
 80012fa:	7a5b      	ldrb	r3, [r3, #9]
 80012fc:	021b      	lsls	r3, r3, #8
                      ((uint32_t)frame->data[2] << 16U) |
 80012fe:	4313      	orrs	r3, r2
                      (uint32_t)frame->data[4];
 8001300:	683a      	ldr	r2, [r7, #0]
 8001302:	7a92      	ldrb	r2, [r2, #10]
    uint32_t packed = ((uint32_t)frame->data[1] << 24U) |
 8001304:	4313      	orrs	r3, r2
 8001306:	623b      	str	r3, [r7, #32]

    if (!sent_unpack_nibbles(packed,
 8001308:	687b      	ldr	r3, [r7, #4]
 800130a:	7819      	ldrb	r1, [r3, #0]
 800130c:	687b      	ldr	r3, [r7, #4]
 800130e:	789a      	ldrb	r2, [r3, #2]
 8001310:	183b      	adds	r3, r7, r0
 8001312:	3301      	adds	r3, #1
 8001314:	6a38      	ldr	r0, [r7, #32]
 8001316:	f001 fd68 	bl	8002dea <sent_unpack_nibbles>
 800131a:	0003      	movs	r3, r0
 800131c:	001a      	movs	r2, r3
 800131e:	2301      	movs	r3, #1
 8001320:	4053      	eors	r3, r2
 8001322:	b2db      	uxtb	r3, r3
 8001324:	2b00      	cmp	r3, #0
 8001326:	d001      	beq.n	800132c <handle_tx_can_frame+0xd2>
                             bridge->config.data_nibbles,
                             bridge->config.order,
                             tx_frame.data_nibbles)) {
        return false;
 8001328:	2300      	movs	r3, #0
 800132a:	e01f      	b.n	800136c <handle_tx_can_frame+0x112>
    }

    uint16_t pause_ticks = 12U;
 800132c:	2126      	movs	r1, #38	@ 0x26
 800132e:	187b      	adds	r3, r7, r1
 8001330:	220c      	movs	r2, #12
 8001332:	801a      	strh	r2, [r3, #0]
    if (frame->dlc >= 7U) {
 8001334:	683b      	ldr	r3, [r7, #0]
 8001336:	795b      	ldrb	r3, [r3, #5]
 8001338:	2b06      	cmp	r3, #6
 800133a:	d90b      	bls.n	8001354 <handle_tx_can_frame+0xfa>
        pause_ticks = (uint16_t)frame->data[5] | ((uint16_t)frame->data[6] << 8U);
 800133c:	683b      	ldr	r3, [r7, #0]
 800133e:	7adb      	ldrb	r3, [r3, #11]
 8001340:	b21a      	sxth	r2, r3
 8001342:	683b      	ldr	r3, [r7, #0]
 8001344:	7b1b      	ldrb	r3, [r3, #12]
 8001346:	b21b      	sxth	r3, r3
 8001348:	021b      	lsls	r3, r3, #8
 800134a:	b21b      	sxth	r3, r3
 800134c:	4313      	orrs	r3, r2
 800134e:	b21a      	sxth	r2, r3
 8001350:	187b      	adds	r3, r7, r1
 8001352:	801a      	strh	r2, [r3, #0]
    }

    return bridge->tx_hal.submit_frame(bridge->tx_hal.context, &tx_frame, &bridge->config, pause_ticks);
 8001354:	687b      	ldr	r3, [r7, #4]
 8001356:	6bdc      	ldr	r4, [r3, #60]	@ 0x3c
 8001358:	687b      	ldr	r3, [r7, #4]
 800135a:	6b18      	ldr	r0, [r3, #48]	@ 0x30
 800135c:	687a      	ldr	r2, [r7, #4]
 800135e:	2326      	movs	r3, #38	@ 0x26
 8001360:	18fb      	adds	r3, r7, r3
 8001362:	881b      	ldrh	r3, [r3, #0]
 8001364:	210c      	movs	r1, #12
 8001366:	1879      	adds	r1, r7, r1
 8001368:	47a0      	blx	r4
 800136a:	0003      	movs	r3, r0
}
 800136c:	0018      	movs	r0, r3
 800136e:	46bd      	mov	sp, r7
 8001370:	b00b      	add	sp, #44	@ 0x2c
 8001372:	bd90      	pop	{r4, r7, pc}

08001374 <handle_cmd_start_rx>:

/* Per-command handlers — each returns true on success. */

static bool handle_cmd_start_rx(sent_bridge_t* b) {
 8001374:	b5b0      	push	{r4, r5, r7, lr}
 8001376:	b084      	sub	sp, #16
 8001378:	af00      	add	r7, sp, #0
 800137a:	6078      	str	r0, [r7, #4]
    if (!b->config_valid) {
 800137c:	687b      	ldr	r3, [r7, #4]
 800137e:	7a1b      	ldrb	r3, [r3, #8]
 8001380:	2201      	movs	r2, #1
 8001382:	4053      	eors	r3, r2
 8001384:	b2db      	uxtb	r3, r3
 8001386:	2b00      	cmp	r3, #0
 8001388:	d001      	beq.n	800138e <handle_cmd_start_rx+0x1a>
        return false;
 800138a:	2300      	movs	r3, #0
 800138c:	e017      	b.n	80013be <handle_cmd_start_rx+0x4a>
    }
    bool ok = bridge_start_rx(b);
 800138e:	250f      	movs	r5, #15
 8001390:	197c      	adds	r4, r7, r5
 8001392:	687b      	ldr	r3, [r7, #4]
 8001394:	0018      	movs	r0, r3
 8001396:	f7ff fe93 	bl	80010c0 <bridge_start_rx>
 800139a:	0003      	movs	r3, r0
 800139c:	7023      	strb	r3, [r4, #0]
    if (ok) {
 800139e:	197b      	adds	r3, r7, r5
 80013a0:	781b      	ldrb	r3, [r3, #0]
 80013a2:	2b00      	cmp	r3, #0
 80013a4:	d008      	beq.n	80013b8 <handle_cmd_start_rx+0x44>
        bridge_stop_tx(b);
 80013a6:	687b      	ldr	r3, [r7, #4]
 80013a8:	0018      	movs	r0, r3
 80013aa:	f7ff feda 	bl	8001162 <bridge_stop_tx>
        sent_mode_manager_start_rx(&b->mode_manager);
 80013ae:	687b      	ldr	r3, [r7, #4]
 80013b0:	330c      	adds	r3, #12
 80013b2:	0018      	movs	r0, r3
 80013b4:	f001 f8b8 	bl	8002528 <sent_mode_manager_start_rx>
    }
    return ok;
 80013b8:	230f      	movs	r3, #15
 80013ba:	18fb      	adds	r3, r7, r3
 80013bc:	781b      	ldrb	r3, [r3, #0]
}
 80013be:	0018      	movs	r0, r3
 80013c0:	46bd      	mov	sp, r7
 80013c2:	b004      	add	sp, #16
 80013c4:	bdb0      	pop	{r4, r5, r7, pc}

080013c6 <handle_cmd_start_tx>:

static bool handle_cmd_start_tx(sent_bridge_t* b) {
 80013c6:	b5b0      	push	{r4, r5, r7, lr}
 80013c8:	b084      	sub	sp, #16
 80013ca:	af00      	add	r7, sp, #0
 80013cc:	6078      	str	r0, [r7, #4]
    if (!b->config_valid) {
 80013ce:	687b      	ldr	r3, [r7, #4]
 80013d0:	7a1b      	ldrb	r3, [r3, #8]
 80013d2:	2201      	movs	r2, #1
 80013d4:	4053      	eors	r3, r2
 80013d6:	b2db      	uxtb	r3, r3
 80013d8:	2b00      	cmp	r3, #0
 80013da:	d001      	beq.n	80013e0 <handle_cmd_start_tx+0x1a>
        return false;
 80013dc:	2300      	movs	r3, #0
 80013de:	e017      	b.n	8001410 <handle_cmd_start_tx+0x4a>
    }
    bool ok = bridge_start_tx(b);
 80013e0:	250f      	movs	r5, #15
 80013e2:	197c      	adds	r4, r7, r5
 80013e4:	687b      	ldr	r3, [r7, #4]
 80013e6:	0018      	movs	r0, r3
 80013e8:	f7ff fe9e 	bl	8001128 <bridge_start_tx>
 80013ec:	0003      	movs	r3, r0
 80013ee:	7023      	strb	r3, [r4, #0]
    if (ok) {
 80013f0:	197b      	adds	r3, r7, r5
 80013f2:	781b      	ldrb	r3, [r3, #0]
 80013f4:	2b00      	cmp	r3, #0
 80013f6:	d008      	beq.n	800140a <handle_cmd_start_tx+0x44>
        bridge_stop_rx(b);
 80013f8:	687b      	ldr	r3, [r7, #4]
 80013fa:	0018      	movs	r0, r3
 80013fc:	f7ff fe7d 	bl	80010fa <bridge_stop_rx>
        sent_mode_manager_start_tx(&b->mode_manager);
 8001400:	687b      	ldr	r3, [r7, #4]
 8001402:	330c      	adds	r3, #12
 8001404:	0018      	movs	r0, r3
 8001406:	f001 f8a0 	bl	800254a <sent_mode_manager_start_tx>
    }
    return ok;
 800140a:	230f      	movs	r3, #15
 800140c:	18fb      	adds	r3, r7, r3
 800140e:	781b      	ldrb	r3, [r3, #0]
}
 8001410:	0018      	movs	r0, r3
 8001412:	46bd      	mov	sp, r7
 8001414:	b004      	add	sp, #16
 8001416:	bdb0      	pop	{r4, r5, r7, pc}

08001418 <handle_cmd_stop>:

static bool handle_cmd_stop(sent_bridge_t* b) {
 8001418:	b580      	push	{r7, lr}
 800141a:	b082      	sub	sp, #8
 800141c:	af00      	add	r7, sp, #0
 800141e:	6078      	str	r0, [r7, #4]
    bridge_stop_all(b);
 8001420:	687b      	ldr	r3, [r7, #4]
 8001422:	0018      	movs	r0, r3
 8001424:	f7ff feb4 	bl	8001190 <bridge_stop_all>
    b->learn.active = false;
 8001428:	687b      	ldr	r3, [r7, #4]
 800142a:	2242      	movs	r2, #66	@ 0x42
 800142c:	2100      	movs	r1, #0
 800142e:	5499      	strb	r1, [r3, r2]
    sent_mode_manager_stop(&b->mode_manager);
 8001430:	687b      	ldr	r3, [r7, #4]
 8001432:	330c      	adds	r3, #12
 8001434:	0018      	movs	r0, r3
 8001436:	f001 f899 	bl	800256c <sent_mode_manager_stop>
    return true;
 800143a:	2301      	movs	r3, #1
}
 800143c:	0018      	movs	r0, r3
 800143e:	46bd      	mov	sp, r7
 8001440:	b002      	add	sp, #8
 8001442:	bd80      	pop	{r7, pc}

08001444 <handle_cmd_learn_tick>:

static bool handle_cmd_learn_tick(sent_bridge_t* b) {
 8001444:	b5b0      	push	{r4, r5, r7, lr}
 8001446:	b084      	sub	sp, #16
 8001448:	af00      	add	r7, sp, #0
 800144a:	6078      	str	r0, [r7, #4]
    memset(&b->learn, 0, sizeof(b->learn));
 800144c:	687b      	ldr	r3, [r7, #4]
 800144e:	3342      	adds	r3, #66	@ 0x42
 8001450:	2210      	movs	r2, #16
 8001452:	2100      	movs	r1, #0
 8001454:	0018      	movs	r0, r3
 8001456:	f005 fb38 	bl	8006aca <memset>
    b->learn.saved_config = b->config;
 800145a:	687b      	ldr	r3, [r7, #4]
 800145c:	687a      	ldr	r2, [r7, #4]
 800145e:	3344      	adds	r3, #68	@ 0x44
 8001460:	ca03      	ldmia	r2!, {r0, r1}
 8001462:	c303      	stmia	r3!, {r0, r1}
    b->config.min_tick_x10_us = SENT_BRIDGE_LEARN_MIN_TICK_X10;
 8001464:	687b      	ldr	r3, [r7, #4]
 8001466:	2214      	movs	r2, #20
 8001468:	809a      	strh	r2, [r3, #4]
    b->config.max_tick_x10_us = SENT_BRIDGE_LEARN_MAX_TICK_X10;
 800146a:	687b      	ldr	r3, [r7, #4]
 800146c:	22e1      	movs	r2, #225	@ 0xe1
 800146e:	0092      	lsls	r2, r2, #2
 8001470:	80da      	strh	r2, [r3, #6]
    b->config_valid = sent_validate_config(&b->config);
 8001472:	687b      	ldr	r3, [r7, #4]
 8001474:	0018      	movs	r0, r3
 8001476:	f001 fc3f 	bl	8002cf8 <sent_validate_config>
 800147a:	0003      	movs	r3, r0
 800147c:	001a      	movs	r2, r3
 800147e:	687b      	ldr	r3, [r7, #4]
 8001480:	721a      	strb	r2, [r3, #8]
    if (!b->config_valid) {
 8001482:	687b      	ldr	r3, [r7, #4]
 8001484:	7a1b      	ldrb	r3, [r3, #8]
 8001486:	2201      	movs	r2, #1
 8001488:	4053      	eors	r3, r2
 800148a:	b2db      	uxtb	r3, r3
 800148c:	2b00      	cmp	r3, #0
 800148e:	d00e      	beq.n	80014ae <handle_cmd_learn_tick+0x6a>
        b->config = b->learn.saved_config;
 8001490:	687a      	ldr	r2, [r7, #4]
 8001492:	687b      	ldr	r3, [r7, #4]
 8001494:	3344      	adds	r3, #68	@ 0x44
 8001496:	cb03      	ldmia	r3!, {r0, r1}
 8001498:	c203      	stmia	r2!, {r0, r1}
        b->config_valid = sent_validate_config(&b->config);
 800149a:	687b      	ldr	r3, [r7, #4]
 800149c:	0018      	movs	r0, r3
 800149e:	f001 fc2b 	bl	8002cf8 <sent_validate_config>
 80014a2:	0003      	movs	r3, r0
 80014a4:	001a      	movs	r2, r3
 80014a6:	687b      	ldr	r3, [r7, #4]
 80014a8:	721a      	strb	r2, [r3, #8]
        return false;
 80014aa:	2300      	movs	r3, #0
 80014ac:	e029      	b.n	8001502 <handle_cmd_learn_tick+0xbe>
    }
    bool ok = bridge_start_rx(b);
 80014ae:	250f      	movs	r5, #15
 80014b0:	197c      	adds	r4, r7, r5
 80014b2:	687b      	ldr	r3, [r7, #4]
 80014b4:	0018      	movs	r0, r3
 80014b6:	f7ff fe03 	bl	80010c0 <bridge_start_rx>
 80014ba:	0003      	movs	r3, r0
 80014bc:	7023      	strb	r3, [r4, #0]
    if (ok) {
 80014be:	197b      	adds	r3, r7, r5
 80014c0:	781b      	ldrb	r3, [r3, #0]
 80014c2:	2b00      	cmp	r3, #0
 80014c4:	d00d      	beq.n	80014e2 <handle_cmd_learn_tick+0x9e>
        bridge_stop_tx(b);
 80014c6:	687b      	ldr	r3, [r7, #4]
 80014c8:	0018      	movs	r0, r3
 80014ca:	f7ff fe4a 	bl	8001162 <bridge_stop_tx>
        b->learn.active = true;
 80014ce:	687b      	ldr	r3, [r7, #4]
 80014d0:	2242      	movs	r2, #66	@ 0x42
 80014d2:	2101      	movs	r1, #1
 80014d4:	5499      	strb	r1, [r3, r2]
        sent_mode_manager_start_rx(&b->mode_manager);
 80014d6:	687b      	ldr	r3, [r7, #4]
 80014d8:	330c      	adds	r3, #12
 80014da:	0018      	movs	r0, r3
 80014dc:	f001 f824 	bl	8002528 <sent_mode_manager_start_rx>
 80014e0:	e00c      	b.n	80014fc <handle_cmd_learn_tick+0xb8>
    } else {
        b->config = b->learn.saved_config;
 80014e2:	687a      	ldr	r2, [r7, #4]
 80014e4:	687b      	ldr	r3, [r7, #4]
 80014e6:	3344      	adds	r3, #68	@ 0x44
 80014e8:	cb03      	ldmia	r3!, {r0, r1}
 80014ea:	c203      	stmia	r2!, {r0, r1}
        b->config_valid = sent_validate_config(&b->config);
 80014ec:	687b      	ldr	r3, [r7, #4]
 80014ee:	0018      	movs	r0, r3
 80014f0:	f001 fc02 	bl	8002cf8 <sent_validate_config>
 80014f4:	0003      	movs	r3, r0
 80014f6:	001a      	movs	r2, r3
 80014f8:	687b      	ldr	r3, [r7, #4]
 80014fa:	721a      	strb	r2, [r3, #8]
    }
    return ok;
 80014fc:	230f      	movs	r3, #15
 80014fe:	18fb      	adds	r3, r7, r3
 8001500:	781b      	ldrb	r3, [r3, #0]
}
 8001502:	0018      	movs	r0, r3
 8001504:	46bd      	mov	sp, r7
 8001506:	b004      	add	sp, #16
 8001508:	bdb0      	pop	{r4, r5, r7, pc}

0800150a <sent_bridge_init>:
 * @param rx_hal  RX HAL interface (NULL if RX not used)
 * @param tx_hal  TX HAL interface (NULL if TX not used) */
void sent_bridge_init(sent_bridge_t* bridge,
                      const sent_config_t* config,
                      const sent_rx_hal_t* rx_hal,
                      const sent_tx_hal_t* tx_hal) {
 800150a:	b590      	push	{r4, r7, lr}
 800150c:	b087      	sub	sp, #28
 800150e:	af00      	add	r7, sp, #0
 8001510:	6178      	str	r0, [r7, #20]
 8001512:	6139      	str	r1, [r7, #16]
 8001514:	60fa      	str	r2, [r7, #12]
 8001516:	60bb      	str	r3, [r7, #8]
    SENT_ASSERT(bridge != NULL);
 8001518:	697b      	ldr	r3, [r7, #20]
 800151a:	2b00      	cmp	r3, #0
 800151c:	d102      	bne.n	8001524 <sent_bridge_init+0x1a>
 800151e:	be00      	bkpt	0x0000
 8001520:	46c0      	nop			@ (mov r8, r8)
 8001522:	e7fd      	b.n	8001520 <sent_bridge_init+0x16>

    memset(bridge, 0, sizeof(*bridge));
 8001524:	697b      	ldr	r3, [r7, #20]
 8001526:	2254      	movs	r2, #84	@ 0x54
 8001528:	2100      	movs	r1, #0
 800152a:	0018      	movs	r0, r3
 800152c:	f005 facd 	bl	8006aca <memset>
    bridge->config = config != NULL ? *config : sent_default_config();
 8001530:	693b      	ldr	r3, [r7, #16]
 8001532:	2b00      	cmp	r3, #0
 8001534:	d008      	beq.n	8001548 <sent_bridge_init+0x3e>
 8001536:	697a      	ldr	r2, [r7, #20]
 8001538:	693b      	ldr	r3, [r7, #16]
 800153a:	0010      	movs	r0, r2
 800153c:	0019      	movs	r1, r3
 800153e:	2308      	movs	r3, #8
 8001540:	001a      	movs	r2, r3
 8001542:	f005 faef 	bl	8006b24 <memcpy>
 8001546:	e00b      	b.n	8001560 <sent_bridge_init+0x56>
 8001548:	697c      	ldr	r4, [r7, #20]
 800154a:	003b      	movs	r3, r7
 800154c:	0018      	movs	r0, r3
 800154e:	f001 fbaf 	bl	8002cb0 <sent_default_config>
 8001552:	003b      	movs	r3, r7
 8001554:	0020      	movs	r0, r4
 8001556:	0019      	movs	r1, r3
 8001558:	2308      	movs	r3, #8
 800155a:	001a      	movs	r2, r3
 800155c:	f005 fae2 	bl	8006b24 <memcpy>
    bridge->config_valid = sent_validate_config(&bridge->config);
 8001560:	697b      	ldr	r3, [r7, #20]
 8001562:	0018      	movs	r0, r3
 8001564:	f001 fbc8 	bl	8002cf8 <sent_validate_config>
 8001568:	0003      	movs	r3, r0
 800156a:	001a      	movs	r2, r3
 800156c:	697b      	ldr	r3, [r7, #20]
 800156e:	721a      	strb	r2, [r3, #8]
    sent_mode_manager_init(&bridge->mode_manager);
 8001570:	697b      	ldr	r3, [r7, #20]
 8001572:	330c      	adds	r3, #12
 8001574:	0018      	movs	r0, r3
 8001576:	f000 ffbf 	bl	80024f8 <sent_mode_manager_init>

    if (rx_hal != NULL) {
 800157a:	68fb      	ldr	r3, [r7, #12]
 800157c:	2b00      	cmp	r3, #0
 800157e:	d00a      	beq.n	8001596 <sent_bridge_init+0x8c>
        bridge->rx_hal = *rx_hal;
 8001580:	697b      	ldr	r3, [r7, #20]
 8001582:	68fa      	ldr	r2, [r7, #12]
 8001584:	3320      	adds	r3, #32
 8001586:	ca13      	ldmia	r2!, {r0, r1, r4}
 8001588:	c313      	stmia	r3!, {r0, r1, r4}
 800158a:	6812      	ldr	r2, [r2, #0]
 800158c:	601a      	str	r2, [r3, #0]
        bridge->has_rx_hal = true;
 800158e:	697b      	ldr	r3, [r7, #20]
 8001590:	2240      	movs	r2, #64	@ 0x40
 8001592:	2101      	movs	r1, #1
 8001594:	5499      	strb	r1, [r3, r2]
    }
    if (tx_hal != NULL) {
 8001596:	68bb      	ldr	r3, [r7, #8]
 8001598:	2b00      	cmp	r3, #0
 800159a:	d00a      	beq.n	80015b2 <sent_bridge_init+0xa8>
        bridge->tx_hal = *tx_hal;
 800159c:	697b      	ldr	r3, [r7, #20]
 800159e:	68ba      	ldr	r2, [r7, #8]
 80015a0:	3330      	adds	r3, #48	@ 0x30
 80015a2:	ca13      	ldmia	r2!, {r0, r1, r4}
 80015a4:	c313      	stmia	r3!, {r0, r1, r4}
 80015a6:	6812      	ldr	r2, [r2, #0]
 80015a8:	601a      	str	r2, [r3, #0]
        bridge->has_tx_hal = true;
 80015aa:	697b      	ldr	r3, [r7, #20]
 80015ac:	2241      	movs	r2, #65	@ 0x41
 80015ae:	2101      	movs	r1, #1
 80015b0:	5499      	strb	r1, [r3, r2]
    }
}
 80015b2:	46c0      	nop			@ (mov r8, r8)
 80015b4:	46bd      	mov	sp, r7
 80015b6:	b007      	add	sp, #28
 80015b8:	bd90      	pop	{r4, r7, pc}
	...

080015bc <sent_bridge_on_slcan_line>:
 * @param line           null-terminated SLCAN command string
 * @param out_responses  [out] response lines to send back over USB
 * @return               true if command was processed */
bool sent_bridge_on_slcan_line(sent_bridge_t* bridge,
                               const char* line,
                               sent_bridge_slcan_responses_t* out_responses) {
 80015bc:	b5b0      	push	{r4, r5, r7, lr}
 80015be:	b08c      	sub	sp, #48	@ 0x30
 80015c0:	af00      	add	r7, sp, #0
 80015c2:	60f8      	str	r0, [r7, #12]
 80015c4:	60b9      	str	r1, [r7, #8]
 80015c6:	607a      	str	r2, [r7, #4]
    SENT_ASSERT(bridge != NULL && line != NULL && out_responses != NULL);
 80015c8:	68fb      	ldr	r3, [r7, #12]
 80015ca:	2b00      	cmp	r3, #0
 80015cc:	d005      	beq.n	80015da <sent_bridge_on_slcan_line+0x1e>
 80015ce:	68bb      	ldr	r3, [r7, #8]
 80015d0:	2b00      	cmp	r3, #0
 80015d2:	d002      	beq.n	80015da <sent_bridge_on_slcan_line+0x1e>
 80015d4:	687b      	ldr	r3, [r7, #4]
 80015d6:	2b00      	cmp	r3, #0
 80015d8:	d102      	bne.n	80015e0 <sent_bridge_on_slcan_line+0x24>
 80015da:	be00      	bkpt	0x0000
 80015dc:	46c0      	nop			@ (mov r8, r8)
 80015de:	e7fd      	b.n	80015dc <sent_bridge_on_slcan_line+0x20>

    memset(out_responses, 0, sizeof(*out_responses));
 80015e0:	687b      	ldr	r3, [r7, #4]
 80015e2:	2247      	movs	r2, #71	@ 0x47
 80015e4:	2100      	movs	r1, #0
 80015e6:	0018      	movs	r0, r3
 80015e8:	f005 fa6f 	bl	8006aca <memset>

    sent_slcan_command_t parsed;
    if (!sent_slcan_parse_line(line, &parsed)) {
 80015ec:	2310      	movs	r3, #16
 80015ee:	18fa      	adds	r2, r7, r3
 80015f0:	68bb      	ldr	r3, [r7, #8]
 80015f2:	0011      	movs	r1, r2
 80015f4:	0018      	movs	r0, r3
 80015f6:	f001 fd66 	bl	80030c6 <sent_slcan_parse_line>
 80015fa:	0003      	movs	r3, r0
 80015fc:	001a      	movs	r2, r3
 80015fe:	2301      	movs	r3, #1
 8001600:	4053      	eors	r3, r2
 8001602:	b2db      	uxtb	r3, r3
 8001604:	2b00      	cmp	r3, #0
 8001606:	d001      	beq.n	800160c <sent_bridge_on_slcan_line+0x50>
        return false;
 8001608:	2300      	movs	r3, #0
 800160a:	e0cb      	b.n	80017a4 <sent_bridge_on_slcan_line+0x1e8>
    }

    if (parsed.type == SENT_SLCAN_CMD_OPEN || parsed.type == SENT_SLCAN_CMD_CLOSE) {
 800160c:	2210      	movs	r2, #16
 800160e:	18bb      	adds	r3, r7, r2
 8001610:	781b      	ldrb	r3, [r3, #0]
 8001612:	2b00      	cmp	r3, #0
 8001614:	d003      	beq.n	800161e <sent_bridge_on_slcan_line+0x62>
 8001616:	18bb      	adds	r3, r7, r2
 8001618:	781b      	ldrb	r3, [r3, #0]
 800161a:	2b01      	cmp	r3, #1
 800161c:	d107      	bne.n	800162e <sent_bridge_on_slcan_line+0x72>
        response_push(out_responses, "\r");
 800161e:	4a63      	ldr	r2, [pc, #396]	@ (80017ac <sent_bridge_on_slcan_line+0x1f0>)
 8001620:	687b      	ldr	r3, [r7, #4]
 8001622:	0011      	movs	r1, r2
 8001624:	0018      	movs	r0, r3
 8001626:	f7ff fcdf 	bl	8000fe8 <response_push>
        return true;
 800162a:	2301      	movs	r3, #1
 800162c:	e0ba      	b.n	80017a4 <sent_bridge_on_slcan_line+0x1e8>
    }
    if (parsed.type == SENT_SLCAN_CMD_VERSION) {
 800162e:	2310      	movs	r3, #16
 8001630:	18fb      	adds	r3, r7, r3
 8001632:	781b      	ldrb	r3, [r3, #0]
 8001634:	2b02      	cmp	r3, #2
 8001636:	d107      	bne.n	8001648 <sent_bridge_on_slcan_line+0x8c>
        response_push(out_responses, "V0101\r");
 8001638:	4a5d      	ldr	r2, [pc, #372]	@ (80017b0 <sent_bridge_on_slcan_line+0x1f4>)
 800163a:	687b      	ldr	r3, [r7, #4]
 800163c:	0011      	movs	r1, r2
 800163e:	0018      	movs	r0, r3
 8001640:	f7ff fcd2 	bl	8000fe8 <response_push>
        return true;
 8001644:	2301      	movs	r3, #1
 8001646:	e0ad      	b.n	80017a4 <sent_bridge_on_slcan_line+0x1e8>
    }
    if (parsed.type == SENT_SLCAN_CMD_SERIAL) {
 8001648:	2310      	movs	r3, #16
 800164a:	18fb      	adds	r3, r7, r3
 800164c:	781b      	ldrb	r3, [r3, #0]
 800164e:	2b03      	cmp	r3, #3
 8001650:	d107      	bne.n	8001662 <sent_bridge_on_slcan_line+0xa6>
        response_push(out_responses, "N0001\r");
 8001652:	4a58      	ldr	r2, [pc, #352]	@ (80017b4 <sent_bridge_on_slcan_line+0x1f8>)
 8001654:	687b      	ldr	r3, [r7, #4]
 8001656:	0011      	movs	r1, r2
 8001658:	0018      	movs	r0, r3
 800165a:	f7ff fcc5 	bl	8000fe8 <response_push>
        return true;
 800165e:	2301      	movs	r3, #1
 8001660:	e0a0      	b.n	80017a4 <sent_bridge_on_slcan_line+0x1e8>
    }
    if (parsed.type == SENT_SLCAN_CMD_UNSUPPORTED || parsed.type == SENT_SLCAN_CMD_INVALID) {
 8001662:	2210      	movs	r2, #16
 8001664:	18bb      	adds	r3, r7, r2
 8001666:	781b      	ldrb	r3, [r3, #0]
 8001668:	2b05      	cmp	r3, #5
 800166a:	d003      	beq.n	8001674 <sent_bridge_on_slcan_line+0xb8>
 800166c:	18bb      	adds	r3, r7, r2
 800166e:	781b      	ldrb	r3, [r3, #0]
 8001670:	2b06      	cmp	r3, #6
 8001672:	d107      	bne.n	8001684 <sent_bridge_on_slcan_line+0xc8>
        response_push(out_responses, "\a");
 8001674:	4a50      	ldr	r2, [pc, #320]	@ (80017b8 <sent_bridge_on_slcan_line+0x1fc>)
 8001676:	687b      	ldr	r3, [r7, #4]
 8001678:	0011      	movs	r1, r2
 800167a:	0018      	movs	r0, r3
 800167c:	f7ff fcb4 	bl	8000fe8 <response_push>
        return true;
 8001680:	2301      	movs	r3, #1
 8001682:	e08f      	b.n	80017a4 <sent_bridge_on_slcan_line+0x1e8>
    }

    if (!parsed.has_frame) {
 8001684:	2310      	movs	r3, #16
 8001686:	18fb      	adds	r3, r7, r3
 8001688:	785b      	ldrb	r3, [r3, #1]
 800168a:	2201      	movs	r2, #1
 800168c:	4053      	eors	r3, r2
 800168e:	b2db      	uxtb	r3, r3
 8001690:	2b00      	cmp	r3, #0
 8001692:	d007      	beq.n	80016a4 <sent_bridge_on_slcan_line+0xe8>
        response_push(out_responses, "\a");
 8001694:	4a48      	ldr	r2, [pc, #288]	@ (80017b8 <sent_bridge_on_slcan_line+0x1fc>)
 8001696:	687b      	ldr	r3, [r7, #4]
 8001698:	0011      	movs	r1, r2
 800169a:	0018      	movs	r0, r3
 800169c:	f7ff fca4 	bl	8000fe8 <response_push>
        return true;
 80016a0:	2301      	movs	r3, #1
 80016a2:	e07f      	b.n	80017a4 <sent_bridge_on_slcan_line+0x1e8>
    }

    const sent_can_frame_t* frame = &parsed.frame;
 80016a4:	2310      	movs	r3, #16
 80016a6:	18fb      	adds	r3, r7, r3
 80016a8:	3304      	adds	r3, #4
 80016aa:	62bb      	str	r3, [r7, #40]	@ 0x28
    if (frame->id == SENT_CAN_ID_SENT_CONTROL && frame->dlc >= 1U) {
 80016ac:	6abb      	ldr	r3, [r7, #40]	@ 0x28
 80016ae:	681a      	ldr	r2, [r3, #0]
 80016b0:	23c0      	movs	r3, #192	@ 0xc0
 80016b2:	00db      	lsls	r3, r3, #3
 80016b4:	429a      	cmp	r2, r3
 80016b6:	d151      	bne.n	800175c <sent_bridge_on_slcan_line+0x1a0>
 80016b8:	6abb      	ldr	r3, [r7, #40]	@ 0x28
 80016ba:	795b      	ldrb	r3, [r3, #5]
 80016bc:	2b00      	cmp	r3, #0
 80016be:	d04d      	beq.n	800175c <sent_bridge_on_slcan_line+0x1a0>
        uint8_t command = frame->data[0];
 80016c0:	2127      	movs	r1, #39	@ 0x27
 80016c2:	187b      	adds	r3, r7, r1
 80016c4:	6aba      	ldr	r2, [r7, #40]	@ 0x28
 80016c6:	7992      	ldrb	r2, [r2, #6]
 80016c8:	701a      	strb	r2, [r3, #0]
        bool ok;

        if (command == SENT_BRIDGE_CMD_START_RX) {
 80016ca:	187b      	adds	r3, r7, r1
 80016cc:	781b      	ldrb	r3, [r3, #0]
 80016ce:	2b01      	cmp	r3, #1
 80016d0:	d108      	bne.n	80016e4 <sent_bridge_on_slcan_line+0x128>
            ok = handle_cmd_start_rx(bridge);
 80016d2:	232f      	movs	r3, #47	@ 0x2f
 80016d4:	18fc      	adds	r4, r7, r3
 80016d6:	68fb      	ldr	r3, [r7, #12]
 80016d8:	0018      	movs	r0, r3
 80016da:	f7ff fe4b 	bl	8001374 <handle_cmd_start_rx>
 80016de:	0003      	movs	r3, r0
 80016e0:	7023      	strb	r3, [r4, #0]
 80016e2:	e02d      	b.n	8001740 <sent_bridge_on_slcan_line+0x184>
        } else if (command == SENT_BRIDGE_CMD_START_TX) {
 80016e4:	2327      	movs	r3, #39	@ 0x27
 80016e6:	18fb      	adds	r3, r7, r3
 80016e8:	781b      	ldrb	r3, [r3, #0]
 80016ea:	2b02      	cmp	r3, #2
 80016ec:	d108      	bne.n	8001700 <sent_bridge_on_slcan_line+0x144>
            ok = handle_cmd_start_tx(bridge);
 80016ee:	232f      	movs	r3, #47	@ 0x2f
 80016f0:	18fc      	adds	r4, r7, r3
 80016f2:	68fb      	ldr	r3, [r7, #12]
 80016f4:	0018      	movs	r0, r3
 80016f6:	f7ff fe66 	bl	80013c6 <handle_cmd_start_tx>
 80016fa:	0003      	movs	r3, r0
 80016fc:	7023      	strb	r3, [r4, #0]
 80016fe:	e01f      	b.n	8001740 <sent_bridge_on_slcan_line+0x184>
        } else if (command == SENT_BRIDGE_CMD_STOP) {
 8001700:	2327      	movs	r3, #39	@ 0x27
 8001702:	18fb      	adds	r3, r7, r3
 8001704:	781b      	ldrb	r3, [r3, #0]
 8001706:	2b03      	cmp	r3, #3
 8001708:	d108      	bne.n	800171c <sent_bridge_on_slcan_line+0x160>
            ok = handle_cmd_stop(bridge);
 800170a:	232f      	movs	r3, #47	@ 0x2f
 800170c:	18fc      	adds	r4, r7, r3
 800170e:	68fb      	ldr	r3, [r7, #12]
 8001710:	0018      	movs	r0, r3
 8001712:	f7ff fe81 	bl	8001418 <handle_cmd_stop>
 8001716:	0003      	movs	r3, r0
 8001718:	7023      	strb	r3, [r4, #0]
 800171a:	e011      	b.n	8001740 <sent_bridge_on_slcan_line+0x184>
        } else if (command == SENT_BRIDGE_CMD_LEARN_TICK) {
 800171c:	2327      	movs	r3, #39	@ 0x27
 800171e:	18fb      	adds	r3, r7, r3
 8001720:	781b      	ldrb	r3, [r3, #0]
 8001722:	2b04      	cmp	r3, #4
 8001724:	d108      	bne.n	8001738 <sent_bridge_on_slcan_line+0x17c>
            ok = handle_cmd_learn_tick(bridge);
 8001726:	232f      	movs	r3, #47	@ 0x2f
 8001728:	18fc      	adds	r4, r7, r3
 800172a:	68fb      	ldr	r3, [r7, #12]
 800172c:	0018      	movs	r0, r3
 800172e:	f7ff fe89 	bl	8001444 <handle_cmd_learn_tick>
 8001732:	0003      	movs	r3, r0
 8001734:	7023      	strb	r3, [r4, #0]
 8001736:	e003      	b.n	8001740 <sent_bridge_on_slcan_line+0x184>
        } else {
            ok = false;
 8001738:	232f      	movs	r3, #47	@ 0x2f
 800173a:	18fb      	adds	r3, r7, r3
 800173c:	2200      	movs	r2, #0
 800173e:	701a      	strb	r2, [r3, #0]
        }

        response_push(out_responses, ack_line(ok));
 8001740:	232f      	movs	r3, #47	@ 0x2f
 8001742:	18fb      	adds	r3, r7, r3
 8001744:	781b      	ldrb	r3, [r3, #0]
 8001746:	0018      	movs	r0, r3
 8001748:	f7ff fca4 	bl	8001094 <ack_line>
 800174c:	0002      	movs	r2, r0
 800174e:	687b      	ldr	r3, [r7, #4]
 8001750:	0011      	movs	r1, r2
 8001752:	0018      	movs	r0, r3
 8001754:	f7ff fc48 	bl	8000fe8 <response_push>
        return true;
 8001758:	2301      	movs	r3, #1
 800175a:	e023      	b.n	80017a4 <sent_bridge_on_slcan_line+0x1e8>
    }

    if (frame->id == SENT_CAN_ID_SENT_TX_FRAME) {
 800175c:	6abb      	ldr	r3, [r7, #40]	@ 0x28
 800175e:	681a      	ldr	r2, [r3, #0]
 8001760:	23a4      	movs	r3, #164	@ 0xa4
 8001762:	00db      	lsls	r3, r3, #3
 8001764:	429a      	cmp	r2, r3
 8001766:	d116      	bne.n	8001796 <sent_bridge_on_slcan_line+0x1da>
        bool ok = handle_tx_can_frame(bridge, frame);
 8001768:	2526      	movs	r5, #38	@ 0x26
 800176a:	197c      	adds	r4, r7, r5
 800176c:	6aba      	ldr	r2, [r7, #40]	@ 0x28
 800176e:	68fb      	ldr	r3, [r7, #12]
 8001770:	0011      	movs	r1, r2
 8001772:	0018      	movs	r0, r3
 8001774:	f7ff fd71 	bl	800125a <handle_tx_can_frame>
 8001778:	0003      	movs	r3, r0
 800177a:	7023      	strb	r3, [r4, #0]
        response_push(out_responses, ack_line(ok));
 800177c:	197b      	adds	r3, r7, r5
 800177e:	781b      	ldrb	r3, [r3, #0]
 8001780:	0018      	movs	r0, r3
 8001782:	f7ff fc87 	bl	8001094 <ack_line>
 8001786:	0002      	movs	r2, r0
 8001788:	687b      	ldr	r3, [r7, #4]
 800178a:	0011      	movs	r1, r2
 800178c:	0018      	movs	r0, r3
 800178e:	f7ff fc2b 	bl	8000fe8 <response_push>
        return true;
 8001792:	2301      	movs	r3, #1
 8001794:	e006      	b.n	80017a4 <sent_bridge_on_slcan_line+0x1e8>
    }

    response_push(out_responses, "\r");
 8001796:	4a05      	ldr	r2, [pc, #20]	@ (80017ac <sent_bridge_on_slcan_line+0x1f0>)
 8001798:	687b      	ldr	r3, [r7, #4]
 800179a:	0011      	movs	r1, r2
 800179c:	0018      	movs	r0, r3
 800179e:	f7ff fc23 	bl	8000fe8 <response_push>
    return true;
 80017a2:	2301      	movs	r3, #1
}
 80017a4:	0018      	movs	r0, r3
 80017a6:	46bd      	mov	sp, r7
 80017a8:	b00c      	add	sp, #48	@ 0x30
 80017aa:	bdb0      	pop	{r4, r5, r7, pc}
 80017ac:	08006b70 	.word	0x08006b70
 80017b0:	08006b78 	.word	0x08006b78
 80017b4:	08006b80 	.word	0x08006b80
 80017b8:	08006b74 	.word	0x08006b74

080017bc <bridge_try_learn>:
 * @param out_can_frame    [out] 0x601 result frame
 * @return                 true when a combo reached the required hit count */
static bool bridge_try_learn(sent_bridge_t* bridge,
                              const uint32_t* timestamps_us,
                              size_t timestamp_count,
                              sent_can_frame_t* out_can_frame) {
 80017bc:	b5f0      	push	{r4, r5, r6, r7, lr}
 80017be:	b091      	sub	sp, #68	@ 0x44
 80017c0:	af02      	add	r7, sp, #8
 80017c2:	60f8      	str	r0, [r7, #12]
 80017c4:	60b9      	str	r1, [r7, #8]
 80017c6:	607a      	str	r2, [r7, #4]
 80017c8:	603b      	str	r3, [r7, #0]
    for (uint8_t ni = 0U; ni < SENT_BRIDGE_LEARN_NIBBLE_COUNTS; ++ni) {
 80017ca:	2337      	movs	r3, #55	@ 0x37
 80017cc:	18fb      	adds	r3, r7, r3
 80017ce:	2200      	movs	r2, #0
 80017d0:	701a      	strb	r2, [r3, #0]
 80017d2:	e0f3      	b.n	80019bc <bridge_try_learn+0x200>
        for (uint8_t cm = 0U; cm < 2U; ++cm) {
 80017d4:	2336      	movs	r3, #54	@ 0x36
 80017d6:	18fb      	adds	r3, r7, r3
 80017d8:	2200      	movs	r2, #0
 80017da:	701a      	strb	r2, [r3, #0]
 80017dc:	e0e2      	b.n	80019a4 <bridge_try_learn+0x1e8>
            sent_config_t try_cfg = bridge->config;
 80017de:	2528      	movs	r5, #40	@ 0x28
 80017e0:	197b      	adds	r3, r7, r5
 80017e2:	68fa      	ldr	r2, [r7, #12]
 80017e4:	ca03      	ldmia	r2!, {r0, r1}
 80017e6:	c303      	stmia	r3!, {r0, r1}
            try_cfg.data_nibbles = k_learn_nibble_counts[ni];
 80017e8:	2637      	movs	r6, #55	@ 0x37
 80017ea:	19bb      	adds	r3, r7, r6
 80017ec:	781b      	ldrb	r3, [r3, #0]
 80017ee:	4a79      	ldr	r2, [pc, #484]	@ (80019d4 <bridge_try_learn+0x218>)
 80017f0:	5cd2      	ldrb	r2, [r2, r3]
 80017f2:	197b      	adds	r3, r7, r5
 80017f4:	701a      	strb	r2, [r3, #0]
            try_cfg.crc_mode = (sent_crc_mode_t)cm;
 80017f6:	197b      	adds	r3, r7, r5
 80017f8:	2236      	movs	r2, #54	@ 0x36
 80017fa:	18ba      	adds	r2, r7, r2
 80017fc:	7812      	ldrb	r2, [r2, #0]
 80017fe:	705a      	strb	r2, [r3, #1]
            if (!sent_validate_config(&try_cfg)) {
 8001800:	197b      	adds	r3, r7, r5
 8001802:	0018      	movs	r0, r3
 8001804:	f001 fa78 	bl	8002cf8 <sent_validate_config>
 8001808:	0003      	movs	r3, r0
 800180a:	001a      	movs	r2, r3
 800180c:	2301      	movs	r3, #1
 800180e:	4053      	eors	r3, r2
 8001810:	b2db      	uxtb	r3, r3
 8001812:	2b00      	cmp	r3, #0
 8001814:	d000      	beq.n	8001818 <bridge_try_learn+0x5c>
 8001816:	e0ba      	b.n	800198e <bridge_try_learn+0x1d2>
                continue;
            }

            sent_frame_t decoded;
            sent_decode_status_t status = SENT_DECODE_SYNC_ERROR;
 8001818:	2313      	movs	r3, #19
 800181a:	18fb      	adds	r3, r7, r3
 800181c:	2201      	movs	r2, #1
 800181e:	701a      	strb	r2, [r3, #0]
            if (!sent_decode_from_timestamps_us(&try_cfg, timestamps_us, timestamp_count, &decoded, &status)) {
 8001820:	2114      	movs	r1, #20
 8001822:	187c      	adds	r4, r7, r1
 8001824:	687a      	ldr	r2, [r7, #4]
 8001826:	68b9      	ldr	r1, [r7, #8]
 8001828:	1978      	adds	r0, r7, r5
 800182a:	2313      	movs	r3, #19
 800182c:	18fb      	adds	r3, r7, r3
 800182e:	9300      	str	r3, [sp, #0]
 8001830:	0023      	movs	r3, r4
 8001832:	f000 ffd1 	bl	80027d8 <sent_decode_from_timestamps_us>
 8001836:	0003      	movs	r3, r0
 8001838:	001a      	movs	r2, r3
 800183a:	2301      	movs	r3, #1
 800183c:	4053      	eors	r3, r2
 800183e:	b2db      	uxtb	r3, r3
 8001840:	2b00      	cmp	r3, #0
 8001842:	d000      	beq.n	8001846 <bridge_try_learn+0x8a>
 8001844:	e0a5      	b.n	8001992 <bridge_try_learn+0x1d6>
                continue;
            }

            bridge->learn.hits[ni][cm]++;
 8001846:	19bb      	adds	r3, r7, r6
 8001848:	781a      	ldrb	r2, [r3, #0]
 800184a:	2536      	movs	r5, #54	@ 0x36
 800184c:	197b      	adds	r3, r7, r5
 800184e:	781b      	ldrb	r3, [r3, #0]
 8001850:	68f8      	ldr	r0, [r7, #12]
 8001852:	244c      	movs	r4, #76	@ 0x4c
 8001854:	0051      	lsls	r1, r2, #1
 8001856:	1841      	adds	r1, r0, r1
 8001858:	18c9      	adds	r1, r1, r3
 800185a:	1909      	adds	r1, r1, r4
 800185c:	7809      	ldrb	r1, [r1, #0]
 800185e:	3101      	adds	r1, #1
 8001860:	b2cc      	uxtb	r4, r1
 8001862:	68f9      	ldr	r1, [r7, #12]
 8001864:	204c      	movs	r0, #76	@ 0x4c
 8001866:	0052      	lsls	r2, r2, #1
 8001868:	188a      	adds	r2, r1, r2
 800186a:	18d3      	adds	r3, r2, r3
 800186c:	181b      	adds	r3, r3, r0
 800186e:	1c22      	adds	r2, r4, #0
 8001870:	701a      	strb	r2, [r3, #0]
            if (bridge->learn.hits[ni][cm] < SENT_BRIDGE_LEARN_REQUIRED_HITS) {
 8001872:	19bb      	adds	r3, r7, r6
 8001874:	781a      	ldrb	r2, [r3, #0]
 8001876:	197b      	adds	r3, r7, r5
 8001878:	781b      	ldrb	r3, [r3, #0]
 800187a:	68f9      	ldr	r1, [r7, #12]
 800187c:	204c      	movs	r0, #76	@ 0x4c
 800187e:	0052      	lsls	r2, r2, #1
 8001880:	188a      	adds	r2, r1, r2
 8001882:	18d3      	adds	r3, r2, r3
 8001884:	181b      	adds	r3, r3, r0
 8001886:	781b      	ldrb	r3, [r3, #0]
 8001888:	2b02      	cmp	r3, #2
 800188a:	d800      	bhi.n	800188e <bridge_try_learn+0xd2>
 800188c:	e083      	b.n	8001996 <bridge_try_learn+0x1da>
                continue;
            }

            /* Enough hits — commit learned parameters. */
            bridge->learn.active = false;
 800188e:	68fb      	ldr	r3, [r7, #12]
 8001890:	2242      	movs	r2, #66	@ 0x42
 8001892:	2100      	movs	r1, #0
 8001894:	5499      	strb	r1, [r3, r2]

            uint16_t tick = decoded.tick_x10_us;
 8001896:	2434      	movs	r4, #52	@ 0x34
 8001898:	193b      	adds	r3, r7, r4
 800189a:	2114      	movs	r1, #20
 800189c:	187a      	adds	r2, r7, r1
 800189e:	8992      	ldrh	r2, [r2, #12]
 80018a0:	801a      	strh	r2, [r3, #0]
            uint16_t margin = (uint16_t)((uint32_t)tick * SENT_BRIDGE_LEARN_MARGIN_PCT / 100U);
 80018a2:	193b      	adds	r3, r7, r4
 80018a4:	881a      	ldrh	r2, [r3, #0]
 80018a6:	0013      	movs	r3, r2
 80018a8:	009b      	lsls	r3, r3, #2
 80018aa:	189b      	adds	r3, r3, r2
 80018ac:	009b      	lsls	r3, r3, #2
 80018ae:	2164      	movs	r1, #100	@ 0x64
 80018b0:	0018      	movs	r0, r3
 80018b2:	f7fe fc4f 	bl	8000154 <__udivsi3>
 80018b6:	0003      	movs	r3, r0
 80018b8:	001a      	movs	r2, r3
 80018ba:	2132      	movs	r1, #50	@ 0x32
 80018bc:	187b      	adds	r3, r7, r1
 80018be:	801a      	strh	r2, [r3, #0]

            bridge->learn.saved_config.min_tick_x10_us = (tick > margin) ? (uint16_t)(tick - margin) : 1U;
 80018c0:	193a      	adds	r2, r7, r4
 80018c2:	187b      	adds	r3, r7, r1
 80018c4:	8812      	ldrh	r2, [r2, #0]
 80018c6:	881b      	ldrh	r3, [r3, #0]
 80018c8:	429a      	cmp	r2, r3
 80018ca:	d906      	bls.n	80018da <bridge_try_learn+0x11e>
 80018cc:	193a      	adds	r2, r7, r4
 80018ce:	187b      	adds	r3, r7, r1
 80018d0:	8812      	ldrh	r2, [r2, #0]
 80018d2:	881b      	ldrh	r3, [r3, #0]
 80018d4:	1ad3      	subs	r3, r2, r3
 80018d6:	b29a      	uxth	r2, r3
 80018d8:	e000      	b.n	80018dc <bridge_try_learn+0x120>
 80018da:	2201      	movs	r2, #1
 80018dc:	68fb      	ldr	r3, [r7, #12]
 80018de:	2148      	movs	r1, #72	@ 0x48
 80018e0:	525a      	strh	r2, [r3, r1]
            bridge->learn.saved_config.max_tick_x10_us = tick + margin;
 80018e2:	2434      	movs	r4, #52	@ 0x34
 80018e4:	193a      	adds	r2, r7, r4
 80018e6:	2332      	movs	r3, #50	@ 0x32
 80018e8:	18fb      	adds	r3, r7, r3
 80018ea:	8812      	ldrh	r2, [r2, #0]
 80018ec:	881b      	ldrh	r3, [r3, #0]
 80018ee:	18d3      	adds	r3, r2, r3
 80018f0:	b299      	uxth	r1, r3
 80018f2:	68fb      	ldr	r3, [r7, #12]
 80018f4:	224a      	movs	r2, #74	@ 0x4a
 80018f6:	5299      	strh	r1, [r3, r2]
            bridge->learn.saved_config.data_nibbles = k_learn_nibble_counts[ni];
 80018f8:	2537      	movs	r5, #55	@ 0x37
 80018fa:	197b      	adds	r3, r7, r5
 80018fc:	781b      	ldrb	r3, [r3, #0]
 80018fe:	4a35      	ldr	r2, [pc, #212]	@ (80019d4 <bridge_try_learn+0x218>)
 8001900:	5cd1      	ldrb	r1, [r2, r3]
 8001902:	68fb      	ldr	r3, [r7, #12]
 8001904:	2244      	movs	r2, #68	@ 0x44
 8001906:	5499      	strb	r1, [r3, r2]
            bridge->learn.saved_config.crc_mode = (sent_crc_mode_t)cm;
 8001908:	68fb      	ldr	r3, [r7, #12]
 800190a:	2636      	movs	r6, #54	@ 0x36
 800190c:	19ba      	adds	r2, r7, r6
 800190e:	2145      	movs	r1, #69	@ 0x45
 8001910:	7812      	ldrb	r2, [r2, #0]
 8001912:	545a      	strb	r2, [r3, r1]
            bridge->config = bridge->learn.saved_config;
 8001914:	68fa      	ldr	r2, [r7, #12]
 8001916:	68fb      	ldr	r3, [r7, #12]
 8001918:	3344      	adds	r3, #68	@ 0x44
 800191a:	cb03      	ldmia	r3!, {r0, r1}
 800191c:	c203      	stmia	r2!, {r0, r1}
            bridge->config_valid = sent_validate_config(&bridge->config);
 800191e:	68fb      	ldr	r3, [r7, #12]
 8001920:	0018      	movs	r0, r3
 8001922:	f001 f9e9 	bl	8002cf8 <sent_validate_config>
 8001926:	0003      	movs	r3, r0
 8001928:	001a      	movs	r2, r3
 800192a:	68fb      	ldr	r3, [r7, #12]
 800192c:	721a      	strb	r2, [r3, #8]

            bridge_stop_rx(bridge);
 800192e:	68fb      	ldr	r3, [r7, #12]
 8001930:	0018      	movs	r0, r3
 8001932:	f7ff fbe2 	bl	80010fa <bridge_stop_rx>
            sent_mode_manager_stop(&bridge->mode_manager);
 8001936:	68fb      	ldr	r3, [r7, #12]
 8001938:	330c      	adds	r3, #12
 800193a:	0018      	movs	r0, r3
 800193c:	f000 fe16 	bl	800256c <sent_mode_manager_stop>

            memset(out_can_frame, 0, sizeof(*out_can_frame));
 8001940:	683b      	ldr	r3, [r7, #0]
 8001942:	2210      	movs	r2, #16
 8001944:	2100      	movs	r1, #0
 8001946:	0018      	movs	r0, r3
 8001948:	f005 f8bf 	bl	8006aca <memset>
            out_can_frame->id = SENT_CAN_ID_SENT_ACK;
 800194c:	683b      	ldr	r3, [r7, #0]
 800194e:	4a22      	ldr	r2, [pc, #136]	@ (80019d8 <bridge_try_learn+0x21c>)
 8001950:	601a      	str	r2, [r3, #0]
            out_can_frame->extended = false;
 8001952:	683b      	ldr	r3, [r7, #0]
 8001954:	2200      	movs	r2, #0
 8001956:	711a      	strb	r2, [r3, #4]
            out_can_frame->dlc = 4U;
 8001958:	683b      	ldr	r3, [r7, #0]
 800195a:	2204      	movs	r2, #4
 800195c:	715a      	strb	r2, [r3, #5]
            out_can_frame->data[0] = (uint8_t)(tick & 0xFFU);
 800195e:	193b      	adds	r3, r7, r4
 8001960:	881b      	ldrh	r3, [r3, #0]
 8001962:	b2da      	uxtb	r2, r3
 8001964:	683b      	ldr	r3, [r7, #0]
 8001966:	719a      	strb	r2, [r3, #6]
            out_can_frame->data[1] = (uint8_t)((tick >> 8U) & 0xFFU);
 8001968:	193b      	adds	r3, r7, r4
 800196a:	881b      	ldrh	r3, [r3, #0]
 800196c:	0a1b      	lsrs	r3, r3, #8
 800196e:	b29b      	uxth	r3, r3
 8001970:	b2da      	uxtb	r2, r3
 8001972:	683b      	ldr	r3, [r7, #0]
 8001974:	71da      	strb	r2, [r3, #7]
            out_can_frame->data[2] = k_learn_nibble_counts[ni];
 8001976:	197b      	adds	r3, r7, r5
 8001978:	781b      	ldrb	r3, [r3, #0]
 800197a:	4a16      	ldr	r2, [pc, #88]	@ (80019d4 <bridge_try_learn+0x218>)
 800197c:	5cd2      	ldrb	r2, [r2, r3]
 800197e:	683b      	ldr	r3, [r7, #0]
 8001980:	721a      	strb	r2, [r3, #8]
            out_can_frame->data[3] = cm;
 8001982:	683b      	ldr	r3, [r7, #0]
 8001984:	19ba      	adds	r2, r7, r6
 8001986:	7812      	ldrb	r2, [r2, #0]
 8001988:	725a      	strb	r2, [r3, #9]
            return true;
 800198a:	2301      	movs	r3, #1
 800198c:	e01d      	b.n	80019ca <bridge_try_learn+0x20e>
                continue;
 800198e:	46c0      	nop			@ (mov r8, r8)
 8001990:	e002      	b.n	8001998 <bridge_try_learn+0x1dc>
                continue;
 8001992:	46c0      	nop			@ (mov r8, r8)
 8001994:	e000      	b.n	8001998 <bridge_try_learn+0x1dc>
                continue;
 8001996:	46c0      	nop			@ (mov r8, r8)
        for (uint8_t cm = 0U; cm < 2U; ++cm) {
 8001998:	2236      	movs	r2, #54	@ 0x36
 800199a:	18bb      	adds	r3, r7, r2
 800199c:	18ba      	adds	r2, r7, r2
 800199e:	7812      	ldrb	r2, [r2, #0]
 80019a0:	3201      	adds	r2, #1
 80019a2:	701a      	strb	r2, [r3, #0]
 80019a4:	2336      	movs	r3, #54	@ 0x36
 80019a6:	18fb      	adds	r3, r7, r3
 80019a8:	781b      	ldrb	r3, [r3, #0]
 80019aa:	2b01      	cmp	r3, #1
 80019ac:	d800      	bhi.n	80019b0 <bridge_try_learn+0x1f4>
 80019ae:	e716      	b.n	80017de <bridge_try_learn+0x22>
    for (uint8_t ni = 0U; ni < SENT_BRIDGE_LEARN_NIBBLE_COUNTS; ++ni) {
 80019b0:	2237      	movs	r2, #55	@ 0x37
 80019b2:	18bb      	adds	r3, r7, r2
 80019b4:	18ba      	adds	r2, r7, r2
 80019b6:	7812      	ldrb	r2, [r2, #0]
 80019b8:	3201      	adds	r2, #1
 80019ba:	701a      	strb	r2, [r3, #0]
 80019bc:	2337      	movs	r3, #55	@ 0x37
 80019be:	18fb      	adds	r3, r7, r3
 80019c0:	781b      	ldrb	r3, [r3, #0]
 80019c2:	2b02      	cmp	r3, #2
 80019c4:	d800      	bhi.n	80019c8 <bridge_try_learn+0x20c>
 80019c6:	e705      	b.n	80017d4 <bridge_try_learn+0x18>
        }
    }
    return false;
 80019c8:	2300      	movs	r3, #0
}
 80019ca:	0018      	movs	r0, r3
 80019cc:	46bd      	mov	sp, r7
 80019ce:	b00f      	add	sp, #60	@ 0x3c
 80019d0:	bdf0      	pop	{r4, r5, r6, r7, pc}
 80019d2:	46c0      	nop			@ (mov r8, r8)
 80019d4:	08006b98 	.word	0x08006b98
 80019d8:	00000601 	.word	0x00000601

080019dc <sent_bridge_on_sent_timestamps_us>:
 * @param out_can_frame    [out] CAN frame with decoded SENT data
 * @return                 true if a valid frame was decoded */
bool sent_bridge_on_sent_timestamps_us(sent_bridge_t* bridge,
                                       const uint32_t* timestamps_us,
                                       size_t timestamp_count,
                                       sent_can_frame_t* out_can_frame) {
 80019dc:	b5b0      	push	{r4, r5, r7, lr}
 80019de:	b08c      	sub	sp, #48	@ 0x30
 80019e0:	af02      	add	r7, sp, #8
 80019e2:	60f8      	str	r0, [r7, #12]
 80019e4:	60b9      	str	r1, [r7, #8]
 80019e6:	607a      	str	r2, [r7, #4]
 80019e8:	603b      	str	r3, [r7, #0]
    SENT_ASSERT(bridge != NULL && timestamps_us != NULL && out_can_frame != NULL);
 80019ea:	68fb      	ldr	r3, [r7, #12]
 80019ec:	2b00      	cmp	r3, #0
 80019ee:	d005      	beq.n	80019fc <sent_bridge_on_sent_timestamps_us+0x20>
 80019f0:	68bb      	ldr	r3, [r7, #8]
 80019f2:	2b00      	cmp	r3, #0
 80019f4:	d002      	beq.n	80019fc <sent_bridge_on_sent_timestamps_us+0x20>
 80019f6:	683b      	ldr	r3, [r7, #0]
 80019f8:	2b00      	cmp	r3, #0
 80019fa:	d102      	bne.n	8001a02 <sent_bridge_on_sent_timestamps_us+0x26>
 80019fc:	be00      	bkpt	0x0000
 80019fe:	46c0      	nop			@ (mov r8, r8)
 8001a00:	e7fd      	b.n	80019fe <sent_bridge_on_sent_timestamps_us+0x22>
    if (!bridge->config_valid || !sent_mode_manager_is_rx(&bridge->mode_manager)) {
 8001a02:	68fb      	ldr	r3, [r7, #12]
 8001a04:	7a1b      	ldrb	r3, [r3, #8]
 8001a06:	2201      	movs	r2, #1
 8001a08:	4053      	eors	r3, r2
 8001a0a:	b2db      	uxtb	r3, r3
 8001a0c:	2b00      	cmp	r3, #0
 8001a0e:	d10b      	bne.n	8001a28 <sent_bridge_on_sent_timestamps_us+0x4c>
 8001a10:	68fb      	ldr	r3, [r7, #12]
 8001a12:	330c      	adds	r3, #12
 8001a14:	0018      	movs	r0, r3
 8001a16:	f7ff fac5 	bl	8000fa4 <sent_mode_manager_is_rx>
 8001a1a:	0003      	movs	r3, r0
 8001a1c:	001a      	movs	r2, r3
 8001a1e:	2301      	movs	r3, #1
 8001a20:	4053      	eors	r3, r2
 8001a22:	b2db      	uxtb	r3, r3
 8001a24:	2b00      	cmp	r3, #0
 8001a26:	d001      	beq.n	8001a2c <sent_bridge_on_sent_timestamps_us+0x50>
        return false;
 8001a28:	2300      	movs	r3, #0
 8001a2a:	e040      	b.n	8001aae <sent_bridge_on_sent_timestamps_us+0xd2>
    }

    if (bridge->learn.active) {
 8001a2c:	68fb      	ldr	r3, [r7, #12]
 8001a2e:	2242      	movs	r2, #66	@ 0x42
 8001a30:	5c9b      	ldrb	r3, [r3, r2]
 8001a32:	2b00      	cmp	r3, #0
 8001a34:	d007      	beq.n	8001a46 <sent_bridge_on_sent_timestamps_us+0x6a>
        return bridge_try_learn(bridge, timestamps_us, timestamp_count, out_can_frame);
 8001a36:	683b      	ldr	r3, [r7, #0]
 8001a38:	687a      	ldr	r2, [r7, #4]
 8001a3a:	68b9      	ldr	r1, [r7, #8]
 8001a3c:	68f8      	ldr	r0, [r7, #12]
 8001a3e:	f7ff febd 	bl	80017bc <bridge_try_learn>
 8001a42:	0003      	movs	r3, r0
 8001a44:	e033      	b.n	8001aae <sent_bridge_on_sent_timestamps_us+0xd2>
    }

    sent_frame_t decoded;
    sent_decode_status_t decode_status = SENT_DECODE_SYNC_ERROR;
 8001a46:	2513      	movs	r5, #19
 8001a48:	197b      	adds	r3, r7, r5
 8001a4a:	2201      	movs	r2, #1
 8001a4c:	701a      	strb	r2, [r3, #0]
    if (!sent_decode_from_timestamps_us(&bridge->config, timestamps_us, timestamp_count, &decoded, &decode_status)) {
 8001a4e:	68f8      	ldr	r0, [r7, #12]
 8001a50:	2314      	movs	r3, #20
 8001a52:	18fc      	adds	r4, r7, r3
 8001a54:	687a      	ldr	r2, [r7, #4]
 8001a56:	68b9      	ldr	r1, [r7, #8]
 8001a58:	197b      	adds	r3, r7, r5
 8001a5a:	9300      	str	r3, [sp, #0]
 8001a5c:	0023      	movs	r3, r4
 8001a5e:	f000 febb 	bl	80027d8 <sent_decode_from_timestamps_us>
 8001a62:	0003      	movs	r3, r0
 8001a64:	001a      	movs	r2, r3
 8001a66:	2301      	movs	r3, #1
 8001a68:	4053      	eors	r3, r2
 8001a6a:	b2db      	uxtb	r3, r3
 8001a6c:	2b00      	cmp	r3, #0
 8001a6e:	d010      	beq.n	8001a92 <sent_bridge_on_sent_timestamps_us+0xb6>
        if (decode_status == SENT_DECODE_CRC_ERROR) {
 8001a70:	197b      	adds	r3, r7, r5
 8001a72:	781b      	ldrb	r3, [r3, #0]
 8001a74:	2b02      	cmp	r3, #2
 8001a76:	d105      	bne.n	8001a84 <sent_bridge_on_sent_timestamps_us+0xa8>
            bridge->mode_manager.stats.crc_errors++;
 8001a78:	68fb      	ldr	r3, [r7, #12]
 8001a7a:	695b      	ldr	r3, [r3, #20]
 8001a7c:	1c5a      	adds	r2, r3, #1
 8001a7e:	68fb      	ldr	r3, [r7, #12]
 8001a80:	615a      	str	r2, [r3, #20]
 8001a82:	e004      	b.n	8001a8e <sent_bridge_on_sent_timestamps_us+0xb2>
        } else {
            bridge->mode_manager.stats.sync_errors++;
 8001a84:	68fb      	ldr	r3, [r7, #12]
 8001a86:	699b      	ldr	r3, [r3, #24]
 8001a88:	1c5a      	adds	r2, r3, #1
 8001a8a:	68fb      	ldr	r3, [r7, #12]
 8001a8c:	619a      	str	r2, [r3, #24]
        }
        return false;
 8001a8e:	2300      	movs	r3, #0
 8001a90:	e00d      	b.n	8001aae <sent_bridge_on_sent_timestamps_us+0xd2>
    }

    bridge->mode_manager.stats.frames_decoded++;
 8001a92:	68fb      	ldr	r3, [r7, #12]
 8001a94:	691b      	ldr	r3, [r3, #16]
 8001a96:	1c5a      	adds	r2, r3, #1
 8001a98:	68fb      	ldr	r3, [r7, #12]
 8001a9a:	611a      	str	r2, [r3, #16]
    pack_rx_can_frame(&decoded, bridge->config.order, out_can_frame);
 8001a9c:	68fb      	ldr	r3, [r7, #12]
 8001a9e:	7899      	ldrb	r1, [r3, #2]
 8001aa0:	683a      	ldr	r2, [r7, #0]
 8001aa2:	2314      	movs	r3, #20
 8001aa4:	18fb      	adds	r3, r7, r3
 8001aa6:	0018      	movs	r0, r3
 8001aa8:	f7ff fb82 	bl	80011b0 <pack_rx_can_frame>
    return true;
 8001aac:	2301      	movs	r3, #1
}
 8001aae:	0018      	movs	r0, r3
 8001ab0:	46bd      	mov	sp, r7
 8001ab2:	b00a      	add	sp, #40	@ 0x28
 8001ab4:	bdb0      	pop	{r4, r5, r7, pc}

08001ab6 <sent_bridge_poll_rx_hal>:

/* Poll RX HAL for a timestamp batch, decode it, and return as a CAN frame.
 * @param bridge         bridge instance
 * @param out_can_frame  [out] CAN frame (ID 0x510) with decoded SENT data
 * @return               true if a frame was available and decoded */
bool sent_bridge_poll_rx_hal(sent_bridge_t* bridge, sent_can_frame_t* out_can_frame) {
 8001ab6:	b590      	push	{r4, r7, lr}
 8001ab8:	b091      	sub	sp, #68	@ 0x44
 8001aba:	af00      	add	r7, sp, #0
 8001abc:	6078      	str	r0, [r7, #4]
 8001abe:	6039      	str	r1, [r7, #0]
    SENT_ASSERT(bridge != NULL && out_can_frame != NULL);
 8001ac0:	687b      	ldr	r3, [r7, #4]
 8001ac2:	2b00      	cmp	r3, #0
 8001ac4:	d002      	beq.n	8001acc <sent_bridge_poll_rx_hal+0x16>
 8001ac6:	683b      	ldr	r3, [r7, #0]
 8001ac8:	2b00      	cmp	r3, #0
 8001aca:	d102      	bne.n	8001ad2 <sent_bridge_poll_rx_hal+0x1c>
 8001acc:	be00      	bkpt	0x0000
 8001ace:	46c0      	nop			@ (mov r8, r8)
 8001ad0:	e7fd      	b.n	8001ace <sent_bridge_poll_rx_hal+0x18>
    if (!bridge->config_valid || !sent_mode_manager_is_rx(&bridge->mode_manager) ||
 8001ad2:	687b      	ldr	r3, [r7, #4]
 8001ad4:	7a1b      	ldrb	r3, [r3, #8]
 8001ad6:	2201      	movs	r2, #1
 8001ad8:	4053      	eors	r3, r2
 8001ada:	b2db      	uxtb	r3, r3
 8001adc:	2b00      	cmp	r3, #0
 8001ade:	d117      	bne.n	8001b10 <sent_bridge_poll_rx_hal+0x5a>
 8001ae0:	687b      	ldr	r3, [r7, #4]
 8001ae2:	330c      	adds	r3, #12
 8001ae4:	0018      	movs	r0, r3
 8001ae6:	f7ff fa5d 	bl	8000fa4 <sent_mode_manager_is_rx>
 8001aea:	0003      	movs	r3, r0
 8001aec:	001a      	movs	r2, r3
 8001aee:	2301      	movs	r3, #1
 8001af0:	4053      	eors	r3, r2
 8001af2:	b2db      	uxtb	r3, r3
 8001af4:	2b00      	cmp	r3, #0
 8001af6:	d10b      	bne.n	8001b10 <sent_bridge_poll_rx_hal+0x5a>
        !bridge->has_rx_hal || bridge->rx_hal.poll_timestamps_us == NULL) {
 8001af8:	687b      	ldr	r3, [r7, #4]
 8001afa:	2240      	movs	r2, #64	@ 0x40
 8001afc:	5c9b      	ldrb	r3, [r3, r2]
 8001afe:	2201      	movs	r2, #1
 8001b00:	4053      	eors	r3, r2
 8001b02:	b2db      	uxtb	r3, r3
    if (!bridge->config_valid || !sent_mode_manager_is_rx(&bridge->mode_manager) ||
 8001b04:	2b00      	cmp	r3, #0
 8001b06:	d103      	bne.n	8001b10 <sent_bridge_poll_rx_hal+0x5a>
        !bridge->has_rx_hal || bridge->rx_hal.poll_timestamps_us == NULL) {
 8001b08:	687b      	ldr	r3, [r7, #4]
 8001b0a:	6adb      	ldr	r3, [r3, #44]	@ 0x2c
 8001b0c:	2b00      	cmp	r3, #0
 8001b0e:	d101      	bne.n	8001b14 <sent_bridge_poll_rx_hal+0x5e>
        return false;
 8001b10:	2300      	movs	r3, #0
 8001b12:	e01c      	b.n	8001b4e <sent_bridge_poll_rx_hal+0x98>
    }

    uint32_t timestamps[SENT_MAX_TIMESTAMPS];
    size_t count = SENT_MAX_TIMESTAMPS;
 8001b14:	230d      	movs	r3, #13
 8001b16:	60bb      	str	r3, [r7, #8]
    if (!bridge->rx_hal.poll_timestamps_us(bridge->rx_hal.context, timestamps, &count)) {
 8001b18:	687b      	ldr	r3, [r7, #4]
 8001b1a:	6adc      	ldr	r4, [r3, #44]	@ 0x2c
 8001b1c:	687b      	ldr	r3, [r7, #4]
 8001b1e:	6a1b      	ldr	r3, [r3, #32]
 8001b20:	2208      	movs	r2, #8
 8001b22:	18ba      	adds	r2, r7, r2
 8001b24:	210c      	movs	r1, #12
 8001b26:	1879      	adds	r1, r7, r1
 8001b28:	0018      	movs	r0, r3
 8001b2a:	47a0      	blx	r4
 8001b2c:	0003      	movs	r3, r0
 8001b2e:	001a      	movs	r2, r3
 8001b30:	2301      	movs	r3, #1
 8001b32:	4053      	eors	r3, r2
 8001b34:	b2db      	uxtb	r3, r3
 8001b36:	2b00      	cmp	r3, #0
 8001b38:	d001      	beq.n	8001b3e <sent_bridge_poll_rx_hal+0x88>
        return false;
 8001b3a:	2300      	movs	r3, #0
 8001b3c:	e007      	b.n	8001b4e <sent_bridge_poll_rx_hal+0x98>
    }

    return sent_bridge_on_sent_timestamps_us(bridge, timestamps, count, out_can_frame);
 8001b3e:	68ba      	ldr	r2, [r7, #8]
 8001b40:	683b      	ldr	r3, [r7, #0]
 8001b42:	210c      	movs	r1, #12
 8001b44:	1879      	adds	r1, r7, r1
 8001b46:	6878      	ldr	r0, [r7, #4]
 8001b48:	f7ff ff48 	bl	80019dc <sent_bridge_on_sent_timestamps_us>
 8001b4c:	0003      	movs	r3, r0
}
 8001b4e:	0018      	movs	r0, r3
 8001b50:	46bd      	mov	sp, r7
 8001b52:	b011      	add	sp, #68	@ 0x44
 8001b54:	bd90      	pop	{r4, r7, pc}

08001b56 <queue_next_idx>:
#error "src/hal_stm32f042.c requires SENT_HAL_STM32F042 to be enabled."
#endif

#define TICKS_TO_US_Q12_SCALE 4096000000U  /* (1_000_000 << 12) */

static uint8_t queue_next_idx(uint8_t idx, uint8_t depth) {
 8001b56:	b580      	push	{r7, lr}
 8001b58:	b084      	sub	sp, #16
 8001b5a:	af00      	add	r7, sp, #0
 8001b5c:	0002      	movs	r2, r0
 8001b5e:	1dfb      	adds	r3, r7, #7
 8001b60:	701a      	strb	r2, [r3, #0]
 8001b62:	1dbb      	adds	r3, r7, #6
 8001b64:	1c0a      	adds	r2, r1, #0
 8001b66:	701a      	strb	r2, [r3, #0]
    uint8_t next = (uint8_t)(idx + 1U);
 8001b68:	210f      	movs	r1, #15
 8001b6a:	187b      	adds	r3, r7, r1
 8001b6c:	1dfa      	adds	r2, r7, #7
 8001b6e:	7812      	ldrb	r2, [r2, #0]
 8001b70:	3201      	adds	r2, #1
 8001b72:	701a      	strb	r2, [r3, #0]
    return (next >= depth) ? 0U : next;
 8001b74:	187a      	adds	r2, r7, r1
 8001b76:	1dbb      	adds	r3, r7, #6
 8001b78:	7812      	ldrb	r2, [r2, #0]
 8001b7a:	781b      	ldrb	r3, [r3, #0]
 8001b7c:	429a      	cmp	r2, r3
 8001b7e:	d202      	bcs.n	8001b86 <queue_next_idx+0x30>
 8001b80:	187b      	adds	r3, r7, r1
 8001b82:	781b      	ldrb	r3, [r3, #0]
 8001b84:	e000      	b.n	8001b88 <queue_next_idx+0x32>
 8001b86:	2300      	movs	r3, #0
}
 8001b88:	0018      	movs	r0, r3
 8001b8a:	46bd      	mov	sp, r7
 8001b8c:	b004      	add	sp, #16
 8001b8e:	bd80      	pop	{r7, pc}

08001b90 <rx_push_active_batch_from_isr>:
    return us;
}

/* Move the active timestamp buffer into the ready queue (called from ISR context).
 * @param hal  RX HAL instance with active_timestamps_us filled */
static void rx_push_active_batch_from_isr(sent_stm32f042_rx_hal_t* hal) {
 8001b90:	b5f0      	push	{r4, r5, r6, r7, lr}
 8001b92:	b085      	sub	sp, #20
 8001b94:	af00      	add	r7, sp, #0
 8001b96:	6078      	str	r0, [r7, #4]
    SENT_ASSERT(hal != NULL);
 8001b98:	687b      	ldr	r3, [r7, #4]
 8001b9a:	2b00      	cmp	r3, #0
 8001b9c:	d102      	bne.n	8001ba4 <rx_push_active_batch_from_isr+0x14>
 8001b9e:	be00      	bkpt	0x0000
 8001ba0:	46c0      	nop			@ (mov r8, r8)
 8001ba2:	e7fd      	b.n	8001ba0 <rx_push_active_batch_from_isr+0x10>
    if (hal->active_count == 0U) {
 8001ba4:	687b      	ldr	r3, [r7, #4]
 8001ba6:	22ca      	movs	r2, #202	@ 0xca
 8001ba8:	5c9b      	ldrb	r3, [r3, r2]
 8001baa:	2b00      	cmp	r3, #0
 8001bac:	d063      	beq.n	8001c76 <rx_push_active_batch_from_isr+0xe6>
        return;
    }

    uint8_t head = hal->ready_head;
 8001bae:	200e      	movs	r0, #14
 8001bb0:	183b      	adds	r3, r7, r0
 8001bb2:	687a      	ldr	r2, [r7, #4]
 8001bb4:	21c8      	movs	r1, #200	@ 0xc8
 8001bb6:	5c52      	ldrb	r2, [r2, r1]
 8001bb8:	701a      	strb	r2, [r3, #0]
    uint8_t tail = hal->ready_tail;
 8001bba:	250d      	movs	r5, #13
 8001bbc:	197b      	adds	r3, r7, r5
 8001bbe:	687a      	ldr	r2, [r7, #4]
 8001bc0:	21c9      	movs	r1, #201	@ 0xc9
 8001bc2:	5c52      	ldrb	r2, [r2, r1]
 8001bc4:	701a      	strb	r2, [r3, #0]
    uint8_t next_head = queue_next_idx(head, hal->config.ready_queue_depth);
 8001bc6:	687b      	ldr	r3, [r7, #4]
 8001bc8:	79da      	ldrb	r2, [r3, #7]
 8001bca:	260c      	movs	r6, #12
 8001bcc:	19bc      	adds	r4, r7, r6
 8001bce:	183b      	adds	r3, r7, r0
 8001bd0:	781b      	ldrb	r3, [r3, #0]
 8001bd2:	0011      	movs	r1, r2
 8001bd4:	0018      	movs	r0, r3
 8001bd6:	f7ff ffbe 	bl	8001b56 <queue_next_idx>
 8001bda:	0003      	movs	r3, r0
 8001bdc:	7023      	strb	r3, [r4, #0]

    if (next_head == tail) {
 8001bde:	19ba      	adds	r2, r7, r6
 8001be0:	197b      	adds	r3, r7, r5
 8001be2:	7812      	ldrb	r2, [r2, #0]
 8001be4:	781b      	ldrb	r3, [r3, #0]
 8001be6:	429a      	cmp	r2, r3
 8001be8:	d109      	bne.n	8001bfe <rx_push_active_batch_from_isr+0x6e>
        hal->dropped_batches++;
 8001bea:	687b      	ldr	r3, [r7, #4]
 8001bec:	68db      	ldr	r3, [r3, #12]
 8001bee:	1c5a      	adds	r2, r3, #1
 8001bf0:	687b      	ldr	r3, [r7, #4]
 8001bf2:	60da      	str	r2, [r3, #12]
        hal->active_count = 0U;
 8001bf4:	687b      	ldr	r3, [r7, #4]
 8001bf6:	22ca      	movs	r2, #202	@ 0xca
 8001bf8:	2100      	movs	r1, #0
 8001bfa:	5499      	strb	r1, [r3, r2]
        return;
 8001bfc:	e03c      	b.n	8001c78 <rx_push_active_batch_from_isr+0xe8>
    }

    sent_stm32f042_rx_batch_t* slot = &hal->ready_batches[head];
 8001bfe:	230e      	movs	r3, #14
 8001c00:	18fb      	adds	r3, r7, r3
 8001c02:	781a      	ldrb	r2, [r3, #0]
 8001c04:	0013      	movs	r3, r2
 8001c06:	00db      	lsls	r3, r3, #3
 8001c08:	1a9b      	subs	r3, r3, r2
 8001c0a:	00db      	lsls	r3, r3, #3
 8001c0c:	3358      	adds	r3, #88	@ 0x58
 8001c0e:	687a      	ldr	r2, [r7, #4]
 8001c10:	18d3      	adds	r3, r2, r3
 8001c12:	60bb      	str	r3, [r7, #8]
    slot->count = hal->active_count;
 8001c14:	687b      	ldr	r3, [r7, #4]
 8001c16:	22ca      	movs	r2, #202	@ 0xca
 8001c18:	5c99      	ldrb	r1, [r3, r2]
 8001c1a:	68bb      	ldr	r3, [r7, #8]
 8001c1c:	2234      	movs	r2, #52	@ 0x34
 8001c1e:	5499      	strb	r1, [r3, r2]
    for (uint8_t i = 0U; i < hal->active_count; ++i) {
 8001c20:	230f      	movs	r3, #15
 8001c22:	18fb      	adds	r3, r7, r3
 8001c24:	2200      	movs	r2, #0
 8001c26:	701a      	strb	r2, [r3, #0]
 8001c28:	e012      	b.n	8001c50 <rx_push_active_batch_from_isr+0xc0>
        slot->timestamps_us[i] = hal->active_timestamps_us[i];
 8001c2a:	200f      	movs	r0, #15
 8001c2c:	183b      	adds	r3, r7, r0
 8001c2e:	781b      	ldrb	r3, [r3, #0]
 8001c30:	183a      	adds	r2, r7, r0
 8001c32:	7812      	ldrb	r2, [r2, #0]
 8001c34:	6879      	ldr	r1, [r7, #4]
 8001c36:	3308      	adds	r3, #8
 8001c38:	009b      	lsls	r3, r3, #2
 8001c3a:	18cb      	adds	r3, r1, r3
 8001c3c:	3304      	adds	r3, #4
 8001c3e:	6819      	ldr	r1, [r3, #0]
 8001c40:	68bb      	ldr	r3, [r7, #8]
 8001c42:	0092      	lsls	r2, r2, #2
 8001c44:	50d1      	str	r1, [r2, r3]
    for (uint8_t i = 0U; i < hal->active_count; ++i) {
 8001c46:	183b      	adds	r3, r7, r0
 8001c48:	183a      	adds	r2, r7, r0
 8001c4a:	7812      	ldrb	r2, [r2, #0]
 8001c4c:	3201      	adds	r2, #1
 8001c4e:	701a      	strb	r2, [r3, #0]
 8001c50:	687b      	ldr	r3, [r7, #4]
 8001c52:	22ca      	movs	r2, #202	@ 0xca
 8001c54:	5c9b      	ldrb	r3, [r3, r2]
 8001c56:	220f      	movs	r2, #15
 8001c58:	18ba      	adds	r2, r7, r2
 8001c5a:	7812      	ldrb	r2, [r2, #0]
 8001c5c:	429a      	cmp	r2, r3
 8001c5e:	d3e4      	bcc.n	8001c2a <rx_push_active_batch_from_isr+0x9a>
    }

    hal->active_count = 0U;
 8001c60:	687b      	ldr	r3, [r7, #4]
 8001c62:	22ca      	movs	r2, #202	@ 0xca
 8001c64:	2100      	movs	r1, #0
 8001c66:	5499      	strb	r1, [r3, r2]
    hal->ready_head = next_head;
 8001c68:	687b      	ldr	r3, [r7, #4]
 8001c6a:	220c      	movs	r2, #12
 8001c6c:	18ba      	adds	r2, r7, r2
 8001c6e:	21c8      	movs	r1, #200	@ 0xc8
 8001c70:	7812      	ldrb	r2, [r2, #0]
 8001c72:	545a      	strb	r2, [r3, r1]
 8001c74:	e000      	b.n	8001c78 <rx_push_active_batch_from_isr+0xe8>
        return;
 8001c76:	46c0      	nop			@ (mov r8, r8)
}
 8001c78:	46bd      	mov	sp, r7
 8001c7a:	b005      	add	sp, #20
 8001c7c:	bdf0      	pop	{r4, r5, r6, r7, pc}
	...

08001c80 <stm32_rx_start>:

/* Start STM32 RX HAL: validate config, compute Q12 multiplier, reset state.
 * @param context  sent_stm32f042_rx_hal_t pointer
 * @return         true if config is valid and HAL started */
static bool stm32_rx_start(void* context) {
 8001c80:	b580      	push	{r7, lr}
 8001c82:	b084      	sub	sp, #16
 8001c84:	af00      	add	r7, sp, #0
 8001c86:	6078      	str	r0, [r7, #4]
    sent_stm32f042_rx_hal_t* hal = (sent_stm32f042_rx_hal_t*)context;
 8001c88:	687b      	ldr	r3, [r7, #4]
 8001c8a:	60fb      	str	r3, [r7, #12]
    SENT_ASSERT(hal != NULL);
 8001c8c:	68fb      	ldr	r3, [r7, #12]
 8001c8e:	2b00      	cmp	r3, #0
 8001c90:	d102      	bne.n	8001c98 <stm32_rx_start+0x18>
 8001c92:	be00      	bkpt	0x0000
 8001c94:	46c0      	nop			@ (mov r8, r8)
 8001c96:	e7fd      	b.n	8001c94 <stm32_rx_start+0x14>

    if (hal->config.timer_clock_hz == 0U ||
 8001c98:	68fb      	ldr	r3, [r7, #12]
 8001c9a:	681b      	ldr	r3, [r3, #0]
 8001c9c:	2b00      	cmp	r3, #0
 8001c9e:	d00f      	beq.n	8001cc0 <stm32_rx_start+0x40>
        hal->config.capture_batch_size == 0U ||
 8001ca0:	68fb      	ldr	r3, [r7, #12]
 8001ca2:	799b      	ldrb	r3, [r3, #6]
    if (hal->config.timer_clock_hz == 0U ||
 8001ca4:	2b00      	cmp	r3, #0
 8001ca6:	d00b      	beq.n	8001cc0 <stm32_rx_start+0x40>
        hal->config.capture_batch_size > SENT_STM32F042_RX_MAX_BATCH_SIZE ||
 8001ca8:	68fb      	ldr	r3, [r7, #12]
 8001caa:	799b      	ldrb	r3, [r3, #6]
        hal->config.capture_batch_size == 0U ||
 8001cac:	2b0d      	cmp	r3, #13
 8001cae:	d807      	bhi.n	8001cc0 <stm32_rx_start+0x40>
        hal->config.ready_queue_depth == 0U ||
 8001cb0:	68fb      	ldr	r3, [r7, #12]
 8001cb2:	79db      	ldrb	r3, [r3, #7]
        hal->config.capture_batch_size > SENT_STM32F042_RX_MAX_BATCH_SIZE ||
 8001cb4:	2b00      	cmp	r3, #0
 8001cb6:	d003      	beq.n	8001cc0 <stm32_rx_start+0x40>
        hal->config.ready_queue_depth > SENT_STM32F042_RX_MAX_READY_BATCHES) {
 8001cb8:	68fb      	ldr	r3, [r7, #12]
 8001cba:	79db      	ldrb	r3, [r3, #7]
        hal->config.ready_queue_depth == 0U ||
 8001cbc:	2b02      	cmp	r3, #2
 8001cbe:	d901      	bls.n	8001cc4 <stm32_rx_start+0x44>
        return false;
 8001cc0:	2300      	movs	r3, #0
 8001cc2:	e047      	b.n	8001d54 <stm32_rx_start+0xd4>
    }

    hal->ready_head = 0U;
 8001cc4:	68fb      	ldr	r3, [r7, #12]
 8001cc6:	22c8      	movs	r2, #200	@ 0xc8
 8001cc8:	2100      	movs	r1, #0
 8001cca:	5499      	strb	r1, [r3, r2]
    hal->ready_tail = 0U;
 8001ccc:	68fb      	ldr	r3, [r7, #12]
 8001cce:	22c9      	movs	r2, #201	@ 0xc9
 8001cd0:	2100      	movs	r1, #0
 8001cd2:	5499      	strb	r1, [r3, r2]
    hal->dropped_batches = 0U;
 8001cd4:	68fb      	ldr	r3, [r7, #12]
 8001cd6:	2200      	movs	r2, #0
 8001cd8:	60da      	str	r2, [r3, #12]

    hal->overflow_count = 0U;
 8001cda:	68fb      	ldr	r3, [r7, #12]
 8001cdc:	2200      	movs	r2, #0
 8001cde:	609a      	str	r2, [r3, #8]
    hal->last_counter_ticks = 0U;
 8001ce0:	68fb      	ldr	r3, [r7, #12]
 8001ce2:	2200      	movs	r2, #0
 8001ce4:	611a      	str	r2, [r3, #16]
    hal->last_timestamp_us = 0U;
 8001ce6:	68fb      	ldr	r3, [r7, #12]
 8001ce8:	2200      	movs	r2, #0
 8001cea:	615a      	str	r2, [r3, #20]
    hal->ticks_to_us_frac_q12 = 0U;
 8001cec:	68fb      	ldr	r3, [r7, #12]
 8001cee:	2200      	movs	r2, #0
 8001cf0:	61da      	str	r2, [r3, #28]
    /*
     * Q12 fixed-point conversion:
     * us ~= ticks * ((1_000_000 << 12) / timer_clock_hz)
     * Division is done once at start, not in ISR.
     */
    hal->ticks_to_us_mul_q12 = (TICKS_TO_US_Q12_SCALE + (hal->config.timer_clock_hz / 2U)) /
 8001cf2:	68fb      	ldr	r3, [r7, #12]
 8001cf4:	681b      	ldr	r3, [r3, #0]
 8001cf6:	085b      	lsrs	r3, r3, #1
 8001cf8:	4a18      	ldr	r2, [pc, #96]	@ (8001d5c <stm32_rx_start+0xdc>)
 8001cfa:	189a      	adds	r2, r3, r2
                               hal->config.timer_clock_hz;
 8001cfc:	68fb      	ldr	r3, [r7, #12]
 8001cfe:	681b      	ldr	r3, [r3, #0]
    hal->ticks_to_us_mul_q12 = (TICKS_TO_US_Q12_SCALE + (hal->config.timer_clock_hz / 2U)) /
 8001d00:	0019      	movs	r1, r3
 8001d02:	0010      	movs	r0, r2
 8001d04:	f7fe fa26 	bl	8000154 <__udivsi3>
 8001d08:	0003      	movs	r3, r0
 8001d0a:	001a      	movs	r2, r3
 8001d0c:	68fb      	ldr	r3, [r7, #12]
 8001d0e:	619a      	str	r2, [r3, #24]
    if (hal->ticks_to_us_mul_q12 == 0U) {
 8001d10:	68fb      	ldr	r3, [r7, #12]
 8001d12:	699b      	ldr	r3, [r3, #24]
 8001d14:	2b00      	cmp	r3, #0
 8001d16:	d102      	bne.n	8001d1e <stm32_rx_start+0x9e>
        hal->ticks_to_us_mul_q12 = 1U;
 8001d18:	68fb      	ldr	r3, [r7, #12]
 8001d1a:	2201      	movs	r2, #1
 8001d1c:	619a      	str	r2, [r3, #24]
    }
    hal->ticks_to_us_max_delta = UINT32_MAX / hal->ticks_to_us_mul_q12;
 8001d1e:	68fb      	ldr	r3, [r7, #12]
 8001d20:	699b      	ldr	r3, [r3, #24]
 8001d22:	0019      	movs	r1, r3
 8001d24:	2301      	movs	r3, #1
 8001d26:	4258      	negs	r0, r3
 8001d28:	f7fe fa14 	bl	8000154 <__udivsi3>
 8001d2c:	0003      	movs	r3, r0
 8001d2e:	001a      	movs	r2, r3
 8001d30:	68fb      	ldr	r3, [r7, #12]
 8001d32:	621a      	str	r2, [r3, #32]
    if (hal->ticks_to_us_max_delta == 0U) {
 8001d34:	68fb      	ldr	r3, [r7, #12]
 8001d36:	6a1b      	ldr	r3, [r3, #32]
 8001d38:	2b00      	cmp	r3, #0
 8001d3a:	d102      	bne.n	8001d42 <stm32_rx_start+0xc2>
        hal->ticks_to_us_max_delta = 1U;
 8001d3c:	68fb      	ldr	r3, [r7, #12]
 8001d3e:	2201      	movs	r2, #1
 8001d40:	621a      	str	r2, [r3, #32]
    }
    hal->active_count = 0U;
 8001d42:	68fb      	ldr	r3, [r7, #12]
 8001d44:	22ca      	movs	r2, #202	@ 0xca
 8001d46:	2100      	movs	r1, #0
 8001d48:	5499      	strb	r1, [r3, r2]

    hal->running = true;
 8001d4a:	68fb      	ldr	r3, [r7, #12]
 8001d4c:	22cb      	movs	r2, #203	@ 0xcb
 8001d4e:	2101      	movs	r1, #1
 8001d50:	5499      	strb	r1, [r3, r2]
    return true;
 8001d52:	2301      	movs	r3, #1
}
 8001d54:	0018      	movs	r0, r3
 8001d56:	46bd      	mov	sp, r7
 8001d58:	b004      	add	sp, #16
 8001d5a:	bd80      	pop	{r7, pc}
 8001d5c:	f4240000 	.word	0xf4240000

08001d60 <stm32_rx_stop>:

/* Stop STM32 RX HAL: clear running flag.
 * @param context  sent_stm32f042_rx_hal_t pointer */
static void stm32_rx_stop(void* context) {
 8001d60:	b580      	push	{r7, lr}
 8001d62:	b084      	sub	sp, #16
 8001d64:	af00      	add	r7, sp, #0
 8001d66:	6078      	str	r0, [r7, #4]
    sent_stm32f042_rx_hal_t* hal = (sent_stm32f042_rx_hal_t*)context;
 8001d68:	687b      	ldr	r3, [r7, #4]
 8001d6a:	60fb      	str	r3, [r7, #12]
    SENT_ASSERT(hal != NULL);
 8001d6c:	68fb      	ldr	r3, [r7, #12]
 8001d6e:	2b00      	cmp	r3, #0
 8001d70:	d102      	bne.n	8001d78 <stm32_rx_stop+0x18>
 8001d72:	be00      	bkpt	0x0000
 8001d74:	46c0      	nop			@ (mov r8, r8)
 8001d76:	e7fd      	b.n	8001d74 <stm32_rx_stop+0x14>
    hal->running = false;
 8001d78:	68fb      	ldr	r3, [r7, #12]
 8001d7a:	22cb      	movs	r2, #203	@ 0xcb
 8001d7c:	2100      	movs	r1, #0
 8001d7e:	5499      	strb	r1, [r3, r2]
}
 8001d80:	46c0      	nop			@ (mov r8, r8)
 8001d82:	46bd      	mov	sp, r7
 8001d84:	b004      	add	sp, #16
 8001d86:	bd80      	pop	{r7, pc}

08001d88 <stm32_rx_poll>:
 * @param out_timestamps_us     [out] array of edge timestamps [us]
 * @param inout_timestamp_count [in] max capacity, [out] actual count
 * @return                      true if a batch was dequeued */
static bool stm32_rx_poll(void* context,
                          uint32_t* out_timestamps_us,
                          size_t* inout_timestamp_count) {
 8001d88:	b590      	push	{r4, r7, lr}
 8001d8a:	b08b      	sub	sp, #44	@ 0x2c
 8001d8c:	af00      	add	r7, sp, #0
 8001d8e:	60f8      	str	r0, [r7, #12]
 8001d90:	60b9      	str	r1, [r7, #8]
 8001d92:	607a      	str	r2, [r7, #4]
    sent_stm32f042_rx_hal_t* hal = (sent_stm32f042_rx_hal_t*)context;
 8001d94:	68fb      	ldr	r3, [r7, #12]
 8001d96:	623b      	str	r3, [r7, #32]
    SENT_ASSERT(hal != NULL && out_timestamps_us != NULL && inout_timestamp_count != NULL);
 8001d98:	6a3b      	ldr	r3, [r7, #32]
 8001d9a:	2b00      	cmp	r3, #0
 8001d9c:	d005      	beq.n	8001daa <stm32_rx_poll+0x22>
 8001d9e:	68bb      	ldr	r3, [r7, #8]
 8001da0:	2b00      	cmp	r3, #0
 8001da2:	d002      	beq.n	8001daa <stm32_rx_poll+0x22>
 8001da4:	687b      	ldr	r3, [r7, #4]
 8001da6:	2b00      	cmp	r3, #0
 8001da8:	d102      	bne.n	8001db0 <stm32_rx_poll+0x28>
 8001daa:	be00      	bkpt	0x0000
 8001dac:	46c0      	nop			@ (mov r8, r8)
 8001dae:	e7fd      	b.n	8001dac <stm32_rx_poll+0x24>
    if (!hal->running) {
 8001db0:	6a3b      	ldr	r3, [r7, #32]
 8001db2:	22cb      	movs	r2, #203	@ 0xcb
 8001db4:	5c9b      	ldrb	r3, [r3, r2]
 8001db6:	2201      	movs	r2, #1
 8001db8:	4053      	eors	r3, r2
 8001dba:	b2db      	uxtb	r3, r3
 8001dbc:	2b00      	cmp	r3, #0
 8001dbe:	d001      	beq.n	8001dc4 <stm32_rx_poll+0x3c>
        return false;
 8001dc0:	2300      	movs	r3, #0
 8001dc2:	e05d      	b.n	8001e80 <stm32_rx_poll+0xf8>
    }

    uint8_t tail = hal->ready_tail;
 8001dc4:	201f      	movs	r0, #31
 8001dc6:	183b      	adds	r3, r7, r0
 8001dc8:	6a3a      	ldr	r2, [r7, #32]
 8001dca:	21c9      	movs	r1, #201	@ 0xc9
 8001dcc:	5c52      	ldrb	r2, [r2, r1]
 8001dce:	701a      	strb	r2, [r3, #0]
    uint8_t head = hal->ready_head;
 8001dd0:	241e      	movs	r4, #30
 8001dd2:	193b      	adds	r3, r7, r4
 8001dd4:	6a3a      	ldr	r2, [r7, #32]
 8001dd6:	21c8      	movs	r1, #200	@ 0xc8
 8001dd8:	5c52      	ldrb	r2, [r2, r1]
 8001dda:	701a      	strb	r2, [r3, #0]
    if (tail == head) {
 8001ddc:	183a      	adds	r2, r7, r0
 8001dde:	193b      	adds	r3, r7, r4
 8001de0:	7812      	ldrb	r2, [r2, #0]
 8001de2:	781b      	ldrb	r3, [r3, #0]
 8001de4:	429a      	cmp	r2, r3
 8001de6:	d101      	bne.n	8001dec <stm32_rx_poll+0x64>
        return false;
 8001de8:	2300      	movs	r3, #0
 8001dea:	e049      	b.n	8001e80 <stm32_rx_poll+0xf8>
    }

    sent_stm32f042_rx_batch_t* batch = &hal->ready_batches[tail];
 8001dec:	231f      	movs	r3, #31
 8001dee:	18fb      	adds	r3, r7, r3
 8001df0:	781a      	ldrb	r2, [r3, #0]
 8001df2:	0013      	movs	r3, r2
 8001df4:	00db      	lsls	r3, r3, #3
 8001df6:	1a9b      	subs	r3, r3, r2
 8001df8:	00db      	lsls	r3, r3, #3
 8001dfa:	3358      	adds	r3, #88	@ 0x58
 8001dfc:	6a3a      	ldr	r2, [r7, #32]
 8001dfe:	18d3      	adds	r3, r2, r3
 8001e00:	61bb      	str	r3, [r7, #24]
    uint8_t batch_count = batch->count;
 8001e02:	2017      	movs	r0, #23
 8001e04:	183b      	adds	r3, r7, r0
 8001e06:	69ba      	ldr	r2, [r7, #24]
 8001e08:	2134      	movs	r1, #52	@ 0x34
 8001e0a:	5c52      	ldrb	r2, [r2, r1]
 8001e0c:	701a      	strb	r2, [r3, #0]
    if (*inout_timestamp_count < batch_count) {
 8001e0e:	687b      	ldr	r3, [r7, #4]
 8001e10:	681a      	ldr	r2, [r3, #0]
 8001e12:	183b      	adds	r3, r7, r0
 8001e14:	781b      	ldrb	r3, [r3, #0]
 8001e16:	429a      	cmp	r2, r3
 8001e18:	d201      	bcs.n	8001e1e <stm32_rx_poll+0x96>
        return false;
 8001e1a:	2300      	movs	r3, #0
 8001e1c:	e030      	b.n	8001e80 <stm32_rx_poll+0xf8>
    }

    for (uint8_t i = 0U; i < batch_count; ++i) {
 8001e1e:	2327      	movs	r3, #39	@ 0x27
 8001e20:	18fb      	adds	r3, r7, r3
 8001e22:	2200      	movs	r2, #0
 8001e24:	701a      	strb	r2, [r3, #0]
 8001e26:	e010      	b.n	8001e4a <stm32_rx_poll+0xc2>
        out_timestamps_us[i] = batch->timestamps_us[i];
 8001e28:	2027      	movs	r0, #39	@ 0x27
 8001e2a:	183b      	adds	r3, r7, r0
 8001e2c:	7819      	ldrb	r1, [r3, #0]
 8001e2e:	183b      	adds	r3, r7, r0
 8001e30:	781b      	ldrb	r3, [r3, #0]
 8001e32:	009b      	lsls	r3, r3, #2
 8001e34:	68ba      	ldr	r2, [r7, #8]
 8001e36:	18d3      	adds	r3, r2, r3
 8001e38:	69ba      	ldr	r2, [r7, #24]
 8001e3a:	0089      	lsls	r1, r1, #2
 8001e3c:	588a      	ldr	r2, [r1, r2]
 8001e3e:	601a      	str	r2, [r3, #0]
    for (uint8_t i = 0U; i < batch_count; ++i) {
 8001e40:	183b      	adds	r3, r7, r0
 8001e42:	183a      	adds	r2, r7, r0
 8001e44:	7812      	ldrb	r2, [r2, #0]
 8001e46:	3201      	adds	r2, #1
 8001e48:	701a      	strb	r2, [r3, #0]
 8001e4a:	2327      	movs	r3, #39	@ 0x27
 8001e4c:	18fa      	adds	r2, r7, r3
 8001e4e:	2117      	movs	r1, #23
 8001e50:	187b      	adds	r3, r7, r1
 8001e52:	7812      	ldrb	r2, [r2, #0]
 8001e54:	781b      	ldrb	r3, [r3, #0]
 8001e56:	429a      	cmp	r2, r3
 8001e58:	d3e6      	bcc.n	8001e28 <stm32_rx_poll+0xa0>
    }
    *inout_timestamp_count = batch_count;
 8001e5a:	187b      	adds	r3, r7, r1
 8001e5c:	781a      	ldrb	r2, [r3, #0]
 8001e5e:	687b      	ldr	r3, [r7, #4]
 8001e60:	601a      	str	r2, [r3, #0]
    hal->ready_tail = queue_next_idx(tail, hal->config.ready_queue_depth);
 8001e62:	6a3b      	ldr	r3, [r7, #32]
 8001e64:	79da      	ldrb	r2, [r3, #7]
 8001e66:	231f      	movs	r3, #31
 8001e68:	18fb      	adds	r3, r7, r3
 8001e6a:	781b      	ldrb	r3, [r3, #0]
 8001e6c:	0011      	movs	r1, r2
 8001e6e:	0018      	movs	r0, r3
 8001e70:	f7ff fe71 	bl	8001b56 <queue_next_idx>
 8001e74:	0003      	movs	r3, r0
 8001e76:	0019      	movs	r1, r3
 8001e78:	6a3b      	ldr	r3, [r7, #32]
 8001e7a:	22c9      	movs	r2, #201	@ 0xc9
 8001e7c:	5499      	strb	r1, [r3, r2]
    return true;
 8001e7e:	2301      	movs	r3, #1
}
 8001e80:	0018      	movs	r0, r3
 8001e82:	46bd      	mov	sp, r7
 8001e84:	b00b      	add	sp, #44	@ 0x2c
 8001e86:	bd90      	pop	{r4, r7, pc}

08001e88 <sent_stm32f042_rx_hal_init>:

/* Initialize STM32 RX HAL with timer configuration (NULL config uses 48 MHz defaults).
 * @param hal     pointer to RX HAL instance
 * @param config  timer config (clock_hz [Hz], autoreload, batch_size, queue_depth) */
void sent_stm32f042_rx_hal_init(sent_stm32f042_rx_hal_t* hal,
                                const sent_stm32f042_rx_config_t* config) {
 8001e88:	b580      	push	{r7, lr}
 8001e8a:	b082      	sub	sp, #8
 8001e8c:	af00      	add	r7, sp, #0
 8001e8e:	6078      	str	r0, [r7, #4]
 8001e90:	6039      	str	r1, [r7, #0]
    SENT_ASSERT(hal != NULL);
 8001e92:	687b      	ldr	r3, [r7, #4]
 8001e94:	2b00      	cmp	r3, #0
 8001e96:	d102      	bne.n	8001e9e <sent_stm32f042_rx_hal_init+0x16>
 8001e98:	be00      	bkpt	0x0000
 8001e9a:	46c0      	nop			@ (mov r8, r8)
 8001e9c:	e7fd      	b.n	8001e9a <sent_stm32f042_rx_hal_init+0x12>

    memset(hal, 0, sizeof(*hal));
 8001e9e:	687b      	ldr	r3, [r7, #4]
 8001ea0:	22cc      	movs	r2, #204	@ 0xcc
 8001ea2:	2100      	movs	r1, #0
 8001ea4:	0018      	movs	r0, r3
 8001ea6:	f004 fe10 	bl	8006aca <memset>
    if (config != NULL) {
 8001eaa:	683b      	ldr	r3, [r7, #0]
 8001eac:	2b00      	cmp	r3, #0
 8001eae:	d004      	beq.n	8001eba <sent_stm32f042_rx_hal_init+0x32>
        hal->config = *config;
 8001eb0:	687b      	ldr	r3, [r7, #4]
 8001eb2:	683a      	ldr	r2, [r7, #0]
 8001eb4:	ca03      	ldmia	r2!, {r0, r1}
 8001eb6:	c303      	stmia	r3!, {r0, r1}
        hal->config.timer_clock_hz = 48000000U;
        hal->config.timer_autoreload = 0xFFFFU;
        hal->config.capture_batch_size = SENT_STM32F042_RX_MAX_BATCH_SIZE;
        hal->config.ready_queue_depth = SENT_STM32F042_RX_MAX_READY_BATCHES;
    }
}
 8001eb8:	e00c      	b.n	8001ed4 <sent_stm32f042_rx_hal_init+0x4c>
        hal->config.timer_clock_hz = 48000000U;
 8001eba:	687b      	ldr	r3, [r7, #4]
 8001ebc:	4a07      	ldr	r2, [pc, #28]	@ (8001edc <sent_stm32f042_rx_hal_init+0x54>)
 8001ebe:	601a      	str	r2, [r3, #0]
        hal->config.timer_autoreload = 0xFFFFU;
 8001ec0:	687b      	ldr	r3, [r7, #4]
 8001ec2:	2201      	movs	r2, #1
 8001ec4:	4252      	negs	r2, r2
 8001ec6:	809a      	strh	r2, [r3, #4]
        hal->config.capture_batch_size = SENT_STM32F042_RX_MAX_BATCH_SIZE;
 8001ec8:	687b      	ldr	r3, [r7, #4]
 8001eca:	220d      	movs	r2, #13
 8001ecc:	719a      	strb	r2, [r3, #6]
        hal->config.ready_queue_depth = SENT_STM32F042_RX_MAX_READY_BATCHES;
 8001ece:	687b      	ldr	r3, [r7, #4]
 8001ed0:	2202      	movs	r2, #2
 8001ed2:	71da      	strb	r2, [r3, #7]
}
 8001ed4:	46c0      	nop			@ (mov r8, r8)
 8001ed6:	46bd      	mov	sp, r7
 8001ed8:	b002      	add	sp, #8
 8001eda:	bd80      	pop	{r7, pc}
 8001edc:	02dc6c00 	.word	0x02dc6c00

08001ee0 <sent_stm32f042_make_rx_hal>:

/* Wire STM32 RX HAL implementation into the generic RX HAL interface.
 * @param impl     STM32 RX HAL instance
 * @param out_hal  [out] generic RX HAL function-pointer struct to populate */
void sent_stm32f042_make_rx_hal(sent_stm32f042_rx_hal_t* impl, sent_rx_hal_t* out_hal) {
 8001ee0:	b580      	push	{r7, lr}
 8001ee2:	b082      	sub	sp, #8
 8001ee4:	af00      	add	r7, sp, #0
 8001ee6:	6078      	str	r0, [r7, #4]
 8001ee8:	6039      	str	r1, [r7, #0]
    SENT_ASSERT(out_hal != NULL);
 8001eea:	683b      	ldr	r3, [r7, #0]
 8001eec:	2b00      	cmp	r3, #0
 8001eee:	d102      	bne.n	8001ef6 <sent_stm32f042_make_rx_hal+0x16>
 8001ef0:	be00      	bkpt	0x0000
 8001ef2:	46c0      	nop			@ (mov r8, r8)
 8001ef4:	e7fd      	b.n	8001ef2 <sent_stm32f042_make_rx_hal+0x12>

    out_hal->context = impl;
 8001ef6:	683b      	ldr	r3, [r7, #0]
 8001ef8:	687a      	ldr	r2, [r7, #4]
 8001efa:	601a      	str	r2, [r3, #0]
    out_hal->start_rx = stm32_rx_start;
 8001efc:	683b      	ldr	r3, [r7, #0]
 8001efe:	4a06      	ldr	r2, [pc, #24]	@ (8001f18 <sent_stm32f042_make_rx_hal+0x38>)
 8001f00:	605a      	str	r2, [r3, #4]
    out_hal->stop_rx = stm32_rx_stop;
 8001f02:	683b      	ldr	r3, [r7, #0]
 8001f04:	4a05      	ldr	r2, [pc, #20]	@ (8001f1c <sent_stm32f042_make_rx_hal+0x3c>)
 8001f06:	609a      	str	r2, [r3, #8]
    out_hal->poll_timestamps_us = stm32_rx_poll;
 8001f08:	683b      	ldr	r3, [r7, #0]
 8001f0a:	4a05      	ldr	r2, [pc, #20]	@ (8001f20 <sent_stm32f042_make_rx_hal+0x40>)
 8001f0c:	60da      	str	r2, [r3, #12]
}
 8001f0e:	46c0      	nop			@ (mov r8, r8)
 8001f10:	46bd      	mov	sp, r7
 8001f12:	b002      	add	sp, #8
 8001f14:	bd80      	pop	{r7, pc}
 8001f16:	46c0      	nop			@ (mov r8, r8)
 8001f18:	08001c81 	.word	0x08001c81
 8001f1c:	08001d61 	.word	0x08001d61
 8001f20:	08001d89 	.word	0x08001d89

08001f24 <sent_stm32f042_rx_on_capture_edge_isr>:

/* ISR handler: process a captured falling-edge counter value, convert to timestamp.
 * @param hal               RX HAL instance
 * @param captured_counter  raw 16-bit timer capture register value [timer ticks] */
void sent_stm32f042_rx_on_capture_edge_isr(sent_stm32f042_rx_hal_t* hal,
                                            uint16_t captured_counter) {
 8001f24:	b580      	push	{r7, lr}
 8001f26:	b08e      	sub	sp, #56	@ 0x38
 8001f28:	af00      	add	r7, sp, #0
 8001f2a:	6078      	str	r0, [r7, #4]
 8001f2c:	000a      	movs	r2, r1
 8001f2e:	1cbb      	adds	r3, r7, #2
 8001f30:	801a      	strh	r2, [r3, #0]
    SENT_ASSERT(hal != NULL);
 8001f32:	687b      	ldr	r3, [r7, #4]
 8001f34:	2b00      	cmp	r3, #0
 8001f36:	d102      	bne.n	8001f3e <sent_stm32f042_rx_on_capture_edge_isr+0x1a>
 8001f38:	be00      	bkpt	0x0000
 8001f3a:	46c0      	nop			@ (mov r8, r8)
 8001f3c:	e7fd      	b.n	8001f3a <sent_stm32f042_rx_on_capture_edge_isr+0x16>
    if (!hal->running) {
 8001f3e:	687b      	ldr	r3, [r7, #4]
 8001f40:	22cb      	movs	r2, #203	@ 0xcb
 8001f42:	5c9b      	ldrb	r3, [r3, r2]
 8001f44:	2201      	movs	r2, #1
 8001f46:	4053      	eors	r3, r2
 8001f48:	b2db      	uxtb	r3, r3
 8001f4a:	2b00      	cmp	r3, #0
 8001f4c:	d000      	beq.n	8001f50 <sent_stm32f042_rx_on_capture_edge_isr+0x2c>
 8001f4e:	e092      	b.n	8002076 <sent_stm32f042_rx_on_capture_edge_isr+0x152>
        return;
    }

    uint32_t period = (uint32_t)hal->config.timer_autoreload + 1U;
 8001f50:	687b      	ldr	r3, [r7, #4]
 8001f52:	889b      	ldrh	r3, [r3, #4]
 8001f54:	3301      	adds	r3, #1
 8001f56:	633b      	str	r3, [r7, #48]	@ 0x30
    uint32_t counter_ticks = (hal->overflow_count * period) + captured_counter;
 8001f58:	687b      	ldr	r3, [r7, #4]
 8001f5a:	689b      	ldr	r3, [r3, #8]
 8001f5c:	6b3a      	ldr	r2, [r7, #48]	@ 0x30
 8001f5e:	435a      	muls	r2, r3
 8001f60:	1cbb      	adds	r3, r7, #2
 8001f62:	881b      	ldrh	r3, [r3, #0]
 8001f64:	18d3      	adds	r3, r2, r3
 8001f66:	637b      	str	r3, [r7, #52]	@ 0x34
    if (counter_ticks < hal->last_counter_ticks) {
 8001f68:	687b      	ldr	r3, [r7, #4]
 8001f6a:	691b      	ldr	r3, [r3, #16]
 8001f6c:	6b7a      	ldr	r2, [r7, #52]	@ 0x34
 8001f6e:	429a      	cmp	r2, r3
 8001f70:	d203      	bcs.n	8001f7a <sent_stm32f042_rx_on_capture_edge_isr+0x56>
        counter_ticks += period;
 8001f72:	6b7a      	ldr	r2, [r7, #52]	@ 0x34
 8001f74:	6b3b      	ldr	r3, [r7, #48]	@ 0x30
 8001f76:	18d3      	adds	r3, r2, r3
 8001f78:	637b      	str	r3, [r7, #52]	@ 0x34
    }

    uint32_t delta_ticks = counter_ticks - hal->last_counter_ticks;
 8001f7a:	687b      	ldr	r3, [r7, #4]
 8001f7c:	691b      	ldr	r3, [r3, #16]
 8001f7e:	6b7a      	ldr	r2, [r7, #52]	@ 0x34
 8001f80:	1ad3      	subs	r3, r2, r3
 8001f82:	62fb      	str	r3, [r7, #44]	@ 0x2c
    hal->last_counter_ticks = counter_ticks;
 8001f84:	687b      	ldr	r3, [r7, #4]
 8001f86:	6b7a      	ldr	r2, [r7, #52]	@ 0x34
 8001f88:	611a      	str	r2, [r3, #16]
 8001f8a:	687b      	ldr	r3, [r7, #4]
 8001f8c:	62bb      	str	r3, [r7, #40]	@ 0x28
 8001f8e:	6afb      	ldr	r3, [r7, #44]	@ 0x2c
 8001f90:	627b      	str	r3, [r7, #36]	@ 0x24
    SENT_ASSERT(hal != NULL);
 8001f92:	6abb      	ldr	r3, [r7, #40]	@ 0x28
 8001f94:	2b00      	cmp	r3, #0
 8001f96:	d102      	bne.n	8001f9e <sent_stm32f042_rx_on_capture_edge_isr+0x7a>
 8001f98:	be00      	bkpt	0x0000
 8001f9a:	46c0      	nop			@ (mov r8, r8)
 8001f9c:	e7fd      	b.n	8001f9a <sent_stm32f042_rx_on_capture_edge_isr+0x76>
    if (ticks == 0U || hal->ticks_to_us_mul_q12 == 0U) {
 8001f9e:	6a7b      	ldr	r3, [r7, #36]	@ 0x24
 8001fa0:	2b00      	cmp	r3, #0
 8001fa2:	d003      	beq.n	8001fac <sent_stm32f042_rx_on_capture_edge_isr+0x88>
 8001fa4:	6abb      	ldr	r3, [r7, #40]	@ 0x28
 8001fa6:	699b      	ldr	r3, [r3, #24]
 8001fa8:	2b00      	cmp	r3, #0
 8001faa:	d101      	bne.n	8001fb0 <sent_stm32f042_rx_on_capture_edge_isr+0x8c>
        return 0U;
 8001fac:	2200      	movs	r2, #0
 8001fae:	e033      	b.n	8002018 <sent_stm32f042_rx_on_capture_edge_isr+0xf4>
    uint32_t mul_q12 = hal->ticks_to_us_mul_q12;
 8001fb0:	6abb      	ldr	r3, [r7, #40]	@ 0x28
 8001fb2:	699b      	ldr	r3, [r3, #24]
 8001fb4:	623b      	str	r3, [r7, #32]
    uint32_t max_delta = hal->ticks_to_us_max_delta;
 8001fb6:	6abb      	ldr	r3, [r7, #40]	@ 0x28
 8001fb8:	6a1b      	ldr	r3, [r3, #32]
 8001fba:	61fb      	str	r3, [r7, #28]
    uint32_t frac_q12 = hal->ticks_to_us_frac_q12;
 8001fbc:	6abb      	ldr	r3, [r7, #40]	@ 0x28
 8001fbe:	69db      	ldr	r3, [r3, #28]
 8001fc0:	61bb      	str	r3, [r7, #24]
    uint32_t us = 0U;
 8001fc2:	2300      	movs	r3, #0
 8001fc4:	617b      	str	r3, [r7, #20]
    while (ticks > max_delta) {
 8001fc6:	e012      	b.n	8001fee <sent_stm32f042_rx_on_capture_edge_isr+0xca>
        uint32_t scaled = (max_delta * mul_q12) + frac_q12;
 8001fc8:	6a3b      	ldr	r3, [r7, #32]
 8001fca:	69fa      	ldr	r2, [r7, #28]
 8001fcc:	435a      	muls	r2, r3
 8001fce:	69bb      	ldr	r3, [r7, #24]
 8001fd0:	18d3      	adds	r3, r2, r3
 8001fd2:	613b      	str	r3, [r7, #16]
        us += (scaled >> 12U);
 8001fd4:	693b      	ldr	r3, [r7, #16]
 8001fd6:	0b1b      	lsrs	r3, r3, #12
 8001fd8:	697a      	ldr	r2, [r7, #20]
 8001fda:	18d3      	adds	r3, r2, r3
 8001fdc:	617b      	str	r3, [r7, #20]
        frac_q12 = (scaled & 0x0FFFU);
 8001fde:	693b      	ldr	r3, [r7, #16]
 8001fe0:	051b      	lsls	r3, r3, #20
 8001fe2:	0d1b      	lsrs	r3, r3, #20
 8001fe4:	61bb      	str	r3, [r7, #24]
        ticks -= max_delta;
 8001fe6:	6a7a      	ldr	r2, [r7, #36]	@ 0x24
 8001fe8:	69fb      	ldr	r3, [r7, #28]
 8001fea:	1ad3      	subs	r3, r2, r3
 8001fec:	627b      	str	r3, [r7, #36]	@ 0x24
    while (ticks > max_delta) {
 8001fee:	69fa      	ldr	r2, [r7, #28]
 8001ff0:	6a7b      	ldr	r3, [r7, #36]	@ 0x24
 8001ff2:	429a      	cmp	r2, r3
 8001ff4:	d3e8      	bcc.n	8001fc8 <sent_stm32f042_rx_on_capture_edge_isr+0xa4>
    uint32_t scaled = (ticks * mul_q12) + frac_q12;
 8001ff6:	6a3b      	ldr	r3, [r7, #32]
 8001ff8:	6a7a      	ldr	r2, [r7, #36]	@ 0x24
 8001ffa:	4353      	muls	r3, r2
 8001ffc:	69ba      	ldr	r2, [r7, #24]
 8001ffe:	18d3      	adds	r3, r2, r3
 8002000:	60fb      	str	r3, [r7, #12]
    us += (scaled >> 12U);
 8002002:	68fb      	ldr	r3, [r7, #12]
 8002004:	0b1b      	lsrs	r3, r3, #12
 8002006:	697a      	ldr	r2, [r7, #20]
 8002008:	18d3      	adds	r3, r2, r3
 800200a:	617b      	str	r3, [r7, #20]
    hal->ticks_to_us_frac_q12 = (scaled & 0x0FFFU);
 800200c:	68fb      	ldr	r3, [r7, #12]
 800200e:	051b      	lsls	r3, r3, #20
 8002010:	0d1a      	lsrs	r2, r3, #20
 8002012:	6abb      	ldr	r3, [r7, #40]	@ 0x28
 8002014:	61da      	str	r2, [r3, #28]
    return us;
 8002016:	697a      	ldr	r2, [r7, #20]
    hal->last_timestamp_us += rx_ticks_to_us_no_div(hal, delta_ticks);
 8002018:	687b      	ldr	r3, [r7, #4]
 800201a:	695b      	ldr	r3, [r3, #20]
 800201c:	18d2      	adds	r2, r2, r3
 800201e:	687b      	ldr	r3, [r7, #4]
 8002020:	615a      	str	r2, [r3, #20]

    if (hal->active_count < hal->config.capture_batch_size &&
 8002022:	687b      	ldr	r3, [r7, #4]
 8002024:	22ca      	movs	r2, #202	@ 0xca
 8002026:	5c9a      	ldrb	r2, [r3, r2]
 8002028:	687b      	ldr	r3, [r7, #4]
 800202a:	799b      	ldrb	r3, [r3, #6]
 800202c:	429a      	cmp	r2, r3
 800202e:	d216      	bcs.n	800205e <sent_stm32f042_rx_on_capture_edge_isr+0x13a>
        hal->active_count < SENT_STM32F042_RX_MAX_BATCH_SIZE) {
 8002030:	687b      	ldr	r3, [r7, #4]
 8002032:	22ca      	movs	r2, #202	@ 0xca
 8002034:	5c9b      	ldrb	r3, [r3, r2]
    if (hal->active_count < hal->config.capture_batch_size &&
 8002036:	2b0c      	cmp	r3, #12
 8002038:	d811      	bhi.n	800205e <sent_stm32f042_rx_on_capture_edge_isr+0x13a>
        hal->active_timestamps_us[hal->active_count++] = hal->last_timestamp_us;
 800203a:	687b      	ldr	r3, [r7, #4]
 800203c:	22ca      	movs	r2, #202	@ 0xca
 800203e:	5c9b      	ldrb	r3, [r3, r2]
 8002040:	1c5a      	adds	r2, r3, #1
 8002042:	b2d0      	uxtb	r0, r2
 8002044:	687a      	ldr	r2, [r7, #4]
 8002046:	21ca      	movs	r1, #202	@ 0xca
 8002048:	5450      	strb	r0, [r2, r1]
 800204a:	0018      	movs	r0, r3
 800204c:	687b      	ldr	r3, [r7, #4]
 800204e:	695a      	ldr	r2, [r3, #20]
 8002050:	6879      	ldr	r1, [r7, #4]
 8002052:	0003      	movs	r3, r0
 8002054:	3308      	adds	r3, #8
 8002056:	009b      	lsls	r3, r3, #2
 8002058:	18cb      	adds	r3, r1, r3
 800205a:	3304      	adds	r3, #4
 800205c:	601a      	str	r2, [r3, #0]
    }

    if (hal->active_count >= hal->config.capture_batch_size) {
 800205e:	687b      	ldr	r3, [r7, #4]
 8002060:	22ca      	movs	r2, #202	@ 0xca
 8002062:	5c9a      	ldrb	r2, [r3, r2]
 8002064:	687b      	ldr	r3, [r7, #4]
 8002066:	799b      	ldrb	r3, [r3, #6]
 8002068:	429a      	cmp	r2, r3
 800206a:	d305      	bcc.n	8002078 <sent_stm32f042_rx_on_capture_edge_isr+0x154>
        rx_push_active_batch_from_isr(hal);
 800206c:	687b      	ldr	r3, [r7, #4]
 800206e:	0018      	movs	r0, r3
 8002070:	f7ff fd8e 	bl	8001b90 <rx_push_active_batch_from_isr>
 8002074:	e000      	b.n	8002078 <sent_stm32f042_rx_on_capture_edge_isr+0x154>
        return;
 8002076:	46c0      	nop			@ (mov r8, r8)
    }
}
 8002078:	46bd      	mov	sp, r7
 800207a:	b00e      	add	sp, #56	@ 0x38
 800207c:	bd80      	pop	{r7, pc}

0800207e <sent_stm32f042_rx_on_overflow_isr>:

/* ISR handler: increment overflow counter on timer period rollover.
 * @param hal  RX HAL instance */
void sent_stm32f042_rx_on_overflow_isr(sent_stm32f042_rx_hal_t* hal) {
 800207e:	b580      	push	{r7, lr}
 8002080:	b082      	sub	sp, #8
 8002082:	af00      	add	r7, sp, #0
 8002084:	6078      	str	r0, [r7, #4]
    SENT_ASSERT(hal != NULL);
 8002086:	687b      	ldr	r3, [r7, #4]
 8002088:	2b00      	cmp	r3, #0
 800208a:	d102      	bne.n	8002092 <sent_stm32f042_rx_on_overflow_isr+0x14>
 800208c:	be00      	bkpt	0x0000
 800208e:	46c0      	nop			@ (mov r8, r8)
 8002090:	e7fd      	b.n	800208e <sent_stm32f042_rx_on_overflow_isr+0x10>
    if (!hal->running) {
 8002092:	687b      	ldr	r3, [r7, #4]
 8002094:	22cb      	movs	r2, #203	@ 0xcb
 8002096:	5c9b      	ldrb	r3, [r3, r2]
 8002098:	2201      	movs	r2, #1
 800209a:	4053      	eors	r3, r2
 800209c:	b2db      	uxtb	r3, r3
 800209e:	2b00      	cmp	r3, #0
 80020a0:	d105      	bne.n	80020ae <sent_stm32f042_rx_on_overflow_isr+0x30>
        return;
    }
    hal->overflow_count++;
 80020a2:	687b      	ldr	r3, [r7, #4]
 80020a4:	689b      	ldr	r3, [r3, #8]
 80020a6:	1c5a      	adds	r2, r3, #1
 80020a8:	687b      	ldr	r3, [r7, #4]
 80020aa:	609a      	str	r2, [r3, #8]
 80020ac:	e000      	b.n	80020b0 <sent_stm32f042_rx_on_overflow_isr+0x32>
        return;
 80020ae:	46c0      	nop			@ (mov r8, r8)
}
 80020b0:	46bd      	mov	sp, r7
 80020b2:	b002      	add	sp, #8
 80020b4:	bd80      	pop	{r7, pc}

080020b6 <tx_queue_count>:

/* Return number of entries in the circular TX queue.
 * @param head  queue head index
 * @param tail  queue tail index
 * @return      number of queued entries */
static size_t tx_queue_count(uint8_t head, uint8_t tail) {
 80020b6:	b580      	push	{r7, lr}
 80020b8:	b082      	sub	sp, #8
 80020ba:	af00      	add	r7, sp, #0
 80020bc:	0002      	movs	r2, r0
 80020be:	1dfb      	adds	r3, r7, #7
 80020c0:	701a      	strb	r2, [r3, #0]
 80020c2:	1dbb      	adds	r3, r7, #6
 80020c4:	1c0a      	adds	r2, r1, #0
 80020c6:	701a      	strb	r2, [r3, #0]
    if (head >= tail) {
 80020c8:	1dfa      	adds	r2, r7, #7
 80020ca:	1dbb      	adds	r3, r7, #6
 80020cc:	7812      	ldrb	r2, [r2, #0]
 80020ce:	781b      	ldrb	r3, [r3, #0]
 80020d0:	429a      	cmp	r2, r3
 80020d2:	d305      	bcc.n	80020e0 <tx_queue_count+0x2a>
        return (size_t)(head - tail);
 80020d4:	1dfb      	adds	r3, r7, #7
 80020d6:	781a      	ldrb	r2, [r3, #0]
 80020d8:	1dbb      	adds	r3, r7, #6
 80020da:	781b      	ldrb	r3, [r3, #0]
 80020dc:	1ad3      	subs	r3, r2, r3
 80020de:	e005      	b.n	80020ec <tx_queue_count+0x36>
    }
    return (size_t)((SENT_STM32F042_TX_QUEUE_DEPTH - tail) + head);
 80020e0:	1dfb      	adds	r3, r7, #7
 80020e2:	781a      	ldrb	r2, [r3, #0]
 80020e4:	1dbb      	adds	r3, r7, #6
 80020e6:	781b      	ldrb	r3, [r3, #0]
 80020e8:	1ad3      	subs	r3, r2, r3
 80020ea:	3304      	adds	r3, #4
}
 80020ec:	0018      	movs	r0, r3
 80020ee:	46bd      	mov	sp, r7
 80020f0:	b002      	add	sp, #8
 80020f2:	bd80      	pop	{r7, pc}

080020f4 <stm32_tx_start>:

/* Start STM32 TX HAL: validate config and reset queue state.
 * @param context  sent_stm32f042_tx_hal_t pointer
 * @return         true if config is valid and HAL started */
static bool stm32_tx_start(void* context) {
 80020f4:	b580      	push	{r7, lr}
 80020f6:	b084      	sub	sp, #16
 80020f8:	af00      	add	r7, sp, #0
 80020fa:	6078      	str	r0, [r7, #4]
    sent_stm32f042_tx_hal_t* hal = (sent_stm32f042_tx_hal_t*)context;
 80020fc:	687b      	ldr	r3, [r7, #4]
 80020fe:	60fb      	str	r3, [r7, #12]
    SENT_ASSERT(hal != NULL);
 8002100:	68fb      	ldr	r3, [r7, #12]
 8002102:	2b00      	cmp	r3, #0
 8002104:	d102      	bne.n	800210c <stm32_tx_start+0x18>
 8002106:	be00      	bkpt	0x0000
 8002108:	46c0      	nop			@ (mov r8, r8)
 800210a:	e7fd      	b.n	8002108 <stm32_tx_start+0x14>

    if (hal->config.max_pending_frames == 0U ||
 800210c:	68fb      	ldr	r3, [r7, #12]
 800210e:	789b      	ldrb	r3, [r3, #2]
 8002110:	2b00      	cmp	r3, #0
 8002112:	d003      	beq.n	800211c <stm32_tx_start+0x28>
        hal->config.max_pending_frames >= SENT_STM32F042_TX_QUEUE_DEPTH) {
 8002114:	68fb      	ldr	r3, [r7, #12]
 8002116:	789b      	ldrb	r3, [r3, #2]
    if (hal->config.max_pending_frames == 0U ||
 8002118:	2b03      	cmp	r3, #3
 800211a:	d901      	bls.n	8002120 <stm32_tx_start+0x2c>
        return false;
 800211c:	2300      	movs	r3, #0
 800211e:	e014      	b.n	800214a <stm32_tx_start+0x56>
    }

    hal->queue_head = 0U;
 8002120:	68fb      	ldr	r3, [r7, #12]
 8002122:	2284      	movs	r2, #132	@ 0x84
 8002124:	2100      	movs	r1, #0
 8002126:	5499      	strb	r1, [r3, r2]
    hal->queue_tail = 0U;
 8002128:	68fb      	ldr	r3, [r7, #12]
 800212a:	2285      	movs	r2, #133	@ 0x85
 800212c:	2100      	movs	r1, #0
 800212e:	5499      	strb	r1, [r3, r2]
    hal->active_index = 0U;
 8002130:	68fb      	ldr	r3, [r7, #12]
 8002132:	2287      	movs	r2, #135	@ 0x87
 8002134:	2100      	movs	r1, #0
 8002136:	5499      	strb	r1, [r3, r2]
    hal->active_count = 0U;
 8002138:	68fb      	ldr	r3, [r7, #12]
 800213a:	2286      	movs	r2, #134	@ 0x86
 800213c:	2100      	movs	r1, #0
 800213e:	5499      	strb	r1, [r3, r2]
    hal->running = true;
 8002140:	68fb      	ldr	r3, [r7, #12]
 8002142:	2288      	movs	r2, #136	@ 0x88
 8002144:	2101      	movs	r1, #1
 8002146:	5499      	strb	r1, [r3, r2]
    return true;
 8002148:	2301      	movs	r3, #1
}
 800214a:	0018      	movs	r0, r3
 800214c:	46bd      	mov	sp, r7
 800214e:	b004      	add	sp, #16
 8002150:	bd80      	pop	{r7, pc}

08002152 <stm32_tx_stop>:

/* Stop STM32 TX HAL: clear running flag.
 * @param context  sent_stm32f042_tx_hal_t pointer */
static void stm32_tx_stop(void* context) {
 8002152:	b580      	push	{r7, lr}
 8002154:	b084      	sub	sp, #16
 8002156:	af00      	add	r7, sp, #0
 8002158:	6078      	str	r0, [r7, #4]
    sent_stm32f042_tx_hal_t* hal = (sent_stm32f042_tx_hal_t*)context;
 800215a:	687b      	ldr	r3, [r7, #4]
 800215c:	60fb      	str	r3, [r7, #12]
    SENT_ASSERT(hal != NULL);
 800215e:	68fb      	ldr	r3, [r7, #12]
 8002160:	2b00      	cmp	r3, #0
 8002162:	d102      	bne.n	800216a <stm32_tx_stop+0x18>
 8002164:	be00      	bkpt	0x0000
 8002166:	46c0      	nop			@ (mov r8, r8)
 8002168:	e7fd      	b.n	8002166 <stm32_tx_stop+0x14>
    hal->running = false;
 800216a:	68fb      	ldr	r3, [r7, #12]
 800216c:	2288      	movs	r2, #136	@ 0x88
 800216e:	2100      	movs	r1, #0
 8002170:	5499      	strb	r1, [r3, r2]
}
 8002172:	46c0      	nop			@ (mov r8, r8)
 8002174:	46bd      	mov	sp, r7
 8002176:	b004      	add	sp, #16
 8002178:	bd80      	pop	{r7, pc}

0800217a <stm32_tx_submit>:
 * @param pause_ticks  pause pulse duration [ticks, 0 = use default]
 * @return             true if enqueued, false if queue full or encoding failed */
static bool stm32_tx_submit(void* context,
                            const sent_frame_t* frame,
                            const sent_config_t* config,
                            uint16_t pause_ticks) {
 800217a:	b5b0      	push	{r4, r5, r7, lr}
 800217c:	b092      	sub	sp, #72	@ 0x48
 800217e:	af02      	add	r7, sp, #8
 8002180:	60f8      	str	r0, [r7, #12]
 8002182:	60b9      	str	r1, [r7, #8]
 8002184:	607a      	str	r2, [r7, #4]
 8002186:	001a      	movs	r2, r3
 8002188:	1cbb      	adds	r3, r7, #2
 800218a:	801a      	strh	r2, [r3, #0]
    sent_stm32f042_tx_hal_t* hal = (sent_stm32f042_tx_hal_t*)context;
 800218c:	68fb      	ldr	r3, [r7, #12]
 800218e:	63bb      	str	r3, [r7, #56]	@ 0x38
    SENT_ASSERT(hal != NULL && frame != NULL && config != NULL);
 8002190:	6bbb      	ldr	r3, [r7, #56]	@ 0x38
 8002192:	2b00      	cmp	r3, #0
 8002194:	d005      	beq.n	80021a2 <stm32_tx_submit+0x28>
 8002196:	68bb      	ldr	r3, [r7, #8]
 8002198:	2b00      	cmp	r3, #0
 800219a:	d002      	beq.n	80021a2 <stm32_tx_submit+0x28>
 800219c:	687b      	ldr	r3, [r7, #4]
 800219e:	2b00      	cmp	r3, #0
 80021a0:	d102      	bne.n	80021a8 <stm32_tx_submit+0x2e>
 80021a2:	be00      	bkpt	0x0000
 80021a4:	46c0      	nop			@ (mov r8, r8)
 80021a6:	e7fd      	b.n	80021a4 <stm32_tx_submit+0x2a>
    if (!hal->running) {
 80021a8:	6bbb      	ldr	r3, [r7, #56]	@ 0x38
 80021aa:	2288      	movs	r2, #136	@ 0x88
 80021ac:	5c9b      	ldrb	r3, [r3, r2]
 80021ae:	2201      	movs	r2, #1
 80021b0:	4053      	eors	r3, r2
 80021b2:	b2db      	uxtb	r3, r3
 80021b4:	2b00      	cmp	r3, #0
 80021b6:	d001      	beq.n	80021bc <stm32_tx_submit+0x42>
        return false;
 80021b8:	2300      	movs	r3, #0
 80021ba:	e082      	b.n	80022c2 <stm32_tx_submit+0x148>
    }

    uint16_t encoded[SENT_STM32F042_TX_MAX_INTERVALS];
    size_t encoded_count = 0U;
 80021bc:	2300      	movs	r3, #0
 80021be:	613b      	str	r3, [r7, #16]
    uint16_t effective_pause = pause_ticks == 0U ? hal->config.default_pause_ticks : pause_ticks;
 80021c0:	1cbb      	adds	r3, r7, #2
 80021c2:	881b      	ldrh	r3, [r3, #0]
 80021c4:	2b00      	cmp	r3, #0
 80021c6:	d102      	bne.n	80021ce <stm32_tx_submit+0x54>
 80021c8:	6bbb      	ldr	r3, [r7, #56]	@ 0x38
 80021ca:	881b      	ldrh	r3, [r3, #0]
 80021cc:	e001      	b.n	80021d2 <stm32_tx_submit+0x58>
 80021ce:	1cbb      	adds	r3, r7, #2
 80021d0:	881b      	ldrh	r3, [r3, #0]
 80021d2:	2136      	movs	r1, #54	@ 0x36
 80021d4:	187a      	adds	r2, r7, r1
 80021d6:	8013      	strh	r3, [r2, #0]
    if (!sent_build_intervals_ticks(frame, config, effective_pause, encoded, &encoded_count)) {
 80021d8:	2314      	movs	r3, #20
 80021da:	18fc      	adds	r4, r7, r3
 80021dc:	187b      	adds	r3, r7, r1
 80021de:	881a      	ldrh	r2, [r3, #0]
 80021e0:	6879      	ldr	r1, [r7, #4]
 80021e2:	68b8      	ldr	r0, [r7, #8]
 80021e4:	2310      	movs	r3, #16
 80021e6:	18fb      	adds	r3, r7, r3
 80021e8:	9300      	str	r3, [sp, #0]
 80021ea:	0023      	movs	r3, r4
 80021ec:	f000 fc95 	bl	8002b1a <sent_build_intervals_ticks>
 80021f0:	0003      	movs	r3, r0
 80021f2:	001a      	movs	r2, r3
 80021f4:	2301      	movs	r3, #1
 80021f6:	4053      	eors	r3, r2
 80021f8:	b2db      	uxtb	r3, r3
 80021fa:	2b00      	cmp	r3, #0
 80021fc:	d001      	beq.n	8002202 <stm32_tx_submit+0x88>
        return false;
 80021fe:	2300      	movs	r3, #0
 8002200:	e05f      	b.n	80022c2 <stm32_tx_submit+0x148>
    }

    uint8_t head = hal->queue_head;
 8002202:	2035      	movs	r0, #53	@ 0x35
 8002204:	183b      	adds	r3, r7, r0
 8002206:	6bba      	ldr	r2, [r7, #56]	@ 0x38
 8002208:	2184      	movs	r1, #132	@ 0x84
 800220a:	5c52      	ldrb	r2, [r2, r1]
 800220c:	701a      	strb	r2, [r3, #0]
    uint8_t tail = hal->queue_tail;
 800220e:	2434      	movs	r4, #52	@ 0x34
 8002210:	193b      	adds	r3, r7, r4
 8002212:	6bba      	ldr	r2, [r7, #56]	@ 0x38
 8002214:	2185      	movs	r1, #133	@ 0x85
 8002216:	5c52      	ldrb	r2, [r2, r1]
 8002218:	701a      	strb	r2, [r3, #0]
    if (tx_queue_count(head, tail) >= hal->config.max_pending_frames) {
 800221a:	193b      	adds	r3, r7, r4
 800221c:	781a      	ldrb	r2, [r3, #0]
 800221e:	183b      	adds	r3, r7, r0
 8002220:	781b      	ldrb	r3, [r3, #0]
 8002222:	0011      	movs	r1, r2
 8002224:	0018      	movs	r0, r3
 8002226:	f7ff ff46 	bl	80020b6 <tx_queue_count>
 800222a:	0002      	movs	r2, r0
 800222c:	6bbb      	ldr	r3, [r7, #56]	@ 0x38
 800222e:	789b      	ldrb	r3, [r3, #2]
 8002230:	429a      	cmp	r2, r3
 8002232:	d301      	bcc.n	8002238 <stm32_tx_submit+0xbe>
        return false;
 8002234:	2300      	movs	r3, #0
 8002236:	e044      	b.n	80022c2 <stm32_tx_submit+0x148>
    }

    uint8_t next_head = queue_next_idx(head, SENT_STM32F042_TX_QUEUE_DEPTH);
 8002238:	2533      	movs	r5, #51	@ 0x33
 800223a:	197c      	adds	r4, r7, r5
 800223c:	2335      	movs	r3, #53	@ 0x35
 800223e:	18fb      	adds	r3, r7, r3
 8002240:	781b      	ldrb	r3, [r3, #0]
 8002242:	2104      	movs	r1, #4
 8002244:	0018      	movs	r0, r3
 8002246:	f7ff fc86 	bl	8001b56 <queue_next_idx>
 800224a:	0003      	movs	r3, r0
 800224c:	7023      	strb	r3, [r4, #0]
    if (next_head == tail) {
 800224e:	197a      	adds	r2, r7, r5
 8002250:	2334      	movs	r3, #52	@ 0x34
 8002252:	18fb      	adds	r3, r7, r3
 8002254:	7812      	ldrb	r2, [r2, #0]
 8002256:	781b      	ldrb	r3, [r3, #0]
 8002258:	429a      	cmp	r2, r3
 800225a:	d101      	bne.n	8002260 <stm32_tx_submit+0xe6>
        return false;
 800225c:	2300      	movs	r3, #0
 800225e:	e030      	b.n	80022c2 <stm32_tx_submit+0x148>
    }

    sent_stm32f042_tx_frame_intervals_t* slot = &hal->frame_queue[head];
 8002260:	2335      	movs	r3, #53	@ 0x35
 8002262:	18fb      	adds	r3, r7, r3
 8002264:	781b      	ldrb	r3, [r3, #0]
 8002266:	221a      	movs	r2, #26
 8002268:	4353      	muls	r3, r2
 800226a:	6bba      	ldr	r2, [r7, #56]	@ 0x38
 800226c:	18d3      	adds	r3, r2, r3
 800226e:	3304      	adds	r3, #4
 8002270:	62fb      	str	r3, [r7, #44]	@ 0x2c
    slot->count = (uint8_t)encoded_count;
 8002272:	693b      	ldr	r3, [r7, #16]
 8002274:	b2da      	uxtb	r2, r3
 8002276:	6afb      	ldr	r3, [r7, #44]	@ 0x2c
 8002278:	761a      	strb	r2, [r3, #24]
    for (uint8_t i = 0U; i < slot->count; ++i) {
 800227a:	233f      	movs	r3, #63	@ 0x3f
 800227c:	18fb      	adds	r3, r7, r3
 800227e:	2200      	movs	r2, #0
 8002280:	701a      	strb	r2, [r3, #0]
 8002282:	e010      	b.n	80022a6 <stm32_tx_submit+0x12c>
        slot->intervals_ticks[i] = encoded[i];
 8002284:	203f      	movs	r0, #63	@ 0x3f
 8002286:	183b      	adds	r3, r7, r0
 8002288:	7819      	ldrb	r1, [r3, #0]
 800228a:	183b      	adds	r3, r7, r0
 800228c:	781a      	ldrb	r2, [r3, #0]
 800228e:	2314      	movs	r3, #20
 8002290:	18fb      	adds	r3, r7, r3
 8002292:	0049      	lsls	r1, r1, #1
 8002294:	5ac9      	ldrh	r1, [r1, r3]
 8002296:	6afb      	ldr	r3, [r7, #44]	@ 0x2c
 8002298:	0052      	lsls	r2, r2, #1
 800229a:	52d1      	strh	r1, [r2, r3]
    for (uint8_t i = 0U; i < slot->count; ++i) {
 800229c:	183b      	adds	r3, r7, r0
 800229e:	183a      	adds	r2, r7, r0
 80022a0:	7812      	ldrb	r2, [r2, #0]
 80022a2:	3201      	adds	r2, #1
 80022a4:	701a      	strb	r2, [r3, #0]
 80022a6:	6afb      	ldr	r3, [r7, #44]	@ 0x2c
 80022a8:	7e1b      	ldrb	r3, [r3, #24]
 80022aa:	223f      	movs	r2, #63	@ 0x3f
 80022ac:	18ba      	adds	r2, r7, r2
 80022ae:	7812      	ldrb	r2, [r2, #0]
 80022b0:	429a      	cmp	r2, r3
 80022b2:	d3e7      	bcc.n	8002284 <stm32_tx_submit+0x10a>
    }

    hal->queue_head = next_head;
 80022b4:	6bbb      	ldr	r3, [r7, #56]	@ 0x38
 80022b6:	2233      	movs	r2, #51	@ 0x33
 80022b8:	18ba      	adds	r2, r7, r2
 80022ba:	2184      	movs	r1, #132	@ 0x84
 80022bc:	7812      	ldrb	r2, [r2, #0]
 80022be:	545a      	strb	r2, [r3, r1]
    return true;
 80022c0:	2301      	movs	r3, #1
}
 80022c2:	0018      	movs	r0, r3
 80022c4:	46bd      	mov	sp, r7
 80022c6:	b010      	add	sp, #64	@ 0x40
 80022c8:	bdb0      	pop	{r4, r5, r7, pc}

080022ca <sent_stm32f042_tx_hal_init>:

/* Initialize STM32 TX HAL with queue configuration (NULL config uses defaults).
 * @param hal     pointer to TX HAL instance
 * @param config  TX config (max_pending_frames, default_pause_ticks) */
void sent_stm32f042_tx_hal_init(sent_stm32f042_tx_hal_t* hal,
                                const sent_stm32f042_tx_config_t* config) {
 80022ca:	b580      	push	{r7, lr}
 80022cc:	b082      	sub	sp, #8
 80022ce:	af00      	add	r7, sp, #0
 80022d0:	6078      	str	r0, [r7, #4]
 80022d2:	6039      	str	r1, [r7, #0]
    SENT_ASSERT(hal != NULL);
 80022d4:	687b      	ldr	r3, [r7, #4]
 80022d6:	2b00      	cmp	r3, #0
 80022d8:	d102      	bne.n	80022e0 <sent_stm32f042_tx_hal_init+0x16>
 80022da:	be00      	bkpt	0x0000
 80022dc:	46c0      	nop			@ (mov r8, r8)
 80022de:	e7fd      	b.n	80022dc <sent_stm32f042_tx_hal_init+0x12>

    memset(hal, 0, sizeof(*hal));
 80022e0:	687b      	ldr	r3, [r7, #4]
 80022e2:	228a      	movs	r2, #138	@ 0x8a
 80022e4:	2100      	movs	r1, #0
 80022e6:	0018      	movs	r0, r3
 80022e8:	f004 fbef 	bl	8006aca <memset>
    if (config != NULL) {
 80022ec:	683b      	ldr	r3, [r7, #0]
 80022ee:	2b00      	cmp	r3, #0
 80022f0:	d008      	beq.n	8002304 <sent_stm32f042_tx_hal_init+0x3a>
        hal->config = *config;
 80022f2:	687a      	ldr	r2, [r7, #4]
 80022f4:	683b      	ldr	r3, [r7, #0]
 80022f6:	0010      	movs	r0, r2
 80022f8:	0019      	movs	r1, r3
 80022fa:	2304      	movs	r3, #4
 80022fc:	001a      	movs	r2, r3
 80022fe:	f004 fc11 	bl	8006b24 <memcpy>
    } else {
        hal->config.max_pending_frames = 4U;
        hal->config.default_pause_ticks = 12U;
    }
}
 8002302:	e005      	b.n	8002310 <sent_stm32f042_tx_hal_init+0x46>
        hal->config.max_pending_frames = 4U;
 8002304:	687b      	ldr	r3, [r7, #4]
 8002306:	2204      	movs	r2, #4
 8002308:	709a      	strb	r2, [r3, #2]
        hal->config.default_pause_ticks = 12U;
 800230a:	687b      	ldr	r3, [r7, #4]
 800230c:	220c      	movs	r2, #12
 800230e:	801a      	strh	r2, [r3, #0]
}
 8002310:	46c0      	nop			@ (mov r8, r8)
 8002312:	46bd      	mov	sp, r7
 8002314:	b002      	add	sp, #8
 8002316:	bd80      	pop	{r7, pc}

08002318 <sent_stm32f042_make_tx_hal>:

/* Wire STM32 TX HAL implementation into the generic TX HAL interface.
 * @param impl     STM32 TX HAL instance
 * @param out_hal  [out] generic TX HAL function-pointer struct to populate */
void sent_stm32f042_make_tx_hal(sent_stm32f042_tx_hal_t* impl, sent_tx_hal_t* out_hal) {
 8002318:	b580      	push	{r7, lr}
 800231a:	b082      	sub	sp, #8
 800231c:	af00      	add	r7, sp, #0
 800231e:	6078      	str	r0, [r7, #4]
 8002320:	6039      	str	r1, [r7, #0]
    SENT_ASSERT(out_hal != NULL);
 8002322:	683b      	ldr	r3, [r7, #0]
 8002324:	2b00      	cmp	r3, #0
 8002326:	d102      	bne.n	800232e <sent_stm32f042_make_tx_hal+0x16>
 8002328:	be00      	bkpt	0x0000
 800232a:	46c0      	nop			@ (mov r8, r8)
 800232c:	e7fd      	b.n	800232a <sent_stm32f042_make_tx_hal+0x12>

    out_hal->context = impl;
 800232e:	683b      	ldr	r3, [r7, #0]
 8002330:	687a      	ldr	r2, [r7, #4]
 8002332:	601a      	str	r2, [r3, #0]
    out_hal->start_tx = stm32_tx_start;
 8002334:	683b      	ldr	r3, [r7, #0]
 8002336:	4a06      	ldr	r2, [pc, #24]	@ (8002350 <sent_stm32f042_make_tx_hal+0x38>)
 8002338:	605a      	str	r2, [r3, #4]
    out_hal->stop_tx = stm32_tx_stop;
 800233a:	683b      	ldr	r3, [r7, #0]
 800233c:	4a05      	ldr	r2, [pc, #20]	@ (8002354 <sent_stm32f042_make_tx_hal+0x3c>)
 800233e:	609a      	str	r2, [r3, #8]
    out_hal->submit_frame = stm32_tx_submit;
 8002340:	683b      	ldr	r3, [r7, #0]
 8002342:	4a05      	ldr	r2, [pc, #20]	@ (8002358 <sent_stm32f042_make_tx_hal+0x40>)
 8002344:	60da      	str	r2, [r3, #12]
}
 8002346:	46c0      	nop			@ (mov r8, r8)
 8002348:	46bd      	mov	sp, r7
 800234a:	b002      	add	sp, #8
 800234c:	bd80      	pop	{r7, pc}
 800234e:	46c0      	nop			@ (mov r8, r8)
 8002350:	080020f5 	.word	0x080020f5
 8002354:	08002153 	.word	0x08002153
 8002358:	0800217b 	.word	0x0800217b

0800235c <sent_stm32f042_tx_pop_next_interval_ticks_from_isr>:
/* ISR handler: pop the next TX interval duration, loading next queued frame if needed.
 * @param hal                TX HAL instance
 * @param out_interval_ticks [out] next interval duration [timer ticks]
 * @return                   true if an interval was available, false if TX idle */
bool sent_stm32f042_tx_pop_next_interval_ticks_from_isr(sent_stm32f042_tx_hal_t* hal,
                                                         uint16_t* out_interval_ticks) {
 800235c:	b590      	push	{r4, r7, lr}
 800235e:	b087      	sub	sp, #28
 8002360:	af00      	add	r7, sp, #0
 8002362:	6078      	str	r0, [r7, #4]
 8002364:	6039      	str	r1, [r7, #0]
    SENT_ASSERT(hal != NULL && out_interval_ticks != NULL);
 8002366:	687b      	ldr	r3, [r7, #4]
 8002368:	2b00      	cmp	r3, #0
 800236a:	d002      	beq.n	8002372 <sent_stm32f042_tx_pop_next_interval_ticks_from_isr+0x16>
 800236c:	683b      	ldr	r3, [r7, #0]
 800236e:	2b00      	cmp	r3, #0
 8002370:	d102      	bne.n	8002378 <sent_stm32f042_tx_pop_next_interval_ticks_from_isr+0x1c>
 8002372:	be00      	bkpt	0x0000
 8002374:	46c0      	nop			@ (mov r8, r8)
 8002376:	e7fd      	b.n	8002374 <sent_stm32f042_tx_pop_next_interval_ticks_from_isr+0x18>
    if (!hal->running) {
 8002378:	687b      	ldr	r3, [r7, #4]
 800237a:	2288      	movs	r2, #136	@ 0x88
 800237c:	5c9b      	ldrb	r3, [r3, r2]
 800237e:	2201      	movs	r2, #1
 8002380:	4053      	eors	r3, r2
 8002382:	b2db      	uxtb	r3, r3
 8002384:	2b00      	cmp	r3, #0
 8002386:	d001      	beq.n	800238c <sent_stm32f042_tx_pop_next_interval_ticks_from_isr+0x30>
        return false;
 8002388:	2300      	movs	r3, #0
 800238a:	e089      	b.n	80024a0 <sent_stm32f042_tx_pop_next_interval_ticks_from_isr+0x144>
    }

    uint8_t index = hal->active_index;
 800238c:	2017      	movs	r0, #23
 800238e:	183b      	adds	r3, r7, r0
 8002390:	687a      	ldr	r2, [r7, #4]
 8002392:	2187      	movs	r1, #135	@ 0x87
 8002394:	5c52      	ldrb	r2, [r2, r1]
 8002396:	701a      	strb	r2, [r3, #0]
    uint8_t count = hal->active_count;
 8002398:	2416      	movs	r4, #22
 800239a:	193b      	adds	r3, r7, r4
 800239c:	687a      	ldr	r2, [r7, #4]
 800239e:	2186      	movs	r1, #134	@ 0x86
 80023a0:	5c52      	ldrb	r2, [r2, r1]
 80023a2:	701a      	strb	r2, [r3, #0]

    if (index >= count) {
 80023a4:	183a      	adds	r2, r7, r0
 80023a6:	193b      	adds	r3, r7, r4
 80023a8:	7812      	ldrb	r2, [r2, #0]
 80023aa:	781b      	ldrb	r3, [r3, #0]
 80023ac:	429a      	cmp	r2, r3
 80023ae:	d35a      	bcc.n	8002466 <sent_stm32f042_tx_pop_next_interval_ticks_from_isr+0x10a>
        uint8_t tail = hal->queue_tail;
 80023b0:	2014      	movs	r0, #20
 80023b2:	183b      	adds	r3, r7, r0
 80023b4:	687a      	ldr	r2, [r7, #4]
 80023b6:	2185      	movs	r1, #133	@ 0x85
 80023b8:	5c52      	ldrb	r2, [r2, r1]
 80023ba:	701a      	strb	r2, [r3, #0]
        uint8_t head = hal->queue_head;
 80023bc:	2413      	movs	r4, #19
 80023be:	193b      	adds	r3, r7, r4
 80023c0:	687a      	ldr	r2, [r7, #4]
 80023c2:	2184      	movs	r1, #132	@ 0x84
 80023c4:	5c52      	ldrb	r2, [r2, r1]
 80023c6:	701a      	strb	r2, [r3, #0]
        if (tail == head) {
 80023c8:	183a      	adds	r2, r7, r0
 80023ca:	193b      	adds	r3, r7, r4
 80023cc:	7812      	ldrb	r2, [r2, #0]
 80023ce:	781b      	ldrb	r3, [r3, #0]
 80023d0:	429a      	cmp	r2, r3
 80023d2:	d101      	bne.n	80023d8 <sent_stm32f042_tx_pop_next_interval_ticks_from_isr+0x7c>
            return false;
 80023d4:	2300      	movs	r3, #0
 80023d6:	e063      	b.n	80024a0 <sent_stm32f042_tx_pop_next_interval_ticks_from_isr+0x144>
        }

        sent_stm32f042_tx_frame_intervals_t* queued = &hal->frame_queue[tail];
 80023d8:	2314      	movs	r3, #20
 80023da:	18fb      	adds	r3, r7, r3
 80023dc:	781b      	ldrb	r3, [r3, #0]
 80023de:	221a      	movs	r2, #26
 80023e0:	4353      	muls	r3, r2
 80023e2:	687a      	ldr	r2, [r7, #4]
 80023e4:	18d3      	adds	r3, r2, r3
 80023e6:	3304      	adds	r3, #4
 80023e8:	60fb      	str	r3, [r7, #12]
        for (uint8_t i = 0U; i < queued->count; ++i) {
 80023ea:	2315      	movs	r3, #21
 80023ec:	18fb      	adds	r3, r7, r3
 80023ee:	2200      	movs	r2, #0
 80023f0:	701a      	strb	r2, [r3, #0]
 80023f2:	e013      	b.n	800241c <sent_stm32f042_tx_pop_next_interval_ticks_from_isr+0xc0>
            hal->active_intervals[i] = queued->intervals_ticks[i];
 80023f4:	2015      	movs	r0, #21
 80023f6:	183b      	adds	r3, r7, r0
 80023f8:	7819      	ldrb	r1, [r3, #0]
 80023fa:	183b      	adds	r3, r7, r0
 80023fc:	781b      	ldrb	r3, [r3, #0]
 80023fe:	68fa      	ldr	r2, [r7, #12]
 8002400:	0049      	lsls	r1, r1, #1
 8002402:	5a89      	ldrh	r1, [r1, r2]
 8002404:	687a      	ldr	r2, [r7, #4]
 8002406:	3334      	adds	r3, #52	@ 0x34
 8002408:	005b      	lsls	r3, r3, #1
 800240a:	18d3      	adds	r3, r2, r3
 800240c:	3304      	adds	r3, #4
 800240e:	1c0a      	adds	r2, r1, #0
 8002410:	801a      	strh	r2, [r3, #0]
        for (uint8_t i = 0U; i < queued->count; ++i) {
 8002412:	183b      	adds	r3, r7, r0
 8002414:	183a      	adds	r2, r7, r0
 8002416:	7812      	ldrb	r2, [r2, #0]
 8002418:	3201      	adds	r2, #1
 800241a:	701a      	strb	r2, [r3, #0]
 800241c:	68fb      	ldr	r3, [r7, #12]
 800241e:	7e1b      	ldrb	r3, [r3, #24]
 8002420:	2215      	movs	r2, #21
 8002422:	18ba      	adds	r2, r7, r2
 8002424:	7812      	ldrb	r2, [r2, #0]
 8002426:	429a      	cmp	r2, r3
 8002428:	d3e4      	bcc.n	80023f4 <sent_stm32f042_tx_pop_next_interval_ticks_from_isr+0x98>
        }

        hal->queue_tail = queue_next_idx(tail, SENT_STM32F042_TX_QUEUE_DEPTH);
 800242a:	2314      	movs	r3, #20
 800242c:	18fb      	adds	r3, r7, r3
 800242e:	781b      	ldrb	r3, [r3, #0]
 8002430:	2104      	movs	r1, #4
 8002432:	0018      	movs	r0, r3
 8002434:	f7ff fb8f 	bl	8001b56 <queue_next_idx>
 8002438:	0003      	movs	r3, r0
 800243a:	0019      	movs	r1, r3
 800243c:	687b      	ldr	r3, [r7, #4]
 800243e:	2285      	movs	r2, #133	@ 0x85
 8002440:	5499      	strb	r1, [r3, r2]
        hal->active_count = queued->count;
 8002442:	68fb      	ldr	r3, [r7, #12]
 8002444:	7e19      	ldrb	r1, [r3, #24]
 8002446:	687b      	ldr	r3, [r7, #4]
 8002448:	2286      	movs	r2, #134	@ 0x86
 800244a:	5499      	strb	r1, [r3, r2]
        hal->active_index = 0U;
 800244c:	687b      	ldr	r3, [r7, #4]
 800244e:	2287      	movs	r2, #135	@ 0x87
 8002450:	2100      	movs	r1, #0
 8002452:	5499      	strb	r1, [r3, r2]
        index = 0U;
 8002454:	2317      	movs	r3, #23
 8002456:	18fb      	adds	r3, r7, r3
 8002458:	2200      	movs	r2, #0
 800245a:	701a      	strb	r2, [r3, #0]
        count = queued->count;
 800245c:	2316      	movs	r3, #22
 800245e:	18fb      	adds	r3, r7, r3
 8002460:	68fa      	ldr	r2, [r7, #12]
 8002462:	7e12      	ldrb	r2, [r2, #24]
 8002464:	701a      	strb	r2, [r3, #0]
    }

    if (index >= count) {
 8002466:	2317      	movs	r3, #23
 8002468:	18fa      	adds	r2, r7, r3
 800246a:	2316      	movs	r3, #22
 800246c:	18fb      	adds	r3, r7, r3
 800246e:	7812      	ldrb	r2, [r2, #0]
 8002470:	781b      	ldrb	r3, [r3, #0]
 8002472:	429a      	cmp	r2, r3
 8002474:	d301      	bcc.n	800247a <sent_stm32f042_tx_pop_next_interval_ticks_from_isr+0x11e>
        return false;
 8002476:	2300      	movs	r3, #0
 8002478:	e012      	b.n	80024a0 <sent_stm32f042_tx_pop_next_interval_ticks_from_isr+0x144>
    }

    *out_interval_ticks = hal->active_intervals[index];
 800247a:	2117      	movs	r1, #23
 800247c:	187b      	adds	r3, r7, r1
 800247e:	781b      	ldrb	r3, [r3, #0]
 8002480:	687a      	ldr	r2, [r7, #4]
 8002482:	3334      	adds	r3, #52	@ 0x34
 8002484:	005b      	lsls	r3, r3, #1
 8002486:	18d3      	adds	r3, r2, r3
 8002488:	3304      	adds	r3, #4
 800248a:	881a      	ldrh	r2, [r3, #0]
 800248c:	683b      	ldr	r3, [r7, #0]
 800248e:	801a      	strh	r2, [r3, #0]
    hal->active_index = (uint8_t)(index + 1U);
 8002490:	187b      	adds	r3, r7, r1
 8002492:	781b      	ldrb	r3, [r3, #0]
 8002494:	3301      	adds	r3, #1
 8002496:	b2d9      	uxtb	r1, r3
 8002498:	687b      	ldr	r3, [r7, #4]
 800249a:	2287      	movs	r2, #135	@ 0x87
 800249c:	5499      	strb	r1, [r3, r2]
    return true;
 800249e:	2301      	movs	r3, #1
}
 80024a0:	0018      	movs	r0, r3
 80024a2:	46bd      	mov	sp, r7
 80024a4:	b007      	add	sp, #28
 80024a6:	bd90      	pop	{r4, r7, pc}

080024a8 <sent_stm32f042_tx_pending_frames>:

/* Return the number of frames pending transmission (queued + active).
 * @param hal  TX HAL instance
 * @return     number of pending frames */
size_t sent_stm32f042_tx_pending_frames(const sent_stm32f042_tx_hal_t* hal) {
 80024a8:	b580      	push	{r7, lr}
 80024aa:	b084      	sub	sp, #16
 80024ac:	af00      	add	r7, sp, #0
 80024ae:	6078      	str	r0, [r7, #4]
    SENT_ASSERT(hal != NULL);
 80024b0:	687b      	ldr	r3, [r7, #4]
 80024b2:	2b00      	cmp	r3, #0
 80024b4:	d102      	bne.n	80024bc <sent_stm32f042_tx_pending_frames+0x14>
 80024b6:	be00      	bkpt	0x0000
 80024b8:	46c0      	nop			@ (mov r8, r8)
 80024ba:	e7fd      	b.n	80024b8 <sent_stm32f042_tx_pending_frames+0x10>

    size_t pending = tx_queue_count(hal->queue_head, hal->queue_tail);
 80024bc:	687b      	ldr	r3, [r7, #4]
 80024be:	2284      	movs	r2, #132	@ 0x84
 80024c0:	5c9b      	ldrb	r3, [r3, r2]
 80024c2:	b2da      	uxtb	r2, r3
 80024c4:	687b      	ldr	r3, [r7, #4]
 80024c6:	2185      	movs	r1, #133	@ 0x85
 80024c8:	5c5b      	ldrb	r3, [r3, r1]
 80024ca:	b2db      	uxtb	r3, r3
 80024cc:	0019      	movs	r1, r3
 80024ce:	0010      	movs	r0, r2
 80024d0:	f7ff fdf1 	bl	80020b6 <tx_queue_count>
 80024d4:	0003      	movs	r3, r0
 80024d6:	60fb      	str	r3, [r7, #12]
    if (hal->active_index < hal->active_count) {
 80024d8:	687b      	ldr	r3, [r7, #4]
 80024da:	2287      	movs	r2, #135	@ 0x87
 80024dc:	5c9a      	ldrb	r2, [r3, r2]
 80024de:	687b      	ldr	r3, [r7, #4]
 80024e0:	2186      	movs	r1, #134	@ 0x86
 80024e2:	5c5b      	ldrb	r3, [r3, r1]
 80024e4:	429a      	cmp	r2, r3
 80024e6:	d202      	bcs.n	80024ee <sent_stm32f042_tx_pending_frames+0x46>
        pending += 1U;
 80024e8:	68fb      	ldr	r3, [r7, #12]
 80024ea:	3301      	adds	r3, #1
 80024ec:	60fb      	str	r3, [r7, #12]
    }
    return pending;
 80024ee:	68fb      	ldr	r3, [r7, #12]
}
 80024f0:	0018      	movs	r0, r3
 80024f2:	46bd      	mov	sp, r7
 80024f4:	b004      	add	sp, #16
 80024f6:	bd80      	pop	{r7, pc}

080024f8 <sent_mode_manager_init>:
#include "sent/sent_assert.h"
#include <string.h>

/* Initialize mode manager to STOPPED state and zero all statistics counters.
 * @param manager  pointer to mode manager instance */
void sent_mode_manager_init(sent_mode_manager_t* manager) {
 80024f8:	b580      	push	{r7, lr}
 80024fa:	b082      	sub	sp, #8
 80024fc:	af00      	add	r7, sp, #0
 80024fe:	6078      	str	r0, [r7, #4]
    SENT_ASSERT(manager != NULL);
 8002500:	687b      	ldr	r3, [r7, #4]
 8002502:	2b00      	cmp	r3, #0
 8002504:	d102      	bne.n	800250c <sent_mode_manager_init+0x14>
 8002506:	be00      	bkpt	0x0000
 8002508:	46c0      	nop			@ (mov r8, r8)
 800250a:	e7fd      	b.n	8002508 <sent_mode_manager_init+0x10>
    manager->mode = SENT_MODE_STOPPED;
 800250c:	687b      	ldr	r3, [r7, #4]
 800250e:	2200      	movs	r2, #0
 8002510:	701a      	strb	r2, [r3, #0]
    memset(&manager->stats, 0, sizeof(manager->stats));
 8002512:	687b      	ldr	r3, [r7, #4]
 8002514:	3304      	adds	r3, #4
 8002516:	2210      	movs	r2, #16
 8002518:	2100      	movs	r1, #0
 800251a:	0018      	movs	r0, r3
 800251c:	f004 fad5 	bl	8006aca <memset>
}
 8002520:	46c0      	nop			@ (mov r8, r8)
 8002522:	46bd      	mov	sp, r7
 8002524:	b002      	add	sp, #8
 8002526:	bd80      	pop	{r7, pc}

08002528 <sent_mode_manager_start_rx>:

/* Transition mode manager to RX (receive) mode.
 * @param manager  pointer to mode manager instance */
void sent_mode_manager_start_rx(sent_mode_manager_t* manager) {
 8002528:	b580      	push	{r7, lr}
 800252a:	b082      	sub	sp, #8
 800252c:	af00      	add	r7, sp, #0
 800252e:	6078      	str	r0, [r7, #4]
    SENT_ASSERT(manager != NULL);
 8002530:	687b      	ldr	r3, [r7, #4]
 8002532:	2b00      	cmp	r3, #0
 8002534:	d102      	bne.n	800253c <sent_mode_manager_start_rx+0x14>
 8002536:	be00      	bkpt	0x0000
 8002538:	46c0      	nop			@ (mov r8, r8)
 800253a:	e7fd      	b.n	8002538 <sent_mode_manager_start_rx+0x10>
    manager->mode = SENT_MODE_RX;
 800253c:	687b      	ldr	r3, [r7, #4]
 800253e:	2201      	movs	r2, #1
 8002540:	701a      	strb	r2, [r3, #0]
}
 8002542:	46c0      	nop			@ (mov r8, r8)
 8002544:	46bd      	mov	sp, r7
 8002546:	b002      	add	sp, #8
 8002548:	bd80      	pop	{r7, pc}

0800254a <sent_mode_manager_start_tx>:

/* Transition mode manager to TX (transmit) mode.
 * @param manager  pointer to mode manager instance */
void sent_mode_manager_start_tx(sent_mode_manager_t* manager) {
 800254a:	b580      	push	{r7, lr}
 800254c:	b082      	sub	sp, #8
 800254e:	af00      	add	r7, sp, #0
 8002550:	6078      	str	r0, [r7, #4]
    SENT_ASSERT(manager != NULL);
 8002552:	687b      	ldr	r3, [r7, #4]
 8002554:	2b00      	cmp	r3, #0
 8002556:	d102      	bne.n	800255e <sent_mode_manager_start_tx+0x14>
 8002558:	be00      	bkpt	0x0000
 800255a:	46c0      	nop			@ (mov r8, r8)
 800255c:	e7fd      	b.n	800255a <sent_mode_manager_start_tx+0x10>
    manager->mode = SENT_MODE_TX;
 800255e:	687b      	ldr	r3, [r7, #4]
 8002560:	2202      	movs	r2, #2
 8002562:	701a      	strb	r2, [r3, #0]
}
 8002564:	46c0      	nop			@ (mov r8, r8)
 8002566:	46bd      	mov	sp, r7
 8002568:	b002      	add	sp, #8
 800256a:	bd80      	pop	{r7, pc}

0800256c <sent_mode_manager_stop>:

/* Transition mode manager to STOPPED mode.
 * @param manager  pointer to mode manager instance */
void sent_mode_manager_stop(sent_mode_manager_t* manager) {
 800256c:	b580      	push	{r7, lr}
 800256e:	b082      	sub	sp, #8
 8002570:	af00      	add	r7, sp, #0
 8002572:	6078      	str	r0, [r7, #4]
    SENT_ASSERT(manager != NULL);
 8002574:	687b      	ldr	r3, [r7, #4]
 8002576:	2b00      	cmp	r3, #0
 8002578:	d102      	bne.n	8002580 <sent_mode_manager_stop+0x14>
 800257a:	be00      	bkpt	0x0000
 800257c:	46c0      	nop			@ (mov r8, r8)
 800257e:	e7fd      	b.n	800257c <sent_mode_manager_stop+0x10>
    manager->mode = SENT_MODE_STOPPED;
 8002580:	687b      	ldr	r3, [r7, #4]
 8002582:	2200      	movs	r2, #0
 8002584:	701a      	strb	r2, [r3, #0]
}
 8002586:	46c0      	nop			@ (mov r8, r8)
 8002588:	46bd      	mov	sp, r7
 800258a:	b002      	add	sp, #8
 800258c:	bd80      	pop	{r7, pc}

0800258e <sent_crc4_j2716>:
 * @param status_nibble 4-bit status nibble (used only when mode includes status)
 * @return              4-bit CRC result (0x0-0xF) */
uint8_t sent_crc4_j2716(const uint8_t* data_nibbles,
                        size_t nibble_count,
                        sent_crc_mode_t mode,
                        uint8_t status_nibble) {
 800258e:	b590      	push	{r4, r7, lr}
 8002590:	b08b      	sub	sp, #44	@ 0x2c
 8002592:	af00      	add	r7, sp, #0
 8002594:	60f8      	str	r0, [r7, #12]
 8002596:	60b9      	str	r1, [r7, #8]
 8002598:	0019      	movs	r1, r3
 800259a:	1dfb      	adds	r3, r7, #7
 800259c:	701a      	strb	r2, [r3, #0]
 800259e:	1dbb      	adds	r3, r7, #6
 80025a0:	1c0a      	adds	r2, r1, #0
 80025a2:	701a      	strb	r2, [r3, #0]
    uint8_t crc = 0x05U;
 80025a4:	2027      	movs	r0, #39	@ 0x27
 80025a6:	183b      	adds	r3, r7, r0
 80025a8:	2205      	movs	r2, #5
 80025aa:	701a      	strb	r2, [r3, #0]

    if (mode == SENT_CRC_MODE_STATUS_AND_DATA) {
 80025ac:	1dfb      	adds	r3, r7, #7
 80025ae:	781b      	ldrb	r3, [r3, #0]
 80025b0:	2b01      	cmp	r3, #1
 80025b2:	d132      	bne.n	800261a <sent_crc4_j2716+0x8c>
        uint8_t nibble = (uint8_t)(status_nibble & 0x0FU);
 80025b4:	2417      	movs	r4, #23
 80025b6:	193b      	adds	r3, r7, r4
 80025b8:	1dba      	adds	r2, r7, #6
 80025ba:	7812      	ldrb	r2, [r2, #0]
 80025bc:	210f      	movs	r1, #15
 80025be:	400a      	ands	r2, r1
 80025c0:	701a      	strb	r2, [r3, #0]
        crc ^= nibble;
 80025c2:	183b      	adds	r3, r7, r0
 80025c4:	1839      	adds	r1, r7, r0
 80025c6:	193a      	adds	r2, r7, r4
 80025c8:	7809      	ldrb	r1, [r1, #0]
 80025ca:	7812      	ldrb	r2, [r2, #0]
 80025cc:	404a      	eors	r2, r1
 80025ce:	701a      	strb	r2, [r3, #0]
        for (int bit = 0; bit < 4; ++bit) {
 80025d0:	2300      	movs	r3, #0
 80025d2:	623b      	str	r3, [r7, #32]
 80025d4:	e01e      	b.n	8002614 <sent_crc4_j2716+0x86>
            if ((crc & 0x08U) != 0U) {
 80025d6:	2127      	movs	r1, #39	@ 0x27
 80025d8:	187b      	adds	r3, r7, r1
 80025da:	781b      	ldrb	r3, [r3, #0]
 80025dc:	2208      	movs	r2, #8
 80025de:	4013      	ands	r3, r2
 80025e0:	d008      	beq.n	80025f4 <sent_crc4_j2716+0x66>
                crc = (uint8_t)((crc << 1U) ^ 0x0DU);
 80025e2:	187b      	adds	r3, r7, r1
 80025e4:	781b      	ldrb	r3, [r3, #0]
 80025e6:	18db      	adds	r3, r3, r3
 80025e8:	b2da      	uxtb	r2, r3
 80025ea:	187b      	adds	r3, r7, r1
 80025ec:	210d      	movs	r1, #13
 80025ee:	404a      	eors	r2, r1
 80025f0:	701a      	strb	r2, [r3, #0]
 80025f2:	e005      	b.n	8002600 <sent_crc4_j2716+0x72>
            } else {
                crc = (uint8_t)(crc << 1U);
 80025f4:	2327      	movs	r3, #39	@ 0x27
 80025f6:	18fa      	adds	r2, r7, r3
 80025f8:	18fb      	adds	r3, r7, r3
 80025fa:	781b      	ldrb	r3, [r3, #0]
 80025fc:	18db      	adds	r3, r3, r3
 80025fe:	7013      	strb	r3, [r2, #0]
            }
            crc &= 0x0FU;
 8002600:	2227      	movs	r2, #39	@ 0x27
 8002602:	18bb      	adds	r3, r7, r2
 8002604:	18ba      	adds	r2, r7, r2
 8002606:	7812      	ldrb	r2, [r2, #0]
 8002608:	210f      	movs	r1, #15
 800260a:	400a      	ands	r2, r1
 800260c:	701a      	strb	r2, [r3, #0]
        for (int bit = 0; bit < 4; ++bit) {
 800260e:	6a3b      	ldr	r3, [r7, #32]
 8002610:	3301      	adds	r3, #1
 8002612:	623b      	str	r3, [r7, #32]
 8002614:	6a3b      	ldr	r3, [r7, #32]
 8002616:	2b03      	cmp	r3, #3
 8002618:	dddd      	ble.n	80025d6 <sent_crc4_j2716+0x48>
        }
    }

    if (data_nibbles != NULL) {
 800261a:	68fb      	ldr	r3, [r7, #12]
 800261c:	2b00      	cmp	r3, #0
 800261e:	d03f      	beq.n	80026a0 <sent_crc4_j2716+0x112>
        for (size_t i = 0; i < nibble_count; ++i) {
 8002620:	2300      	movs	r3, #0
 8002622:	61fb      	str	r3, [r7, #28]
 8002624:	e038      	b.n	8002698 <sent_crc4_j2716+0x10a>
            uint8_t nibble = (uint8_t)(data_nibbles[i] & 0x0FU);
 8002626:	68fa      	ldr	r2, [r7, #12]
 8002628:	69fb      	ldr	r3, [r7, #28]
 800262a:	18d3      	adds	r3, r2, r3
 800262c:	781a      	ldrb	r2, [r3, #0]
 800262e:	2016      	movs	r0, #22
 8002630:	183b      	adds	r3, r7, r0
 8002632:	210f      	movs	r1, #15
 8002634:	400a      	ands	r2, r1
 8002636:	701a      	strb	r2, [r3, #0]
            crc ^= nibble;
 8002638:	2227      	movs	r2, #39	@ 0x27
 800263a:	18bb      	adds	r3, r7, r2
 800263c:	18b9      	adds	r1, r7, r2
 800263e:	183a      	adds	r2, r7, r0
 8002640:	7809      	ldrb	r1, [r1, #0]
 8002642:	7812      	ldrb	r2, [r2, #0]
 8002644:	404a      	eors	r2, r1
 8002646:	701a      	strb	r2, [r3, #0]
            for (int bit = 0; bit < 4; ++bit) {
 8002648:	2300      	movs	r3, #0
 800264a:	61bb      	str	r3, [r7, #24]
 800264c:	e01e      	b.n	800268c <sent_crc4_j2716+0xfe>
                if ((crc & 0x08U) != 0U) {
 800264e:	2127      	movs	r1, #39	@ 0x27
 8002650:	187b      	adds	r3, r7, r1
 8002652:	781b      	ldrb	r3, [r3, #0]
 8002654:	2208      	movs	r2, #8
 8002656:	4013      	ands	r3, r2
 8002658:	d008      	beq.n	800266c <sent_crc4_j2716+0xde>
                    crc = (uint8_t)((crc << 1U) ^ 0x0DU);
 800265a:	187b      	adds	r3, r7, r1
 800265c:	781b      	ldrb	r3, [r3, #0]
 800265e:	18db      	adds	r3, r3, r3
 8002660:	b2da      	uxtb	r2, r3
 8002662:	187b      	adds	r3, r7, r1
 8002664:	210d      	movs	r1, #13
 8002666:	404a      	eors	r2, r1
 8002668:	701a      	strb	r2, [r3, #0]
 800266a:	e005      	b.n	8002678 <sent_crc4_j2716+0xea>
                } else {
                    crc = (uint8_t)(crc << 1U);
 800266c:	2327      	movs	r3, #39	@ 0x27
 800266e:	18fa      	adds	r2, r7, r3
 8002670:	18fb      	adds	r3, r7, r3
 8002672:	781b      	ldrb	r3, [r3, #0]
 8002674:	18db      	adds	r3, r3, r3
 8002676:	7013      	strb	r3, [r2, #0]
                }
                crc &= 0x0FU;
 8002678:	2227      	movs	r2, #39	@ 0x27
 800267a:	18bb      	adds	r3, r7, r2
 800267c:	18ba      	adds	r2, r7, r2
 800267e:	7812      	ldrb	r2, [r2, #0]
 8002680:	210f      	movs	r1, #15
 8002682:	400a      	ands	r2, r1
 8002684:	701a      	strb	r2, [r3, #0]
            for (int bit = 0; bit < 4; ++bit) {
 8002686:	69bb      	ldr	r3, [r7, #24]
 8002688:	3301      	adds	r3, #1
 800268a:	61bb      	str	r3, [r7, #24]
 800268c:	69bb      	ldr	r3, [r7, #24]
 800268e:	2b03      	cmp	r3, #3
 8002690:	dddd      	ble.n	800264e <sent_crc4_j2716+0xc0>
        for (size_t i = 0; i < nibble_count; ++i) {
 8002692:	69fb      	ldr	r3, [r7, #28]
 8002694:	3301      	adds	r3, #1
 8002696:	61fb      	str	r3, [r7, #28]
 8002698:	69fa      	ldr	r2, [r7, #28]
 800269a:	68bb      	ldr	r3, [r7, #8]
 800269c:	429a      	cmp	r2, r3
 800269e:	d3c2      	bcc.n	8002626 <sent_crc4_j2716+0x98>
            }
        }
    }

    return (uint8_t)(crc & 0x0FU);
 80026a0:	2327      	movs	r3, #39	@ 0x27
 80026a2:	18fb      	adds	r3, r7, r3
 80026a4:	781b      	ldrb	r3, [r3, #0]
 80026a6:	220f      	movs	r2, #15
 80026a8:	4013      	ands	r3, r2
 80026aa:	b2db      	uxtb	r3, r3
}
 80026ac:	0018      	movs	r0, r3
 80026ae:	46bd      	mov	sp, r7
 80026b0:	b00b      	add	sp, #44	@ 0x2c
 80026b2:	bd90      	pop	{r4, r7, pc}

080026b4 <decode_nibble_array>:
static bool decode_nibble_array(const uint32_t* intervals,
                                 size_t offset,
                                 size_t required_nibbles,
                                 uint32_t sync_us,
                                 uint32_t tolerance_us,
                                 uint8_t* out_nibbles) {
 80026b4:	b580      	push	{r7, lr}
 80026b6:	b08a      	sub	sp, #40	@ 0x28
 80026b8:	af00      	add	r7, sp, #0
 80026ba:	60f8      	str	r0, [r7, #12]
 80026bc:	60b9      	str	r1, [r7, #8]
 80026be:	607a      	str	r2, [r7, #4]
 80026c0:	603b      	str	r3, [r7, #0]
    for (size_t j = 0U; j < required_nibbles; ++j) {
 80026c2:	2300      	movs	r3, #0
 80026c4:	627b      	str	r3, [r7, #36]	@ 0x24
 80026c6:	e040      	b.n	800274a <decode_nibble_array+0x96>
        uint32_t interval_us = intervals[offset + j];
 80026c8:	68ba      	ldr	r2, [r7, #8]
 80026ca:	6a7b      	ldr	r3, [r7, #36]	@ 0x24
 80026cc:	18d3      	adds	r3, r2, r3
 80026ce:	009b      	lsls	r3, r3, #2
 80026d0:	68fa      	ldr	r2, [r7, #12]
 80026d2:	18d3      	adds	r3, r2, r3
 80026d4:	681b      	ldr	r3, [r3, #0]
 80026d6:	623b      	str	r3, [r7, #32]
        uint32_t scaled = interval_us * SENT_SYNC_TICKS;
 80026d8:	6a3a      	ldr	r2, [r7, #32]
 80026da:	0013      	movs	r3, r2
 80026dc:	00db      	lsls	r3, r3, #3
 80026de:	1a9b      	subs	r3, r3, r2
 80026e0:	00db      	lsls	r3, r3, #3
 80026e2:	61fb      	str	r3, [r7, #28]
        uint32_t nibble_ticks = (scaled + (sync_us / 2U)) / sync_us;
 80026e4:	683b      	ldr	r3, [r7, #0]
 80026e6:	085a      	lsrs	r2, r3, #1
 80026e8:	69fb      	ldr	r3, [r7, #28]
 80026ea:	18d3      	adds	r3, r2, r3
 80026ec:	6839      	ldr	r1, [r7, #0]
 80026ee:	0018      	movs	r0, r3
 80026f0:	f7fd fd30 	bl	8000154 <__udivsi3>
 80026f4:	0003      	movs	r3, r0
 80026f6:	61bb      	str	r3, [r7, #24]
         * Tolerance check equivalent to:
         *   abs(real_ticks - rounded_ticks) <= 0.35
         * done in integer arithmetic:
         *   abs(scaled - rounded*sync) / sync <= 0.35
         */
        uint32_t expected = nibble_ticks * sync_us;
 80026f8:	69bb      	ldr	r3, [r7, #24]
 80026fa:	683a      	ldr	r2, [r7, #0]
 80026fc:	4353      	muls	r3, r2
 80026fe:	617b      	str	r3, [r7, #20]
        uint32_t diff = (scaled >= expected) ? (scaled - expected) : (expected - scaled);
 8002700:	69fa      	ldr	r2, [r7, #28]
 8002702:	697b      	ldr	r3, [r7, #20]
 8002704:	429a      	cmp	r2, r3
 8002706:	d303      	bcc.n	8002710 <decode_nibble_array+0x5c>
 8002708:	69fa      	ldr	r2, [r7, #28]
 800270a:	697b      	ldr	r3, [r7, #20]
 800270c:	1ad3      	subs	r3, r2, r3
 800270e:	e002      	b.n	8002716 <decode_nibble_array+0x62>
 8002710:	697a      	ldr	r2, [r7, #20]
 8002712:	69fb      	ldr	r3, [r7, #28]
 8002714:	1ad3      	subs	r3, r2, r3
 8002716:	613b      	str	r3, [r7, #16]
        if (diff > tolerance_us) {
 8002718:	693a      	ldr	r2, [r7, #16]
 800271a:	6b3b      	ldr	r3, [r7, #48]	@ 0x30
 800271c:	429a      	cmp	r2, r3
 800271e:	d901      	bls.n	8002724 <decode_nibble_array+0x70>
            return false;
 8002720:	2300      	movs	r3, #0
 8002722:	e017      	b.n	8002754 <decode_nibble_array+0xa0>
        }
        if (nibble_ticks < SENT_NIBBLE_MIN_TICKS || nibble_ticks > SENT_NIBBLE_MAX_TICKS) {
 8002724:	69bb      	ldr	r3, [r7, #24]
 8002726:	2b0b      	cmp	r3, #11
 8002728:	d902      	bls.n	8002730 <decode_nibble_array+0x7c>
 800272a:	69bb      	ldr	r3, [r7, #24]
 800272c:	2b1b      	cmp	r3, #27
 800272e:	d901      	bls.n	8002734 <decode_nibble_array+0x80>
            return false;
 8002730:	2300      	movs	r3, #0
 8002732:	e00f      	b.n	8002754 <decode_nibble_array+0xa0>
        }
        out_nibbles[j] = (uint8_t)(nibble_ticks - SENT_NIBBLE_OFFSET);
 8002734:	69bb      	ldr	r3, [r7, #24]
 8002736:	b2da      	uxtb	r2, r3
 8002738:	6b79      	ldr	r1, [r7, #52]	@ 0x34
 800273a:	6a7b      	ldr	r3, [r7, #36]	@ 0x24
 800273c:	18cb      	adds	r3, r1, r3
 800273e:	3a0c      	subs	r2, #12
 8002740:	b2d2      	uxtb	r2, r2
 8002742:	701a      	strb	r2, [r3, #0]
    for (size_t j = 0U; j < required_nibbles; ++j) {
 8002744:	6a7b      	ldr	r3, [r7, #36]	@ 0x24
 8002746:	3301      	adds	r3, #1
 8002748:	627b      	str	r3, [r7, #36]	@ 0x24
 800274a:	6a7a      	ldr	r2, [r7, #36]	@ 0x24
 800274c:	687b      	ldr	r3, [r7, #4]
 800274e:	429a      	cmp	r2, r3
 8002750:	d3ba      	bcc.n	80026c8 <decode_nibble_array+0x14>
    }
    return true;
 8002752:	2301      	movs	r3, #1
}
 8002754:	0018      	movs	r0, r3
 8002756:	46bd      	mov	sp, r7
 8002758:	b00a      	add	sp, #40	@ 0x28
 800275a:	bd80      	pop	{r7, pc}

0800275c <decode_pause_interval>:
 * @param out_ticks     [out] rounded pause duration [ticks]
 * @return              true if pause interval is within spec */
static bool decode_pause_interval(uint32_t pause_us,
                                   uint32_t sync_us,
                                   uint32_t tolerance_us,
                                   uint16_t* out_ticks) {
 800275c:	b580      	push	{r7, lr}
 800275e:	b088      	sub	sp, #32
 8002760:	af00      	add	r7, sp, #0
 8002762:	60f8      	str	r0, [r7, #12]
 8002764:	60b9      	str	r1, [r7, #8]
 8002766:	607a      	str	r2, [r7, #4]
 8002768:	603b      	str	r3, [r7, #0]
    uint32_t pause_scaled = pause_us * SENT_SYNC_TICKS;
 800276a:	68fa      	ldr	r2, [r7, #12]
 800276c:	0013      	movs	r3, r2
 800276e:	00db      	lsls	r3, r3, #3
 8002770:	1a9b      	subs	r3, r3, r2
 8002772:	00db      	lsls	r3, r3, #3
 8002774:	61fb      	str	r3, [r7, #28]
    uint32_t pause_ticks = (pause_scaled + (sync_us / 2U)) / sync_us;
 8002776:	68bb      	ldr	r3, [r7, #8]
 8002778:	085a      	lsrs	r2, r3, #1
 800277a:	69fb      	ldr	r3, [r7, #28]
 800277c:	18d3      	adds	r3, r2, r3
 800277e:	68b9      	ldr	r1, [r7, #8]
 8002780:	0018      	movs	r0, r3
 8002782:	f7fd fce7 	bl	8000154 <__udivsi3>
 8002786:	0003      	movs	r3, r0
 8002788:	61bb      	str	r3, [r7, #24]
    uint32_t pause_expected = pause_ticks * sync_us;
 800278a:	69bb      	ldr	r3, [r7, #24]
 800278c:	68ba      	ldr	r2, [r7, #8]
 800278e:	4353      	muls	r3, r2
 8002790:	617b      	str	r3, [r7, #20]
    uint32_t pause_diff = (pause_scaled >= pause_expected)
                              ? (pause_scaled - pause_expected)
                              : (pause_expected - pause_scaled);
 8002792:	69fa      	ldr	r2, [r7, #28]
 8002794:	697b      	ldr	r3, [r7, #20]
 8002796:	429a      	cmp	r2, r3
 8002798:	d303      	bcc.n	80027a2 <decode_pause_interval+0x46>
 800279a:	69fa      	ldr	r2, [r7, #28]
 800279c:	697b      	ldr	r3, [r7, #20]
 800279e:	1ad3      	subs	r3, r2, r3
 80027a0:	e002      	b.n	80027a8 <decode_pause_interval+0x4c>
 80027a2:	697a      	ldr	r2, [r7, #20]
 80027a4:	69fb      	ldr	r3, [r7, #28]
 80027a6:	1ad3      	subs	r3, r2, r3
    uint32_t pause_diff = (pause_scaled >= pause_expected)
 80027a8:	613b      	str	r3, [r7, #16]
    if (pause_diff > tolerance_us ||
 80027aa:	693a      	ldr	r2, [r7, #16]
 80027ac:	687b      	ldr	r3, [r7, #4]
 80027ae:	429a      	cmp	r2, r3
 80027b0:	d807      	bhi.n	80027c2 <decode_pause_interval+0x66>
 80027b2:	69bb      	ldr	r3, [r7, #24]
 80027b4:	2b0b      	cmp	r3, #11
 80027b6:	d904      	bls.n	80027c2 <decode_pause_interval+0x66>
        pause_ticks < SENT_NIBBLE_MIN_TICKS || pause_ticks > SENT_MAX_PAUSE_TICKS) {
 80027b8:	69ba      	ldr	r2, [r7, #24]
 80027ba:	23c0      	movs	r3, #192	@ 0xc0
 80027bc:	009b      	lsls	r3, r3, #2
 80027be:	429a      	cmp	r2, r3
 80027c0:	d901      	bls.n	80027c6 <decode_pause_interval+0x6a>
        return false;
 80027c2:	2300      	movs	r3, #0
 80027c4:	e004      	b.n	80027d0 <decode_pause_interval+0x74>
    }
    *out_ticks = (uint16_t)pause_ticks;
 80027c6:	69bb      	ldr	r3, [r7, #24]
 80027c8:	b29a      	uxth	r2, r3
 80027ca:	683b      	ldr	r3, [r7, #0]
 80027cc:	801a      	strh	r2, [r3, #0]
    return true;
 80027ce:	2301      	movs	r3, #1
}
 80027d0:	0018      	movs	r0, r3
 80027d2:	46bd      	mov	sp, r7
 80027d4:	b008      	add	sp, #32
 80027d6:	bd80      	pop	{r7, pc}

080027d8 <sent_decode_from_timestamps_us>:
 * @return                 true if a valid frame was decoded */
bool sent_decode_from_timestamps_us(const sent_config_t* config,
                                    const uint32_t* timestamps_us,
                                    size_t timestamp_count,
                                    sent_frame_t* out_frame,
                                    sent_decode_status_t* out_status) {
 80027d8:	b5b0      	push	{r4, r5, r7, lr}
 80027da:	b0a4      	sub	sp, #144	@ 0x90
 80027dc:	af02      	add	r7, sp, #8
 80027de:	60f8      	str	r0, [r7, #12]
 80027e0:	60b9      	str	r1, [r7, #8]
 80027e2:	607a      	str	r2, [r7, #4]
 80027e4:	603b      	str	r3, [r7, #0]
    if (out_status != NULL) {
 80027e6:	2298      	movs	r2, #152	@ 0x98
 80027e8:	18bb      	adds	r3, r7, r2
 80027ea:	681b      	ldr	r3, [r3, #0]
 80027ec:	2b00      	cmp	r3, #0
 80027ee:	d003      	beq.n	80027f8 <sent_decode_from_timestamps_us+0x20>
        *out_status = SENT_DECODE_SYNC_ERROR;
 80027f0:	18bb      	adds	r3, r7, r2
 80027f2:	681b      	ldr	r3, [r3, #0]
 80027f4:	2201      	movs	r2, #1
 80027f6:	701a      	strb	r2, [r3, #0]
    }
    SENT_ASSERT(config != NULL && timestamps_us != NULL && out_frame != NULL);
 80027f8:	68fb      	ldr	r3, [r7, #12]
 80027fa:	2b00      	cmp	r3, #0
 80027fc:	d005      	beq.n	800280a <sent_decode_from_timestamps_us+0x32>
 80027fe:	68bb      	ldr	r3, [r7, #8]
 8002800:	2b00      	cmp	r3, #0
 8002802:	d002      	beq.n	800280a <sent_decode_from_timestamps_us+0x32>
 8002804:	683b      	ldr	r3, [r7, #0]
 8002806:	2b00      	cmp	r3, #0
 8002808:	d102      	bne.n	8002810 <sent_decode_from_timestamps_us+0x38>
 800280a:	be00      	bkpt	0x0000
 800280c:	46c0      	nop			@ (mov r8, r8)
 800280e:	e7fd      	b.n	800280c <sent_decode_from_timestamps_us+0x34>
    if (!sent_validate_config(config)) {
 8002810:	68fb      	ldr	r3, [r7, #12]
 8002812:	0018      	movs	r0, r3
 8002814:	f000 fa70 	bl	8002cf8 <sent_validate_config>
 8002818:	0003      	movs	r3, r0
 800281a:	001a      	movs	r2, r3
 800281c:	2301      	movs	r3, #1
 800281e:	4053      	eors	r3, r2
 8002820:	b2db      	uxtb	r3, r3
 8002822:	2b00      	cmp	r3, #0
 8002824:	d001      	beq.n	800282a <sent_decode_from_timestamps_us+0x52>
        return false;
 8002826:	2300      	movs	r3, #0
 8002828:	e173      	b.n	8002b12 <sent_decode_from_timestamps_us+0x33a>
    }

    size_t required_intervals = (size_t)config->data_nibbles + 3U;
 800282a:	68fb      	ldr	r3, [r7, #12]
 800282c:	781b      	ldrb	r3, [r3, #0]
 800282e:	3303      	adds	r3, #3
 8002830:	677b      	str	r3, [r7, #116]	@ 0x74
    size_t required_nibbles = (size_t)config->data_nibbles + 2U;
 8002832:	68fb      	ldr	r3, [r7, #12]
 8002834:	781b      	ldrb	r3, [r3, #0]
 8002836:	3302      	adds	r3, #2
 8002838:	673b      	str	r3, [r7, #112]	@ 0x70
    if (timestamp_count < required_intervals + 1U) {
 800283a:	6f7b      	ldr	r3, [r7, #116]	@ 0x74
 800283c:	3301      	adds	r3, #1
 800283e:	687a      	ldr	r2, [r7, #4]
 8002840:	429a      	cmp	r2, r3
 8002842:	d201      	bcs.n	8002848 <sent_decode_from_timestamps_us+0x70>
        return false;
 8002844:	2300      	movs	r3, #0
 8002846:	e164      	b.n	8002b12 <sent_decode_from_timestamps_us+0x33a>
    }
    if (timestamp_count > SENT_MAX_TIMESTAMPS) {
 8002848:	687b      	ldr	r3, [r7, #4]
 800284a:	2b0d      	cmp	r3, #13
 800284c:	d901      	bls.n	8002852 <sent_decode_from_timestamps_us+0x7a>
        return false;
 800284e:	2300      	movs	r3, #0
 8002850:	e15f      	b.n	8002b12 <sent_decode_from_timestamps_us+0x33a>
    }

    uint32_t intervals[SENT_MAX_INTERVALS];
    size_t interval_count = timestamp_count - 1U;
 8002852:	687b      	ldr	r3, [r7, #4]
 8002854:	3b01      	subs	r3, #1
 8002856:	66fb      	str	r3, [r7, #108]	@ 0x6c
    for (size_t i = 0; i < interval_count; ++i) {
 8002858:	2300      	movs	r3, #0
 800285a:	2284      	movs	r2, #132	@ 0x84
 800285c:	18ba      	adds	r2, r7, r2
 800285e:	6013      	str	r3, [r2, #0]
 8002860:	e02b      	b.n	80028ba <sent_decode_from_timestamps_us+0xe2>
        if (timestamps_us[i + 1U] <= timestamps_us[i]) {
 8002862:	2184      	movs	r1, #132	@ 0x84
 8002864:	187b      	adds	r3, r7, r1
 8002866:	681b      	ldr	r3, [r3, #0]
 8002868:	3301      	adds	r3, #1
 800286a:	009b      	lsls	r3, r3, #2
 800286c:	68ba      	ldr	r2, [r7, #8]
 800286e:	18d3      	adds	r3, r2, r3
 8002870:	681a      	ldr	r2, [r3, #0]
 8002872:	187b      	adds	r3, r7, r1
 8002874:	681b      	ldr	r3, [r3, #0]
 8002876:	009b      	lsls	r3, r3, #2
 8002878:	68b9      	ldr	r1, [r7, #8]
 800287a:	18cb      	adds	r3, r1, r3
 800287c:	681b      	ldr	r3, [r3, #0]
 800287e:	429a      	cmp	r2, r3
 8002880:	d801      	bhi.n	8002886 <sent_decode_from_timestamps_us+0xae>
            return false;
 8002882:	2300      	movs	r3, #0
 8002884:	e145      	b.n	8002b12 <sent_decode_from_timestamps_us+0x33a>
        }
        intervals[i] = timestamps_us[i + 1U] - timestamps_us[i];
 8002886:	2084      	movs	r0, #132	@ 0x84
 8002888:	183b      	adds	r3, r7, r0
 800288a:	681b      	ldr	r3, [r3, #0]
 800288c:	3301      	adds	r3, #1
 800288e:	009b      	lsls	r3, r3, #2
 8002890:	68ba      	ldr	r2, [r7, #8]
 8002892:	18d3      	adds	r3, r2, r3
 8002894:	681a      	ldr	r2, [r3, #0]
 8002896:	183b      	adds	r3, r7, r0
 8002898:	681b      	ldr	r3, [r3, #0]
 800289a:	009b      	lsls	r3, r3, #2
 800289c:	68b9      	ldr	r1, [r7, #8]
 800289e:	18cb      	adds	r3, r1, r3
 80028a0:	681b      	ldr	r3, [r3, #0]
 80028a2:	1ad1      	subs	r1, r2, r3
 80028a4:	2328      	movs	r3, #40	@ 0x28
 80028a6:	18fb      	adds	r3, r7, r3
 80028a8:	183a      	adds	r2, r7, r0
 80028aa:	6812      	ldr	r2, [r2, #0]
 80028ac:	0092      	lsls	r2, r2, #2
 80028ae:	50d1      	str	r1, [r2, r3]
    for (size_t i = 0; i < interval_count; ++i) {
 80028b0:	183b      	adds	r3, r7, r0
 80028b2:	681b      	ldr	r3, [r3, #0]
 80028b4:	3301      	adds	r3, #1
 80028b6:	183a      	adds	r2, r7, r0
 80028b8:	6013      	str	r3, [r2, #0]
 80028ba:	2384      	movs	r3, #132	@ 0x84
 80028bc:	18fb      	adds	r3, r7, r3
 80028be:	681a      	ldr	r2, [r3, #0]
 80028c0:	6efb      	ldr	r3, [r7, #108]	@ 0x6c
 80028c2:	429a      	cmp	r2, r3
 80028c4:	d3cd      	bcc.n	8002862 <sent_decode_from_timestamps_us+0x8a>
    }

    sent_decode_status_t worst_status = SENT_DECODE_SYNC_ERROR;
 80028c6:	2383      	movs	r3, #131	@ 0x83
 80028c8:	18fb      	adds	r3, r7, r3
 80028ca:	2201      	movs	r2, #1
 80028cc:	701a      	strb	r2, [r3, #0]

    for (size_t start = 0U; start + required_intervals <= interval_count; ++start) {
 80028ce:	2300      	movs	r3, #0
 80028d0:	67fb      	str	r3, [r7, #124]	@ 0x7c
 80028d2:	e10b      	b.n	8002aec <sent_decode_from_timestamps_us+0x314>
        uint32_t sync_us = intervals[start];
 80028d4:	2528      	movs	r5, #40	@ 0x28
 80028d6:	197b      	adds	r3, r7, r5
 80028d8:	6ffa      	ldr	r2, [r7, #124]	@ 0x7c
 80028da:	0092      	lsls	r2, r2, #2
 80028dc:	58d3      	ldr	r3, [r2, r3]
 80028de:	66bb      	str	r3, [r7, #104]	@ 0x68
        uint32_t sync_x10 = sync_us * 10U;
 80028e0:	6eba      	ldr	r2, [r7, #104]	@ 0x68
 80028e2:	0013      	movs	r3, r2
 80028e4:	009b      	lsls	r3, r3, #2
 80028e6:	189b      	adds	r3, r3, r2
 80028e8:	005b      	lsls	r3, r3, #1
 80028ea:	667b      	str	r3, [r7, #100]	@ 0x64
        uint32_t tolerance_us = (sync_us * SENT_TOLERANCE_NUM + (SENT_TOLERANCE_DEN - 1U)) / SENT_TOLERANCE_DEN;
 80028ec:	6eba      	ldr	r2, [r7, #104]	@ 0x68
 80028ee:	0013      	movs	r3, r2
 80028f0:	009b      	lsls	r3, r3, #2
 80028f2:	189b      	adds	r3, r3, r2
 80028f4:	00da      	lsls	r2, r3, #3
 80028f6:	1ad3      	subs	r3, r2, r3
 80028f8:	3363      	adds	r3, #99	@ 0x63
 80028fa:	2164      	movs	r1, #100	@ 0x64
 80028fc:	0018      	movs	r0, r3
 80028fe:	f7fd fc29 	bl	8000154 <__udivsi3>
 8002902:	0003      	movs	r3, r0
 8002904:	663b      	str	r3, [r7, #96]	@ 0x60
        if (sync_x10 < (uint32_t)(SENT_SYNC_TICKS * config->min_tick_x10_us) ||
 8002906:	68fb      	ldr	r3, [r7, #12]
 8002908:	889b      	ldrh	r3, [r3, #4]
 800290a:	001a      	movs	r2, r3
 800290c:	0013      	movs	r3, r2
 800290e:	00db      	lsls	r3, r3, #3
 8002910:	1a9b      	subs	r3, r3, r2
 8002912:	00db      	lsls	r3, r3, #3
 8002914:	001a      	movs	r2, r3
 8002916:	6e7b      	ldr	r3, [r7, #100]	@ 0x64
 8002918:	4293      	cmp	r3, r2
 800291a:	d200      	bcs.n	800291e <sent_decode_from_timestamps_us+0x146>
 800291c:	e0e0      	b.n	8002ae0 <sent_decode_from_timestamps_us+0x308>
            sync_x10 > (uint32_t)(SENT_SYNC_TICKS * config->max_tick_x10_us)) {
 800291e:	68fb      	ldr	r3, [r7, #12]
 8002920:	88db      	ldrh	r3, [r3, #6]
 8002922:	001a      	movs	r2, r3
 8002924:	0013      	movs	r3, r2
 8002926:	00db      	lsls	r3, r3, #3
 8002928:	1a9b      	subs	r3, r3, r2
 800292a:	00db      	lsls	r3, r3, #3
 800292c:	001a      	movs	r2, r3
        if (sync_x10 < (uint32_t)(SENT_SYNC_TICKS * config->min_tick_x10_us) ||
 800292e:	6e7b      	ldr	r3, [r7, #100]	@ 0x64
 8002930:	4293      	cmp	r3, r2
 8002932:	d900      	bls.n	8002936 <sent_decode_from_timestamps_us+0x15e>
 8002934:	e0d4      	b.n	8002ae0 <sent_decode_from_timestamps_us+0x308>
            continue;
        }

        uint8_t nibbles[SENT_MAX_DATA_NIBBLES + 2U];
        if (!decode_nibble_array(intervals, start + 1U, required_nibbles,
 8002936:	6ffb      	ldr	r3, [r7, #124]	@ 0x7c
 8002938:	1c59      	adds	r1, r3, #1
 800293a:	6ebc      	ldr	r4, [r7, #104]	@ 0x68
 800293c:	6f3a      	ldr	r2, [r7, #112]	@ 0x70
 800293e:	1978      	adds	r0, r7, r5
 8002940:	231c      	movs	r3, #28
 8002942:	18fb      	adds	r3, r7, r3
 8002944:	9301      	str	r3, [sp, #4]
 8002946:	6e3b      	ldr	r3, [r7, #96]	@ 0x60
 8002948:	9300      	str	r3, [sp, #0]
 800294a:	0023      	movs	r3, r4
 800294c:	f7ff feb2 	bl	80026b4 <decode_nibble_array>
 8002950:	0003      	movs	r3, r0
 8002952:	001a      	movs	r2, r3
 8002954:	2301      	movs	r3, #1
 8002956:	4053      	eors	r3, r2
 8002958:	b2db      	uxtb	r3, r3
 800295a:	2b00      	cmp	r3, #0
 800295c:	d009      	beq.n	8002972 <sent_decode_from_timestamps_us+0x19a>
                                 sync_us, tolerance_us, nibbles)) {
            if (worst_status < SENT_DECODE_SHAPE_ERROR) {
 800295e:	2283      	movs	r2, #131	@ 0x83
 8002960:	18bb      	adds	r3, r7, r2
 8002962:	781b      	ldrb	r3, [r3, #0]
 8002964:	2b02      	cmp	r3, #2
 8002966:	d900      	bls.n	800296a <sent_decode_from_timestamps_us+0x192>
 8002968:	e0bc      	b.n	8002ae4 <sent_decode_from_timestamps_us+0x30c>
                worst_status = SENT_DECODE_SHAPE_ERROR;
 800296a:	18bb      	adds	r3, r7, r2
 800296c:	2203      	movs	r2, #3
 800296e:	701a      	strb	r2, [r3, #0]
            }
            continue;
 8002970:	e0b8      	b.n	8002ae4 <sent_decode_from_timestamps_us+0x30c>
        }

        uint8_t status = nibbles[0];
 8002972:	235f      	movs	r3, #95	@ 0x5f
 8002974:	18fb      	adds	r3, r7, r3
 8002976:	211c      	movs	r1, #28
 8002978:	187a      	adds	r2, r7, r1
 800297a:	7812      	ldrb	r2, [r2, #0]
 800297c:	701a      	strb	r2, [r3, #0]
        uint8_t crc = nibbles[required_nibbles - 1U];
 800297e:	6f3b      	ldr	r3, [r7, #112]	@ 0x70
 8002980:	1e5a      	subs	r2, r3, #1
 8002982:	235e      	movs	r3, #94	@ 0x5e
 8002984:	18fb      	adds	r3, r7, r3
 8002986:	1879      	adds	r1, r7, r1
 8002988:	5c8a      	ldrb	r2, [r1, r2]
 800298a:	701a      	strb	r2, [r3, #0]
        uint8_t data_count = (uint8_t)config->data_nibbles;
 800298c:	235d      	movs	r3, #93	@ 0x5d
 800298e:	18fb      	adds	r3, r7, r3
 8002990:	68fa      	ldr	r2, [r7, #12]
 8002992:	7812      	ldrb	r2, [r2, #0]
 8002994:	701a      	strb	r2, [r3, #0]
        uint8_t data[SENT_MAX_DATA_NIBBLES] = {0};
 8002996:	2314      	movs	r3, #20
 8002998:	18fb      	adds	r3, r7, r3
 800299a:	0018      	movs	r0, r3
 800299c:	2308      	movs	r3, #8
 800299e:	001a      	movs	r2, r3
 80029a0:	2100      	movs	r1, #0
 80029a2:	f004 f892 	bl	8006aca <memset>
        for (uint8_t i = 0U; i < data_count; ++i) {
 80029a6:	237b      	movs	r3, #123	@ 0x7b
 80029a8:	18fb      	adds	r3, r7, r3
 80029aa:	2200      	movs	r2, #0
 80029ac:	701a      	strb	r2, [r3, #0]
 80029ae:	e010      	b.n	80029d2 <sent_decode_from_timestamps_us+0x1fa>
            data[i] = nibbles[1U + i];
 80029b0:	207b      	movs	r0, #123	@ 0x7b
 80029b2:	183b      	adds	r3, r7, r0
 80029b4:	781b      	ldrb	r3, [r3, #0]
 80029b6:	1c5a      	adds	r2, r3, #1
 80029b8:	183b      	adds	r3, r7, r0
 80029ba:	781b      	ldrb	r3, [r3, #0]
 80029bc:	211c      	movs	r1, #28
 80029be:	1879      	adds	r1, r7, r1
 80029c0:	5c89      	ldrb	r1, [r1, r2]
 80029c2:	2214      	movs	r2, #20
 80029c4:	18ba      	adds	r2, r7, r2
 80029c6:	54d1      	strb	r1, [r2, r3]
        for (uint8_t i = 0U; i < data_count; ++i) {
 80029c8:	183b      	adds	r3, r7, r0
 80029ca:	183a      	adds	r2, r7, r0
 80029cc:	7812      	ldrb	r2, [r2, #0]
 80029ce:	3201      	adds	r2, #1
 80029d0:	701a      	strb	r2, [r3, #0]
 80029d2:	237b      	movs	r3, #123	@ 0x7b
 80029d4:	18fa      	adds	r2, r7, r3
 80029d6:	215d      	movs	r1, #93	@ 0x5d
 80029d8:	187b      	adds	r3, r7, r1
 80029da:	7812      	ldrb	r2, [r2, #0]
 80029dc:	781b      	ldrb	r3, [r3, #0]
 80029de:	429a      	cmp	r2, r3
 80029e0:	d3e6      	bcc.n	80029b0 <sent_decode_from_timestamps_us+0x1d8>
        }

        uint8_t computed_crc = sent_crc4_j2716(data, data_count, config->crc_mode, status);
 80029e2:	187b      	adds	r3, r7, r1
 80029e4:	7819      	ldrb	r1, [r3, #0]
 80029e6:	68fb      	ldr	r3, [r7, #12]
 80029e8:	785a      	ldrb	r2, [r3, #1]
 80029ea:	255c      	movs	r5, #92	@ 0x5c
 80029ec:	197c      	adds	r4, r7, r5
 80029ee:	235f      	movs	r3, #95	@ 0x5f
 80029f0:	18fb      	adds	r3, r7, r3
 80029f2:	781b      	ldrb	r3, [r3, #0]
 80029f4:	2014      	movs	r0, #20
 80029f6:	1838      	adds	r0, r7, r0
 80029f8:	f7ff fdc9 	bl	800258e <sent_crc4_j2716>
 80029fc:	0003      	movs	r3, r0
 80029fe:	7023      	strb	r3, [r4, #0]
        if (computed_crc != crc) {
 8002a00:	197a      	adds	r2, r7, r5
 8002a02:	235e      	movs	r3, #94	@ 0x5e
 8002a04:	18fb      	adds	r3, r7, r3
 8002a06:	7812      	ldrb	r2, [r2, #0]
 8002a08:	781b      	ldrb	r3, [r3, #0]
 8002a0a:	429a      	cmp	r2, r3
 8002a0c:	d004      	beq.n	8002a18 <sent_decode_from_timestamps_us+0x240>
            worst_status = SENT_DECODE_CRC_ERROR;
 8002a0e:	2383      	movs	r3, #131	@ 0x83
 8002a10:	18fb      	adds	r3, r7, r3
 8002a12:	2202      	movs	r2, #2
 8002a14:	701a      	strb	r2, [r3, #0]
            continue;
 8002a16:	e066      	b.n	8002ae6 <sent_decode_from_timestamps_us+0x30e>
        }

        memset(out_frame, 0, sizeof(*out_frame));
 8002a18:	683b      	ldr	r3, [r7, #0]
 8002a1a:	2212      	movs	r2, #18
 8002a1c:	2100      	movs	r1, #0
 8002a1e:	0018      	movs	r0, r3
 8002a20:	f004 f853 	bl	8006aca <memset>
        out_frame->status = status;
 8002a24:	683b      	ldr	r3, [r7, #0]
 8002a26:	225f      	movs	r2, #95	@ 0x5f
 8002a28:	18ba      	adds	r2, r7, r2
 8002a2a:	7812      	ldrb	r2, [r2, #0]
 8002a2c:	701a      	strb	r2, [r3, #0]
        out_frame->data_nibbles_count = data_count;
 8002a2e:	683b      	ldr	r3, [r7, #0]
 8002a30:	225d      	movs	r2, #93	@ 0x5d
 8002a32:	18ba      	adds	r2, r7, r2
 8002a34:	7812      	ldrb	r2, [r2, #0]
 8002a36:	725a      	strb	r2, [r3, #9]
        for (uint8_t i = 0U; i < data_count; ++i) {
 8002a38:	237a      	movs	r3, #122	@ 0x7a
 8002a3a:	18fb      	adds	r3, r7, r3
 8002a3c:	2200      	movs	r2, #0
 8002a3e:	701a      	strb	r2, [r3, #0]
 8002a40:	e010      	b.n	8002a64 <sent_decode_from_timestamps_us+0x28c>
            out_frame->data_nibbles[i] = data[i];
 8002a42:	207a      	movs	r0, #122	@ 0x7a
 8002a44:	183b      	adds	r3, r7, r0
 8002a46:	781a      	ldrb	r2, [r3, #0]
 8002a48:	183b      	adds	r3, r7, r0
 8002a4a:	781b      	ldrb	r3, [r3, #0]
 8002a4c:	2114      	movs	r1, #20
 8002a4e:	1879      	adds	r1, r7, r1
 8002a50:	5c89      	ldrb	r1, [r1, r2]
 8002a52:	683a      	ldr	r2, [r7, #0]
 8002a54:	18d3      	adds	r3, r2, r3
 8002a56:	1c0a      	adds	r2, r1, #0
 8002a58:	705a      	strb	r2, [r3, #1]
        for (uint8_t i = 0U; i < data_count; ++i) {
 8002a5a:	183b      	adds	r3, r7, r0
 8002a5c:	183a      	adds	r2, r7, r0
 8002a5e:	7812      	ldrb	r2, [r2, #0]
 8002a60:	3201      	adds	r2, #1
 8002a62:	701a      	strb	r2, [r3, #0]
 8002a64:	237a      	movs	r3, #122	@ 0x7a
 8002a66:	18fa      	adds	r2, r7, r3
 8002a68:	235d      	movs	r3, #93	@ 0x5d
 8002a6a:	18fb      	adds	r3, r7, r3
 8002a6c:	7812      	ldrb	r2, [r2, #0]
 8002a6e:	781b      	ldrb	r3, [r3, #0]
 8002a70:	429a      	cmp	r2, r3
 8002a72:	d3e6      	bcc.n	8002a42 <sent_decode_from_timestamps_us+0x26a>
        }
        out_frame->crc = crc;
 8002a74:	683b      	ldr	r3, [r7, #0]
 8002a76:	225e      	movs	r2, #94	@ 0x5e
 8002a78:	18ba      	adds	r2, r7, r2
 8002a7a:	7812      	ldrb	r2, [r2, #0]
 8002a7c:	729a      	strb	r2, [r3, #10]
        out_frame->tick_x10_us = (uint16_t)((sync_x10 + 28U) / SENT_SYNC_TICKS);
 8002a7e:	6e7b      	ldr	r3, [r7, #100]	@ 0x64
 8002a80:	331c      	adds	r3, #28
 8002a82:	2138      	movs	r1, #56	@ 0x38
 8002a84:	0018      	movs	r0, r3
 8002a86:	f7fd fb65 	bl	8000154 <__udivsi3>
 8002a8a:	0003      	movs	r3, r0
 8002a8c:	b29a      	uxth	r2, r3
 8002a8e:	683b      	ldr	r3, [r7, #0]
 8002a90:	819a      	strh	r2, [r3, #12]

        size_t pause_idx = start + required_intervals;
 8002a92:	6ffa      	ldr	r2, [r7, #124]	@ 0x7c
 8002a94:	6f7b      	ldr	r3, [r7, #116]	@ 0x74
 8002a96:	18d3      	adds	r3, r2, r3
 8002a98:	65bb      	str	r3, [r7, #88]	@ 0x58
        if (pause_idx < interval_count) {
 8002a9a:	6dba      	ldr	r2, [r7, #88]	@ 0x58
 8002a9c:	6efb      	ldr	r3, [r7, #108]	@ 0x6c
 8002a9e:	429a      	cmp	r2, r3
 8002aa0:	d213      	bcs.n	8002aca <sent_decode_from_timestamps_us+0x2f2>
            uint16_t pause_ticks;
            if (decode_pause_interval(intervals[pause_idx], sync_us, tolerance_us, &pause_ticks)) {
 8002aa2:	2328      	movs	r3, #40	@ 0x28
 8002aa4:	18fb      	adds	r3, r7, r3
 8002aa6:	6dba      	ldr	r2, [r7, #88]	@ 0x58
 8002aa8:	0092      	lsls	r2, r2, #2
 8002aaa:	58d0      	ldr	r0, [r2, r3]
 8002aac:	2412      	movs	r4, #18
 8002aae:	193b      	adds	r3, r7, r4
 8002ab0:	6e3a      	ldr	r2, [r7, #96]	@ 0x60
 8002ab2:	6eb9      	ldr	r1, [r7, #104]	@ 0x68
 8002ab4:	f7ff fe52 	bl	800275c <decode_pause_interval>
 8002ab8:	1e03      	subs	r3, r0, #0
 8002aba:	d006      	beq.n	8002aca <sent_decode_from_timestamps_us+0x2f2>
                out_frame->has_pause = true;
 8002abc:	683b      	ldr	r3, [r7, #0]
 8002abe:	2201      	movs	r2, #1
 8002ac0:	739a      	strb	r2, [r3, #14]
                out_frame->pause_ticks = pause_ticks;
 8002ac2:	193b      	adds	r3, r7, r4
 8002ac4:	881a      	ldrh	r2, [r3, #0]
 8002ac6:	683b      	ldr	r3, [r7, #0]
 8002ac8:	821a      	strh	r2, [r3, #16]
            }
        }

        if (out_status != NULL) {
 8002aca:	2298      	movs	r2, #152	@ 0x98
 8002acc:	18bb      	adds	r3, r7, r2
 8002ace:	681b      	ldr	r3, [r3, #0]
 8002ad0:	2b00      	cmp	r3, #0
 8002ad2:	d003      	beq.n	8002adc <sent_decode_from_timestamps_us+0x304>
            *out_status = SENT_DECODE_OK;
 8002ad4:	18bb      	adds	r3, r7, r2
 8002ad6:	681b      	ldr	r3, [r3, #0]
 8002ad8:	2200      	movs	r2, #0
 8002ada:	701a      	strb	r2, [r3, #0]
        }
        return true;
 8002adc:	2301      	movs	r3, #1
 8002ade:	e018      	b.n	8002b12 <sent_decode_from_timestamps_us+0x33a>
            continue;
 8002ae0:	46c0      	nop			@ (mov r8, r8)
 8002ae2:	e000      	b.n	8002ae6 <sent_decode_from_timestamps_us+0x30e>
            continue;
 8002ae4:	46c0      	nop			@ (mov r8, r8)
    for (size_t start = 0U; start + required_intervals <= interval_count; ++start) {
 8002ae6:	6ffb      	ldr	r3, [r7, #124]	@ 0x7c
 8002ae8:	3301      	adds	r3, #1
 8002aea:	67fb      	str	r3, [r7, #124]	@ 0x7c
 8002aec:	6ffa      	ldr	r2, [r7, #124]	@ 0x7c
 8002aee:	6f7b      	ldr	r3, [r7, #116]	@ 0x74
 8002af0:	18d3      	adds	r3, r2, r3
 8002af2:	6efa      	ldr	r2, [r7, #108]	@ 0x6c
 8002af4:	429a      	cmp	r2, r3
 8002af6:	d300      	bcc.n	8002afa <sent_decode_from_timestamps_us+0x322>
 8002af8:	e6ec      	b.n	80028d4 <sent_decode_from_timestamps_us+0xfc>
    }

    if (out_status != NULL) {
 8002afa:	2298      	movs	r2, #152	@ 0x98
 8002afc:	18bb      	adds	r3, r7, r2
 8002afe:	681b      	ldr	r3, [r3, #0]
 8002b00:	2b00      	cmp	r3, #0
 8002b02:	d005      	beq.n	8002b10 <sent_decode_from_timestamps_us+0x338>
        *out_status = worst_status;
 8002b04:	18bb      	adds	r3, r7, r2
 8002b06:	681b      	ldr	r3, [r3, #0]
 8002b08:	2283      	movs	r2, #131	@ 0x83
 8002b0a:	18ba      	adds	r2, r7, r2
 8002b0c:	7812      	ldrb	r2, [r2, #0]
 8002b0e:	701a      	strb	r2, [r3, #0]
    }
    return false;
 8002b10:	2300      	movs	r3, #0
}
 8002b12:	0018      	movs	r0, r3
 8002b14:	46bd      	mov	sp, r7
 8002b16:	b022      	add	sp, #136	@ 0x88
 8002b18:	bdb0      	pop	{r4, r5, r7, pc}

08002b1a <sent_build_intervals_ticks>:
 * @return                    true on success */
bool sent_build_intervals_ticks(const sent_frame_t* frame,
                                const sent_config_t* config,
                                uint16_t pause_ticks,
                                uint16_t* out_intervals_ticks,
                                size_t* out_interval_count) {
 8002b1a:	b5b0      	push	{r4, r5, r7, lr}
 8002b1c:	b088      	sub	sp, #32
 8002b1e:	af00      	add	r7, sp, #0
 8002b20:	60f8      	str	r0, [r7, #12]
 8002b22:	60b9      	str	r1, [r7, #8]
 8002b24:	603b      	str	r3, [r7, #0]
 8002b26:	1dbb      	adds	r3, r7, #6
 8002b28:	801a      	strh	r2, [r3, #0]
    SENT_ASSERT(out_interval_count != NULL);
 8002b2a:	6b3b      	ldr	r3, [r7, #48]	@ 0x30
 8002b2c:	2b00      	cmp	r3, #0
 8002b2e:	d102      	bne.n	8002b36 <sent_build_intervals_ticks+0x1c>
 8002b30:	be00      	bkpt	0x0000
 8002b32:	46c0      	nop			@ (mov r8, r8)
 8002b34:	e7fd      	b.n	8002b32 <sent_build_intervals_ticks+0x18>
    *out_interval_count = 0U;
 8002b36:	6b3b      	ldr	r3, [r7, #48]	@ 0x30
 8002b38:	2200      	movs	r2, #0
 8002b3a:	601a      	str	r2, [r3, #0]

    SENT_ASSERT(frame != NULL && config != NULL && out_intervals_ticks != NULL);
 8002b3c:	68fb      	ldr	r3, [r7, #12]
 8002b3e:	2b00      	cmp	r3, #0
 8002b40:	d005      	beq.n	8002b4e <sent_build_intervals_ticks+0x34>
 8002b42:	68bb      	ldr	r3, [r7, #8]
 8002b44:	2b00      	cmp	r3, #0
 8002b46:	d002      	beq.n	8002b4e <sent_build_intervals_ticks+0x34>
 8002b48:	683b      	ldr	r3, [r7, #0]
 8002b4a:	2b00      	cmp	r3, #0
 8002b4c:	d102      	bne.n	8002b54 <sent_build_intervals_ticks+0x3a>
 8002b4e:	be00      	bkpt	0x0000
 8002b50:	46c0      	nop			@ (mov r8, r8)
 8002b52:	e7fd      	b.n	8002b50 <sent_build_intervals_ticks+0x36>
    if (!sent_validate_config(config)) {
 8002b54:	68bb      	ldr	r3, [r7, #8]
 8002b56:	0018      	movs	r0, r3
 8002b58:	f000 f8ce 	bl	8002cf8 <sent_validate_config>
 8002b5c:	0003      	movs	r3, r0
 8002b5e:	001a      	movs	r2, r3
 8002b60:	2301      	movs	r3, #1
 8002b62:	4053      	eors	r3, r2
 8002b64:	b2db      	uxtb	r3, r3
 8002b66:	2b00      	cmp	r3, #0
 8002b68:	d001      	beq.n	8002b6e <sent_build_intervals_ticks+0x54>
        return false;
 8002b6a:	2300      	movs	r3, #0
 8002b6c:	e09c      	b.n	8002ca8 <sent_build_intervals_ticks+0x18e>
    }
    if (frame->data_nibbles_count != config->data_nibbles) {
 8002b6e:	68fb      	ldr	r3, [r7, #12]
 8002b70:	7a5a      	ldrb	r2, [r3, #9]
 8002b72:	68bb      	ldr	r3, [r7, #8]
 8002b74:	781b      	ldrb	r3, [r3, #0]
 8002b76:	429a      	cmp	r2, r3
 8002b78:	d001      	beq.n	8002b7e <sent_build_intervals_ticks+0x64>
        return false;
 8002b7a:	2300      	movs	r3, #0
 8002b7c:	e094      	b.n	8002ca8 <sent_build_intervals_ticks+0x18e>
    }
    if (pause_ticks > 0U && (pause_ticks < 12U || pause_ticks > 768U)) {
 8002b7e:	1dbb      	adds	r3, r7, #6
 8002b80:	881b      	ldrh	r3, [r3, #0]
 8002b82:	2b00      	cmp	r3, #0
 8002b84:	d00b      	beq.n	8002b9e <sent_build_intervals_ticks+0x84>
 8002b86:	1dbb      	adds	r3, r7, #6
 8002b88:	881b      	ldrh	r3, [r3, #0]
 8002b8a:	2b0b      	cmp	r3, #11
 8002b8c:	d905      	bls.n	8002b9a <sent_build_intervals_ticks+0x80>
 8002b8e:	1dbb      	adds	r3, r7, #6
 8002b90:	881a      	ldrh	r2, [r3, #0]
 8002b92:	23c0      	movs	r3, #192	@ 0xc0
 8002b94:	009b      	lsls	r3, r3, #2
 8002b96:	429a      	cmp	r2, r3
 8002b98:	d901      	bls.n	8002b9e <sent_build_intervals_ticks+0x84>
        return false;
 8002b9a:	2300      	movs	r3, #0
 8002b9c:	e084      	b.n	8002ca8 <sent_build_intervals_ticks+0x18e>
    }

    size_t needed = (size_t)config->data_nibbles + 3U + (pause_ticks > 0U ? 1U : 0U);
 8002b9e:	68bb      	ldr	r3, [r7, #8]
 8002ba0:	781b      	ldrb	r3, [r3, #0]
 8002ba2:	001a      	movs	r2, r3
 8002ba4:	1dbb      	adds	r3, r7, #6
 8002ba6:	881b      	ldrh	r3, [r3, #0]
 8002ba8:	2b00      	cmp	r3, #0
 8002baa:	d001      	beq.n	8002bb0 <sent_build_intervals_ticks+0x96>
 8002bac:	2301      	movs	r3, #1
 8002bae:	e000      	b.n	8002bb2 <sent_build_intervals_ticks+0x98>
 8002bb0:	2300      	movs	r3, #0
 8002bb2:	189b      	adds	r3, r3, r2
 8002bb4:	3303      	adds	r3, #3
 8002bb6:	617b      	str	r3, [r7, #20]
    if (needed > SENT_MAX_INTERVALS) {
 8002bb8:	697b      	ldr	r3, [r7, #20]
 8002bba:	2b0c      	cmp	r3, #12
 8002bbc:	d901      	bls.n	8002bc2 <sent_build_intervals_ticks+0xa8>
        return false;
 8002bbe:	2300      	movs	r3, #0
 8002bc0:	e072      	b.n	8002ca8 <sent_build_intervals_ticks+0x18e>
    }

    size_t w = 0U;
 8002bc2:	2300      	movs	r3, #0
 8002bc4:	61fb      	str	r3, [r7, #28]
    out_intervals_ticks[w++] = 56U;
 8002bc6:	69fb      	ldr	r3, [r7, #28]
 8002bc8:	1c5a      	adds	r2, r3, #1
 8002bca:	61fa      	str	r2, [r7, #28]
 8002bcc:	005b      	lsls	r3, r3, #1
 8002bce:	683a      	ldr	r2, [r7, #0]
 8002bd0:	18d3      	adds	r3, r2, r3
 8002bd2:	2238      	movs	r2, #56	@ 0x38
 8002bd4:	801a      	strh	r2, [r3, #0]
    out_intervals_ticks[w++] = (uint16_t)(12U + (frame->status & 0x0FU));
 8002bd6:	68fb      	ldr	r3, [r7, #12]
 8002bd8:	781b      	ldrb	r3, [r3, #0]
 8002bda:	001a      	movs	r2, r3
 8002bdc:	230f      	movs	r3, #15
 8002bde:	4013      	ands	r3, r2
 8002be0:	b29a      	uxth	r2, r3
 8002be2:	69fb      	ldr	r3, [r7, #28]
 8002be4:	1c59      	adds	r1, r3, #1
 8002be6:	61f9      	str	r1, [r7, #28]
 8002be8:	005b      	lsls	r3, r3, #1
 8002bea:	6839      	ldr	r1, [r7, #0]
 8002bec:	18cb      	adds	r3, r1, r3
 8002bee:	320c      	adds	r2, #12
 8002bf0:	b292      	uxth	r2, r2
 8002bf2:	801a      	strh	r2, [r3, #0]

    for (uint8_t i = 0U; i < config->data_nibbles; ++i) {
 8002bf4:	231b      	movs	r3, #27
 8002bf6:	18fb      	adds	r3, r7, r3
 8002bf8:	2200      	movs	r2, #0
 8002bfa:	701a      	strb	r2, [r3, #0]
 8002bfc:	e021      	b.n	8002c42 <sent_build_intervals_ticks+0x128>
        uint8_t nibble = frame->data_nibbles[i];
 8002bfe:	231b      	movs	r3, #27
 8002c00:	18fb      	adds	r3, r7, r3
 8002c02:	781a      	ldrb	r2, [r3, #0]
 8002c04:	2012      	movs	r0, #18
 8002c06:	183b      	adds	r3, r7, r0
 8002c08:	68f9      	ldr	r1, [r7, #12]
 8002c0a:	188a      	adds	r2, r1, r2
 8002c0c:	7852      	ldrb	r2, [r2, #1]
 8002c0e:	701a      	strb	r2, [r3, #0]
        if (nibble > 0x0FU) {
 8002c10:	183b      	adds	r3, r7, r0
 8002c12:	781b      	ldrb	r3, [r3, #0]
 8002c14:	2b0f      	cmp	r3, #15
 8002c16:	d901      	bls.n	8002c1c <sent_build_intervals_ticks+0x102>
            return false;
 8002c18:	2300      	movs	r3, #0
 8002c1a:	e045      	b.n	8002ca8 <sent_build_intervals_ticks+0x18e>
        }
        out_intervals_ticks[w++] = (uint16_t)(12U + nibble);
 8002c1c:	2312      	movs	r3, #18
 8002c1e:	18fb      	adds	r3, r7, r3
 8002c20:	781b      	ldrb	r3, [r3, #0]
 8002c22:	b29a      	uxth	r2, r3
 8002c24:	69fb      	ldr	r3, [r7, #28]
 8002c26:	1c59      	adds	r1, r3, #1
 8002c28:	61f9      	str	r1, [r7, #28]
 8002c2a:	005b      	lsls	r3, r3, #1
 8002c2c:	6839      	ldr	r1, [r7, #0]
 8002c2e:	18cb      	adds	r3, r1, r3
 8002c30:	320c      	adds	r2, #12
 8002c32:	b292      	uxth	r2, r2
 8002c34:	801a      	strh	r2, [r3, #0]
    for (uint8_t i = 0U; i < config->data_nibbles; ++i) {
 8002c36:	221b      	movs	r2, #27
 8002c38:	18bb      	adds	r3, r7, r2
 8002c3a:	18ba      	adds	r2, r7, r2
 8002c3c:	7812      	ldrb	r2, [r2, #0]
 8002c3e:	3201      	adds	r2, #1
 8002c40:	701a      	strb	r2, [r3, #0]
 8002c42:	68bb      	ldr	r3, [r7, #8]
 8002c44:	781b      	ldrb	r3, [r3, #0]
 8002c46:	221b      	movs	r2, #27
 8002c48:	18ba      	adds	r2, r7, r2
 8002c4a:	7812      	ldrb	r2, [r2, #0]
 8002c4c:	429a      	cmp	r2, r3
 8002c4e:	d3d6      	bcc.n	8002bfe <sent_build_intervals_ticks+0xe4>
    }

    uint8_t crc = sent_crc4_j2716(frame->data_nibbles,
 8002c50:	68fb      	ldr	r3, [r7, #12]
 8002c52:	1c58      	adds	r0, r3, #1
                                  frame->data_nibbles_count,
 8002c54:	68fb      	ldr	r3, [r7, #12]
 8002c56:	7a5b      	ldrb	r3, [r3, #9]
    uint8_t crc = sent_crc4_j2716(frame->data_nibbles,
 8002c58:	0019      	movs	r1, r3
                                  config->crc_mode,
 8002c5a:	68bb      	ldr	r3, [r7, #8]
 8002c5c:	785a      	ldrb	r2, [r3, #1]
                                  frame->status);
 8002c5e:	68fb      	ldr	r3, [r7, #12]
 8002c60:	781b      	ldrb	r3, [r3, #0]
    uint8_t crc = sent_crc4_j2716(frame->data_nibbles,
 8002c62:	2513      	movs	r5, #19
 8002c64:	197c      	adds	r4, r7, r5
 8002c66:	f7ff fc92 	bl	800258e <sent_crc4_j2716>
 8002c6a:	0003      	movs	r3, r0
 8002c6c:	7023      	strb	r3, [r4, #0]
    out_intervals_ticks[w++] = (uint16_t)(12U + crc);
 8002c6e:	197b      	adds	r3, r7, r5
 8002c70:	781b      	ldrb	r3, [r3, #0]
 8002c72:	b29a      	uxth	r2, r3
 8002c74:	69fb      	ldr	r3, [r7, #28]
 8002c76:	1c59      	adds	r1, r3, #1
 8002c78:	61f9      	str	r1, [r7, #28]
 8002c7a:	005b      	lsls	r3, r3, #1
 8002c7c:	6839      	ldr	r1, [r7, #0]
 8002c7e:	18cb      	adds	r3, r1, r3
 8002c80:	320c      	adds	r2, #12
 8002c82:	b292      	uxth	r2, r2
 8002c84:	801a      	strh	r2, [r3, #0]

    if (pause_ticks > 0U) {
 8002c86:	1dbb      	adds	r3, r7, #6
 8002c88:	881b      	ldrh	r3, [r3, #0]
 8002c8a:	2b00      	cmp	r3, #0
 8002c8c:	d008      	beq.n	8002ca0 <sent_build_intervals_ticks+0x186>
        out_intervals_ticks[w++] = pause_ticks;
 8002c8e:	69fb      	ldr	r3, [r7, #28]
 8002c90:	1c5a      	adds	r2, r3, #1
 8002c92:	61fa      	str	r2, [r7, #28]
 8002c94:	005b      	lsls	r3, r3, #1
 8002c96:	683a      	ldr	r2, [r7, #0]
 8002c98:	18d3      	adds	r3, r2, r3
 8002c9a:	1dba      	adds	r2, r7, #6
 8002c9c:	8812      	ldrh	r2, [r2, #0]
 8002c9e:	801a      	strh	r2, [r3, #0]
    }

    *out_interval_count = w;
 8002ca0:	6b3b      	ldr	r3, [r7, #48]	@ 0x30
 8002ca2:	69fa      	ldr	r2, [r7, #28]
 8002ca4:	601a      	str	r2, [r3, #0]
    return true;
 8002ca6:	2301      	movs	r3, #1
}
 8002ca8:	0018      	movs	r0, r3
 8002caa:	46bd      	mov	sp, r7
 8002cac:	b008      	add	sp, #32
 8002cae:	bdb0      	pop	{r4, r5, r7, pc}

08002cb0 <sent_default_config>:
#include "sent/sent_assert.h"
#include <string.h>

/* Return default SENT configuration (6 data nibbles, CRC data-only, MSB-first, tick 3-90 us).
 * @return  sent_config_t with default field values */
sent_config_t sent_default_config(void) {
 8002cb0:	b580      	push	{r7, lr}
 8002cb2:	b084      	sub	sp, #16
 8002cb4:	af00      	add	r7, sp, #0
 8002cb6:	6078      	str	r0, [r7, #4]
    sent_config_t cfg;
    cfg.data_nibbles = 6U;
 8002cb8:	2108      	movs	r1, #8
 8002cba:	187b      	adds	r3, r7, r1
 8002cbc:	2206      	movs	r2, #6
 8002cbe:	701a      	strb	r2, [r3, #0]
    cfg.crc_mode = SENT_CRC_MODE_DATA_ONLY;
 8002cc0:	187b      	adds	r3, r7, r1
 8002cc2:	2200      	movs	r2, #0
 8002cc4:	705a      	strb	r2, [r3, #1]
    cfg.order = SENT_NIBBLE_ORDER_MSB_FIRST;
 8002cc6:	187b      	adds	r3, r7, r1
 8002cc8:	2200      	movs	r2, #0
 8002cca:	709a      	strb	r2, [r3, #2]
    cfg.pause_pulse_enabled = false;
 8002ccc:	187b      	adds	r3, r7, r1
 8002cce:	2200      	movs	r2, #0
 8002cd0:	70da      	strb	r2, [r3, #3]
    cfg.min_tick_x10_us = 30U;
 8002cd2:	187b      	adds	r3, r7, r1
 8002cd4:	221e      	movs	r2, #30
 8002cd6:	809a      	strh	r2, [r3, #4]
    cfg.max_tick_x10_us = 900U;
 8002cd8:	187b      	adds	r3, r7, r1
 8002cda:	22e1      	movs	r2, #225	@ 0xe1
 8002cdc:	0092      	lsls	r2, r2, #2
 8002cde:	80da      	strh	r2, [r3, #6]
    return cfg;
 8002ce0:	687a      	ldr	r2, [r7, #4]
 8002ce2:	187b      	adds	r3, r7, r1
 8002ce4:	0010      	movs	r0, r2
 8002ce6:	0019      	movs	r1, r3
 8002ce8:	2308      	movs	r3, #8
 8002cea:	001a      	movs	r2, r3
 8002cec:	f003 ff1a 	bl	8006b24 <memcpy>
}
 8002cf0:	6878      	ldr	r0, [r7, #4]
 8002cf2:	46bd      	mov	sp, r7
 8002cf4:	b004      	add	sp, #16
 8002cf6:	bd80      	pop	{r7, pc}

08002cf8 <sent_validate_config>:

/* Validate SENT config fields (nibble count 1-8, tick range nonzero and ordered).
 * @param config  pointer to configuration struct
 * @return        true if valid */
bool sent_validate_config(const sent_config_t* config) {
 8002cf8:	b580      	push	{r7, lr}
 8002cfa:	b082      	sub	sp, #8
 8002cfc:	af00      	add	r7, sp, #0
 8002cfe:	6078      	str	r0, [r7, #4]
    SENT_ASSERT(config != NULL);
 8002d00:	687b      	ldr	r3, [r7, #4]
 8002d02:	2b00      	cmp	r3, #0
 8002d04:	d102      	bne.n	8002d0c <sent_validate_config+0x14>
 8002d06:	be00      	bkpt	0x0000
 8002d08:	46c0      	nop			@ (mov r8, r8)
 8002d0a:	e7fd      	b.n	8002d08 <sent_validate_config+0x10>
    if (config->data_nibbles < 1U || config->data_nibbles > SENT_MAX_DATA_NIBBLES) {
 8002d0c:	687b      	ldr	r3, [r7, #4]
 8002d0e:	781b      	ldrb	r3, [r3, #0]
 8002d10:	2b00      	cmp	r3, #0
 8002d12:	d003      	beq.n	8002d1c <sent_validate_config+0x24>
 8002d14:	687b      	ldr	r3, [r7, #4]
 8002d16:	781b      	ldrb	r3, [r3, #0]
 8002d18:	2b08      	cmp	r3, #8
 8002d1a:	d901      	bls.n	8002d20 <sent_validate_config+0x28>
        return false;
 8002d1c:	2300      	movs	r3, #0
 8002d1e:	e010      	b.n	8002d42 <sent_validate_config+0x4a>
    }
    if (config->min_tick_x10_us == 0U || config->max_tick_x10_us == 0U ||
 8002d20:	687b      	ldr	r3, [r7, #4]
 8002d22:	889b      	ldrh	r3, [r3, #4]
 8002d24:	2b00      	cmp	r3, #0
 8002d26:	d009      	beq.n	8002d3c <sent_validate_config+0x44>
 8002d28:	687b      	ldr	r3, [r7, #4]
 8002d2a:	88db      	ldrh	r3, [r3, #6]
 8002d2c:	2b00      	cmp	r3, #0
 8002d2e:	d005      	beq.n	8002d3c <sent_validate_config+0x44>
        config->min_tick_x10_us > config->max_tick_x10_us) {
 8002d30:	687b      	ldr	r3, [r7, #4]
 8002d32:	889a      	ldrh	r2, [r3, #4]
 8002d34:	687b      	ldr	r3, [r7, #4]
 8002d36:	88db      	ldrh	r3, [r3, #6]
    if (config->min_tick_x10_us == 0U || config->max_tick_x10_us == 0U ||
 8002d38:	429a      	cmp	r2, r3
 8002d3a:	d901      	bls.n	8002d40 <sent_validate_config+0x48>
        return false;
 8002d3c:	2300      	movs	r3, #0
 8002d3e:	e000      	b.n	8002d42 <sent_validate_config+0x4a>
    }
    return true;
 8002d40:	2301      	movs	r3, #1
}
 8002d42:	0018      	movs	r0, r3
 8002d44:	46bd      	mov	sp, r7
 8002d46:	b002      	add	sp, #8
 8002d48:	bd80      	pop	{r7, pc}

08002d4a <sent_pack_nibbles>:
 * @param nibble_count  number of nibbles to pack (max 8)
 * @param order         MSB_FIRST or LSB_FIRST
 * @return              packed 32-bit value */
uint32_t sent_pack_nibbles(const uint8_t* nibbles,
                           size_t nibble_count,
                           sent_nibble_order_t order) {
 8002d4a:	b580      	push	{r7, lr}
 8002d4c:	b088      	sub	sp, #32
 8002d4e:	af00      	add	r7, sp, #0
 8002d50:	60f8      	str	r0, [r7, #12]
 8002d52:	60b9      	str	r1, [r7, #8]
 8002d54:	1dfb      	adds	r3, r7, #7
 8002d56:	701a      	strb	r2, [r3, #0]
    SENT_ASSERT(nibbles != NULL);
 8002d58:	68fb      	ldr	r3, [r7, #12]
 8002d5a:	2b00      	cmp	r3, #0
 8002d5c:	d102      	bne.n	8002d64 <sent_pack_nibbles+0x1a>
 8002d5e:	be00      	bkpt	0x0000
 8002d60:	46c0      	nop			@ (mov r8, r8)
 8002d62:	e7fd      	b.n	8002d60 <sent_pack_nibbles+0x16>
    if (nibble_count == 0U) {
 8002d64:	68bb      	ldr	r3, [r7, #8]
 8002d66:	2b00      	cmp	r3, #0
 8002d68:	d101      	bne.n	8002d6e <sent_pack_nibbles+0x24>
        return 0U;
 8002d6a:	2300      	movs	r3, #0
 8002d6c:	e039      	b.n	8002de2 <sent_pack_nibbles+0x98>
    }

    if (nibble_count > SENT_MAX_DATA_NIBBLES) {
 8002d6e:	68bb      	ldr	r3, [r7, #8]
 8002d70:	2b08      	cmp	r3, #8
 8002d72:	d901      	bls.n	8002d78 <sent_pack_nibbles+0x2e>
        nibble_count = SENT_MAX_DATA_NIBBLES;
 8002d74:	2308      	movs	r3, #8
 8002d76:	60bb      	str	r3, [r7, #8]
    }

    uint32_t packed = 0U;
 8002d78:	2300      	movs	r3, #0
 8002d7a:	61fb      	str	r3, [r7, #28]
    if (order == SENT_NIBBLE_ORDER_MSB_FIRST) {
 8002d7c:	1dfb      	adds	r3, r7, #7
 8002d7e:	781b      	ldrb	r3, [r3, #0]
 8002d80:	2b00      	cmp	r3, #0
 8002d82:	d115      	bne.n	8002db0 <sent_pack_nibbles+0x66>
        for (size_t i = 0; i < nibble_count; ++i) {
 8002d84:	2300      	movs	r3, #0
 8002d86:	61bb      	str	r3, [r7, #24]
 8002d88:	e00d      	b.n	8002da6 <sent_pack_nibbles+0x5c>
            packed = (packed << 4U) | (uint32_t)(nibbles[i] & 0x0FU);
 8002d8a:	69fb      	ldr	r3, [r7, #28]
 8002d8c:	011a      	lsls	r2, r3, #4
 8002d8e:	68f9      	ldr	r1, [r7, #12]
 8002d90:	69bb      	ldr	r3, [r7, #24]
 8002d92:	18cb      	adds	r3, r1, r3
 8002d94:	781b      	ldrb	r3, [r3, #0]
 8002d96:	0019      	movs	r1, r3
 8002d98:	230f      	movs	r3, #15
 8002d9a:	400b      	ands	r3, r1
 8002d9c:	4313      	orrs	r3, r2
 8002d9e:	61fb      	str	r3, [r7, #28]
        for (size_t i = 0; i < nibble_count; ++i) {
 8002da0:	69bb      	ldr	r3, [r7, #24]
 8002da2:	3301      	adds	r3, #1
 8002da4:	61bb      	str	r3, [r7, #24]
 8002da6:	69ba      	ldr	r2, [r7, #24]
 8002da8:	68bb      	ldr	r3, [r7, #8]
 8002daa:	429a      	cmp	r2, r3
 8002dac:	d3ed      	bcc.n	8002d8a <sent_pack_nibbles+0x40>
 8002dae:	e017      	b.n	8002de0 <sent_pack_nibbles+0x96>
        }
    } else {
        for (size_t i = 0; i < nibble_count; ++i) {
 8002db0:	2300      	movs	r3, #0
 8002db2:	617b      	str	r3, [r7, #20]
 8002db4:	e010      	b.n	8002dd8 <sent_pack_nibbles+0x8e>
            packed |= ((uint32_t)(nibbles[i] & 0x0FU) << (4U * i));
 8002db6:	68fa      	ldr	r2, [r7, #12]
 8002db8:	697b      	ldr	r3, [r7, #20]
 8002dba:	18d3      	adds	r3, r2, r3
 8002dbc:	781b      	ldrb	r3, [r3, #0]
 8002dbe:	001a      	movs	r2, r3
 8002dc0:	230f      	movs	r3, #15
 8002dc2:	401a      	ands	r2, r3
 8002dc4:	697b      	ldr	r3, [r7, #20]
 8002dc6:	009b      	lsls	r3, r3, #2
 8002dc8:	409a      	lsls	r2, r3
 8002dca:	0013      	movs	r3, r2
 8002dcc:	69fa      	ldr	r2, [r7, #28]
 8002dce:	4313      	orrs	r3, r2
 8002dd0:	61fb      	str	r3, [r7, #28]
        for (size_t i = 0; i < nibble_count; ++i) {
 8002dd2:	697b      	ldr	r3, [r7, #20]
 8002dd4:	3301      	adds	r3, #1
 8002dd6:	617b      	str	r3, [r7, #20]
 8002dd8:	697a      	ldr	r2, [r7, #20]
 8002dda:	68bb      	ldr	r3, [r7, #8]
 8002ddc:	429a      	cmp	r2, r3
 8002dde:	d3ea      	bcc.n	8002db6 <sent_pack_nibbles+0x6c>
        }
    }

    return packed;
 8002de0:	69fb      	ldr	r3, [r7, #28]
}
 8002de2:	0018      	movs	r0, r3
 8002de4:	46bd      	mov	sp, r7
 8002de6:	b008      	add	sp, #32
 8002de8:	bd80      	pop	{r7, pc}

08002dea <sent_unpack_nibbles>:
 * @param out_nibbles   [out] array to receive 4-bit nibble values
 * @return              true on success */
bool sent_unpack_nibbles(uint32_t packed,
                         uint8_t nibble_count,
                         sent_nibble_order_t order,
                         uint8_t* out_nibbles) {
 8002dea:	b580      	push	{r7, lr}
 8002dec:	b086      	sub	sp, #24
 8002dee:	af00      	add	r7, sp, #0
 8002df0:	60f8      	str	r0, [r7, #12]
 8002df2:	0008      	movs	r0, r1
 8002df4:	0011      	movs	r1, r2
 8002df6:	607b      	str	r3, [r7, #4]
 8002df8:	230b      	movs	r3, #11
 8002dfa:	18fb      	adds	r3, r7, r3
 8002dfc:	1c02      	adds	r2, r0, #0
 8002dfe:	701a      	strb	r2, [r3, #0]
 8002e00:	230a      	movs	r3, #10
 8002e02:	18fb      	adds	r3, r7, r3
 8002e04:	1c0a      	adds	r2, r1, #0
 8002e06:	701a      	strb	r2, [r3, #0]
    SENT_ASSERT(out_nibbles != NULL);
 8002e08:	687b      	ldr	r3, [r7, #4]
 8002e0a:	2b00      	cmp	r3, #0
 8002e0c:	d102      	bne.n	8002e14 <sent_unpack_nibbles+0x2a>
 8002e0e:	be00      	bkpt	0x0000
 8002e10:	46c0      	nop			@ (mov r8, r8)
 8002e12:	e7fd      	b.n	8002e10 <sent_unpack_nibbles+0x26>
    if (nibble_count == 0U || nibble_count > SENT_MAX_DATA_NIBBLES) {
 8002e14:	220b      	movs	r2, #11
 8002e16:	18bb      	adds	r3, r7, r2
 8002e18:	781b      	ldrb	r3, [r3, #0]
 8002e1a:	2b00      	cmp	r3, #0
 8002e1c:	d003      	beq.n	8002e26 <sent_unpack_nibbles+0x3c>
 8002e1e:	18bb      	adds	r3, r7, r2
 8002e20:	781b      	ldrb	r3, [r3, #0]
 8002e22:	2b08      	cmp	r3, #8
 8002e24:	d901      	bls.n	8002e2a <sent_unpack_nibbles+0x40>
        return false;
 8002e26:	2300      	movs	r3, #0
 8002e28:	e05c      	b.n	8002ee4 <sent_unpack_nibbles+0xfa>
    }

    if (order == SENT_NIBBLE_ORDER_MSB_FIRST) {
 8002e2a:	230a      	movs	r3, #10
 8002e2c:	18fb      	adds	r3, r7, r3
 8002e2e:	781b      	ldrb	r3, [r3, #0]
 8002e30:	2b00      	cmp	r3, #0
 8002e32:	d12e      	bne.n	8002e92 <sent_unpack_nibbles+0xa8>
        for (uint8_t i = 0; i < nibble_count; ++i) {
 8002e34:	2317      	movs	r3, #23
 8002e36:	18fb      	adds	r3, r7, r3
 8002e38:	2200      	movs	r2, #0
 8002e3a:	701a      	strb	r2, [r3, #0]
 8002e3c:	e020      	b.n	8002e80 <sent_unpack_nibbles+0x96>
            uint8_t shift = (uint8_t)(4U * (nibble_count - 1U - i));
 8002e3e:	230b      	movs	r3, #11
 8002e40:	18fb      	adds	r3, r7, r3
 8002e42:	781a      	ldrb	r2, [r3, #0]
 8002e44:	2117      	movs	r1, #23
 8002e46:	187b      	adds	r3, r7, r1
 8002e48:	781b      	ldrb	r3, [r3, #0]
 8002e4a:	1ad3      	subs	r3, r2, r3
 8002e4c:	3b01      	subs	r3, #1
 8002e4e:	b2da      	uxtb	r2, r3
 8002e50:	2014      	movs	r0, #20
 8002e52:	183b      	adds	r3, r7, r0
 8002e54:	0092      	lsls	r2, r2, #2
 8002e56:	701a      	strb	r2, [r3, #0]
            out_nibbles[i] = (uint8_t)((packed >> shift) & 0x0FU);
 8002e58:	183b      	adds	r3, r7, r0
 8002e5a:	781b      	ldrb	r3, [r3, #0]
 8002e5c:	68fa      	ldr	r2, [r7, #12]
 8002e5e:	40da      	lsrs	r2, r3
 8002e60:	0013      	movs	r3, r2
 8002e62:	b2da      	uxtb	r2, r3
 8002e64:	0008      	movs	r0, r1
 8002e66:	187b      	adds	r3, r7, r1
 8002e68:	781b      	ldrb	r3, [r3, #0]
 8002e6a:	6879      	ldr	r1, [r7, #4]
 8002e6c:	18cb      	adds	r3, r1, r3
 8002e6e:	210f      	movs	r1, #15
 8002e70:	400a      	ands	r2, r1
 8002e72:	b2d2      	uxtb	r2, r2
 8002e74:	701a      	strb	r2, [r3, #0]
        for (uint8_t i = 0; i < nibble_count; ++i) {
 8002e76:	183b      	adds	r3, r7, r0
 8002e78:	183a      	adds	r2, r7, r0
 8002e7a:	7812      	ldrb	r2, [r2, #0]
 8002e7c:	3201      	adds	r2, #1
 8002e7e:	701a      	strb	r2, [r3, #0]
 8002e80:	2317      	movs	r3, #23
 8002e82:	18fa      	adds	r2, r7, r3
 8002e84:	230b      	movs	r3, #11
 8002e86:	18fb      	adds	r3, r7, r3
 8002e88:	7812      	ldrb	r2, [r2, #0]
 8002e8a:	781b      	ldrb	r3, [r3, #0]
 8002e8c:	429a      	cmp	r2, r3
 8002e8e:	d3d6      	bcc.n	8002e3e <sent_unpack_nibbles+0x54>
 8002e90:	e027      	b.n	8002ee2 <sent_unpack_nibbles+0xf8>
        }
    } else {
        for (uint8_t i = 0; i < nibble_count; ++i) {
 8002e92:	2316      	movs	r3, #22
 8002e94:	18fb      	adds	r3, r7, r3
 8002e96:	2200      	movs	r2, #0
 8002e98:	701a      	strb	r2, [r3, #0]
 8002e9a:	e01a      	b.n	8002ed2 <sent_unpack_nibbles+0xe8>
            uint8_t shift = (uint8_t)(4U * i);
 8002e9c:	2015      	movs	r0, #21
 8002e9e:	183b      	adds	r3, r7, r0
 8002ea0:	2116      	movs	r1, #22
 8002ea2:	187a      	adds	r2, r7, r1
 8002ea4:	7812      	ldrb	r2, [r2, #0]
 8002ea6:	0092      	lsls	r2, r2, #2
 8002ea8:	701a      	strb	r2, [r3, #0]
            out_nibbles[i] = (uint8_t)((packed >> shift) & 0x0FU);
 8002eaa:	183b      	adds	r3, r7, r0
 8002eac:	781b      	ldrb	r3, [r3, #0]
 8002eae:	68fa      	ldr	r2, [r7, #12]
 8002eb0:	40da      	lsrs	r2, r3
 8002eb2:	0013      	movs	r3, r2
 8002eb4:	b2da      	uxtb	r2, r3
 8002eb6:	0008      	movs	r0, r1
 8002eb8:	187b      	adds	r3, r7, r1
 8002eba:	781b      	ldrb	r3, [r3, #0]
 8002ebc:	6879      	ldr	r1, [r7, #4]
 8002ebe:	18cb      	adds	r3, r1, r3
 8002ec0:	210f      	movs	r1, #15
 8002ec2:	400a      	ands	r2, r1
 8002ec4:	b2d2      	uxtb	r2, r2
 8002ec6:	701a      	strb	r2, [r3, #0]
        for (uint8_t i = 0; i < nibble_count; ++i) {
 8002ec8:	183b      	adds	r3, r7, r0
 8002eca:	183a      	adds	r2, r7, r0
 8002ecc:	7812      	ldrb	r2, [r2, #0]
 8002ece:	3201      	adds	r2, #1
 8002ed0:	701a      	strb	r2, [r3, #0]
 8002ed2:	2316      	movs	r3, #22
 8002ed4:	18fa      	adds	r2, r7, r3
 8002ed6:	230b      	movs	r3, #11
 8002ed8:	18fb      	adds	r3, r7, r3
 8002eda:	7812      	ldrb	r2, [r2, #0]
 8002edc:	781b      	ldrb	r3, [r3, #0]
 8002ede:	429a      	cmp	r2, r3
 8002ee0:	d3dc      	bcc.n	8002e9c <sent_unpack_nibbles+0xb2>
        }
    }

    return true;
 8002ee2:	2301      	movs	r3, #1
}
 8002ee4:	0018      	movs	r0, r3
 8002ee6:	46bd      	mov	sp, r7
 8002ee8:	b006      	add	sp, #24
 8002eea:	bd80      	pop	{r7, pc}

08002eec <trim_len>:
#include <string.h>

/* Return length of line excluding trailing CR/LF characters.
 * @param line  null-terminated input string
 * @return      trimmed length */
static size_t trim_len(const char* line) {
 8002eec:	b580      	push	{r7, lr}
 8002eee:	b084      	sub	sp, #16
 8002ef0:	af00      	add	r7, sp, #0
 8002ef2:	6078      	str	r0, [r7, #4]
    size_t len = 0U;
 8002ef4:	2300      	movs	r3, #0
 8002ef6:	60fb      	str	r3, [r7, #12]
    while (line[len] != '\0') {
 8002ef8:	e002      	b.n	8002f00 <trim_len+0x14>
        ++len;
 8002efa:	68fb      	ldr	r3, [r7, #12]
 8002efc:	3301      	adds	r3, #1
 8002efe:	60fb      	str	r3, [r7, #12]
    while (line[len] != '\0') {
 8002f00:	687a      	ldr	r2, [r7, #4]
 8002f02:	68fb      	ldr	r3, [r7, #12]
 8002f04:	18d3      	adds	r3, r2, r3
 8002f06:	781b      	ldrb	r3, [r3, #0]
 8002f08:	2b00      	cmp	r3, #0
 8002f0a:	d1f6      	bne.n	8002efa <trim_len+0xe>
    }
    while (len > 0U && (line[len - 1U] == '\r' || line[len - 1U] == '\n')) {
 8002f0c:	e002      	b.n	8002f14 <trim_len+0x28>
        --len;
 8002f0e:	68fb      	ldr	r3, [r7, #12]
 8002f10:	3b01      	subs	r3, #1
 8002f12:	60fb      	str	r3, [r7, #12]
    while (len > 0U && (line[len - 1U] == '\r' || line[len - 1U] == '\n')) {
 8002f14:	68fb      	ldr	r3, [r7, #12]
 8002f16:	2b00      	cmp	r3, #0
 8002f18:	d00d      	beq.n	8002f36 <trim_len+0x4a>
 8002f1a:	68fb      	ldr	r3, [r7, #12]
 8002f1c:	3b01      	subs	r3, #1
 8002f1e:	687a      	ldr	r2, [r7, #4]
 8002f20:	18d3      	adds	r3, r2, r3
 8002f22:	781b      	ldrb	r3, [r3, #0]
 8002f24:	2b0d      	cmp	r3, #13
 8002f26:	d0f2      	beq.n	8002f0e <trim_len+0x22>
 8002f28:	68fb      	ldr	r3, [r7, #12]
 8002f2a:	3b01      	subs	r3, #1
 8002f2c:	687a      	ldr	r2, [r7, #4]
 8002f2e:	18d3      	adds	r3, r2, r3
 8002f30:	781b      	ldrb	r3, [r3, #0]
 8002f32:	2b0a      	cmp	r3, #10
 8002f34:	d0eb      	beq.n	8002f0e <trim_len+0x22>
    }
    return len;
 8002f36:	68fb      	ldr	r3, [r7, #12]
}
 8002f38:	0018      	movs	r0, r3
 8002f3a:	46bd      	mov	sp, r7
 8002f3c:	b004      	add	sp, #16
 8002f3e:	bd80      	pop	{r7, pc}

08002f40 <parse_hex_slice>:
/* Parse a hex string of given length into a uint32 value.
 * @param text       hex character string (not null-terminated, length-delimited)
 * @param len        number of hex characters to parse
 * @param out_value  [out] parsed 32-bit value
 * @return           true if all characters are valid hex */
static bool parse_hex_slice(const char* text, size_t len, uint32_t* out_value) {
 8002f40:	b580      	push	{r7, lr}
 8002f42:	b088      	sub	sp, #32
 8002f44:	af00      	add	r7, sp, #0
 8002f46:	60f8      	str	r0, [r7, #12]
 8002f48:	60b9      	str	r1, [r7, #8]
 8002f4a:	607a      	str	r2, [r7, #4]
    SENT_ASSERT(text != NULL && out_value != NULL);
 8002f4c:	68fb      	ldr	r3, [r7, #12]
 8002f4e:	2b00      	cmp	r3, #0
 8002f50:	d002      	beq.n	8002f58 <parse_hex_slice+0x18>
 8002f52:	687b      	ldr	r3, [r7, #4]
 8002f54:	2b00      	cmp	r3, #0
 8002f56:	d102      	bne.n	8002f5e <parse_hex_slice+0x1e>
 8002f58:	be00      	bkpt	0x0000
 8002f5a:	46c0      	nop			@ (mov r8, r8)
 8002f5c:	e7fd      	b.n	8002f5a <parse_hex_slice+0x1a>
    if (len == 0U) {
 8002f5e:	68bb      	ldr	r3, [r7, #8]
 8002f60:	2b00      	cmp	r3, #0
 8002f62:	d101      	bne.n	8002f68 <parse_hex_slice+0x28>
        return false;
 8002f64:	2300      	movs	r3, #0
 8002f66:	e059      	b.n	800301c <parse_hex_slice+0xdc>
    }

    uint32_t value = 0U;
 8002f68:	2300      	movs	r3, #0
 8002f6a:	61fb      	str	r3, [r7, #28]
    for (size_t i = 0; i < len; ++i) {
 8002f6c:	2300      	movs	r3, #0
 8002f6e:	61bb      	str	r3, [r7, #24]
 8002f70:	e04c      	b.n	800300c <parse_hex_slice+0xcc>
        char c = text[i];
 8002f72:	68fa      	ldr	r2, [r7, #12]
 8002f74:	69bb      	ldr	r3, [r7, #24]
 8002f76:	18d2      	adds	r2, r2, r3
 8002f78:	2116      	movs	r1, #22
 8002f7a:	187b      	adds	r3, r7, r1
 8002f7c:	7812      	ldrb	r2, [r2, #0]
 8002f7e:	701a      	strb	r2, [r3, #0]
        uint8_t nibble = 0U;
 8002f80:	2017      	movs	r0, #23
 8002f82:	183b      	adds	r3, r7, r0
 8002f84:	2200      	movs	r2, #0
 8002f86:	701a      	strb	r2, [r3, #0]
        if (c >= '0' && c <= '9') {
 8002f88:	000a      	movs	r2, r1
 8002f8a:	18bb      	adds	r3, r7, r2
 8002f8c:	781b      	ldrb	r3, [r3, #0]
 8002f8e:	2b2f      	cmp	r3, #47	@ 0x2f
 8002f90:	d909      	bls.n	8002fa6 <parse_hex_slice+0x66>
 8002f92:	18bb      	adds	r3, r7, r2
 8002f94:	781b      	ldrb	r3, [r3, #0]
 8002f96:	2b39      	cmp	r3, #57	@ 0x39
 8002f98:	d805      	bhi.n	8002fa6 <parse_hex_slice+0x66>
            nibble = (uint8_t)(c - '0');
 8002f9a:	183b      	adds	r3, r7, r0
 8002f9c:	18ba      	adds	r2, r7, r2
 8002f9e:	7812      	ldrb	r2, [r2, #0]
 8002fa0:	3a30      	subs	r2, #48	@ 0x30
 8002fa2:	701a      	strb	r2, [r3, #0]
 8002fa4:	e021      	b.n	8002fea <parse_hex_slice+0xaa>
        } else if (c >= 'a' && c <= 'f') {
 8002fa6:	2216      	movs	r2, #22
 8002fa8:	18bb      	adds	r3, r7, r2
 8002faa:	781b      	ldrb	r3, [r3, #0]
 8002fac:	2b60      	cmp	r3, #96	@ 0x60
 8002fae:	d90a      	bls.n	8002fc6 <parse_hex_slice+0x86>
 8002fb0:	18bb      	adds	r3, r7, r2
 8002fb2:	781b      	ldrb	r3, [r3, #0]
 8002fb4:	2b66      	cmp	r3, #102	@ 0x66
 8002fb6:	d806      	bhi.n	8002fc6 <parse_hex_slice+0x86>
            nibble = (uint8_t)(10 + (c - 'a'));
 8002fb8:	2317      	movs	r3, #23
 8002fba:	18fb      	adds	r3, r7, r3
 8002fbc:	18ba      	adds	r2, r7, r2
 8002fbe:	7812      	ldrb	r2, [r2, #0]
 8002fc0:	3a57      	subs	r2, #87	@ 0x57
 8002fc2:	701a      	strb	r2, [r3, #0]
 8002fc4:	e011      	b.n	8002fea <parse_hex_slice+0xaa>
        } else if (c >= 'A' && c <= 'F') {
 8002fc6:	2216      	movs	r2, #22
 8002fc8:	18bb      	adds	r3, r7, r2
 8002fca:	781b      	ldrb	r3, [r3, #0]
 8002fcc:	2b40      	cmp	r3, #64	@ 0x40
 8002fce:	d90a      	bls.n	8002fe6 <parse_hex_slice+0xa6>
 8002fd0:	18bb      	adds	r3, r7, r2
 8002fd2:	781b      	ldrb	r3, [r3, #0]
 8002fd4:	2b46      	cmp	r3, #70	@ 0x46
 8002fd6:	d806      	bhi.n	8002fe6 <parse_hex_slice+0xa6>
            nibble = (uint8_t)(10 + (c - 'A'));
 8002fd8:	2317      	movs	r3, #23
 8002fda:	18fb      	adds	r3, r7, r3
 8002fdc:	18ba      	adds	r2, r7, r2
 8002fde:	7812      	ldrb	r2, [r2, #0]
 8002fe0:	3a37      	subs	r2, #55	@ 0x37
 8002fe2:	701a      	strb	r2, [r3, #0]
 8002fe4:	e001      	b.n	8002fea <parse_hex_slice+0xaa>
        } else {
            return false;
 8002fe6:	2300      	movs	r3, #0
 8002fe8:	e018      	b.n	800301c <parse_hex_slice+0xdc>
        }

        if (value > (0xFFFFFFFFU >> 4U)) {
 8002fea:	69fa      	ldr	r2, [r7, #28]
 8002fec:	2380      	movs	r3, #128	@ 0x80
 8002fee:	055b      	lsls	r3, r3, #21
 8002ff0:	429a      	cmp	r2, r3
 8002ff2:	d301      	bcc.n	8002ff8 <parse_hex_slice+0xb8>
            return false;
 8002ff4:	2300      	movs	r3, #0
 8002ff6:	e011      	b.n	800301c <parse_hex_slice+0xdc>
        }
        value = (value << 4U) | nibble;
 8002ff8:	69fb      	ldr	r3, [r7, #28]
 8002ffa:	011a      	lsls	r2, r3, #4
 8002ffc:	2317      	movs	r3, #23
 8002ffe:	18fb      	adds	r3, r7, r3
 8003000:	781b      	ldrb	r3, [r3, #0]
 8003002:	4313      	orrs	r3, r2
 8003004:	61fb      	str	r3, [r7, #28]
    for (size_t i = 0; i < len; ++i) {
 8003006:	69bb      	ldr	r3, [r7, #24]
 8003008:	3301      	adds	r3, #1
 800300a:	61bb      	str	r3, [r7, #24]
 800300c:	69ba      	ldr	r2, [r7, #24]
 800300e:	68bb      	ldr	r3, [r7, #8]
 8003010:	429a      	cmp	r2, r3
 8003012:	d3ae      	bcc.n	8002f72 <parse_hex_slice+0x32>
    }

    *out_value = value;
 8003014:	687b      	ldr	r3, [r7, #4]
 8003016:	69fa      	ldr	r2, [r7, #28]
 8003018:	601a      	str	r2, [r3, #0]
    return true;
 800301a:	2301      	movs	r3, #1
}
 800301c:	0018      	movs	r0, r3
 800301e:	46bd      	mov	sp, r7
 8003020:	b008      	add	sp, #32
 8003022:	bd80      	pop	{r7, pc}

08003024 <nibble_to_hex>:

/* Convert a 4-bit nibble value to its uppercase hex ASCII character.
 * @param nibble  value 0x0-0xF
 * @return        hex character '0'-'9' or 'A'-'F' */
static char nibble_to_hex(uint8_t nibble) {
 8003024:	b580      	push	{r7, lr}
 8003026:	b082      	sub	sp, #8
 8003028:	af00      	add	r7, sp, #0
 800302a:	0002      	movs	r2, r0
 800302c:	1dfb      	adds	r3, r7, #7
 800302e:	701a      	strb	r2, [r3, #0]
    nibble &= 0x0FU;
 8003030:	1dfb      	adds	r3, r7, #7
 8003032:	1dfa      	adds	r2, r7, #7
 8003034:	7812      	ldrb	r2, [r2, #0]
 8003036:	210f      	movs	r1, #15
 8003038:	400a      	ands	r2, r1
 800303a:	701a      	strb	r2, [r3, #0]
    if (nibble < 10U) {
 800303c:	1dfb      	adds	r3, r7, #7
 800303e:	781b      	ldrb	r3, [r3, #0]
 8003040:	2b09      	cmp	r3, #9
 8003042:	d804      	bhi.n	800304e <nibble_to_hex+0x2a>
        return (char)('0' + (char)nibble);
 8003044:	1dfb      	adds	r3, r7, #7
 8003046:	781b      	ldrb	r3, [r3, #0]
 8003048:	3330      	adds	r3, #48	@ 0x30
 800304a:	b2db      	uxtb	r3, r3
 800304c:	e003      	b.n	8003056 <nibble_to_hex+0x32>
    }
    return (char)('A' + (char)(nibble - 10U));
 800304e:	1dfb      	adds	r3, r7, #7
 8003050:	781b      	ldrb	r3, [r3, #0]
 8003052:	3337      	adds	r3, #55	@ 0x37
 8003054:	b2db      	uxtb	r3, r3
}
 8003056:	0018      	movs	r0, r3
 8003058:	46bd      	mov	sp, r7
 800305a:	b002      	add	sp, #8
 800305c:	bd80      	pop	{r7, pc}

0800305e <append_hex>:
/* Append a value as uppercase hex digits to an output buffer at cursor position.
 * @param out     output character buffer
 * @param cursor  [in/out] current write position in buffer
 * @param value   value to encode
 * @param digits  number of hex digits to write */
static void append_hex(char* out, size_t* cursor, uint32_t value, size_t digits) {
 800305e:	b590      	push	{r4, r7, lr}
 8003060:	b089      	sub	sp, #36	@ 0x24
 8003062:	af00      	add	r7, sp, #0
 8003064:	60f8      	str	r0, [r7, #12]
 8003066:	60b9      	str	r1, [r7, #8]
 8003068:	607a      	str	r2, [r7, #4]
 800306a:	603b      	str	r3, [r7, #0]
    for (size_t i = 0; i < digits; ++i) {
 800306c:	2300      	movs	r3, #0
 800306e:	61fb      	str	r3, [r7, #28]
 8003070:	e020      	b.n	80030b4 <append_hex+0x56>
        size_t shift = (digits - 1U - i) * 4U;
 8003072:	683a      	ldr	r2, [r7, #0]
 8003074:	69fb      	ldr	r3, [r7, #28]
 8003076:	1ad3      	subs	r3, r2, r3
 8003078:	3b01      	subs	r3, #1
 800307a:	009b      	lsls	r3, r3, #2
 800307c:	61bb      	str	r3, [r7, #24]
        uint8_t nibble = (uint8_t)((value >> shift) & 0x0FU);
 800307e:	687a      	ldr	r2, [r7, #4]
 8003080:	69bb      	ldr	r3, [r7, #24]
 8003082:	40da      	lsrs	r2, r3
 8003084:	0013      	movs	r3, r2
 8003086:	b2da      	uxtb	r2, r3
 8003088:	2017      	movs	r0, #23
 800308a:	183b      	adds	r3, r7, r0
 800308c:	210f      	movs	r1, #15
 800308e:	400a      	ands	r2, r1
 8003090:	701a      	strb	r2, [r3, #0]
        out[(*cursor)++] = nibble_to_hex(nibble);
 8003092:	68bb      	ldr	r3, [r7, #8]
 8003094:	681b      	ldr	r3, [r3, #0]
 8003096:	1c59      	adds	r1, r3, #1
 8003098:	68ba      	ldr	r2, [r7, #8]
 800309a:	6011      	str	r1, [r2, #0]
 800309c:	68fa      	ldr	r2, [r7, #12]
 800309e:	18d4      	adds	r4, r2, r3
 80030a0:	183b      	adds	r3, r7, r0
 80030a2:	781b      	ldrb	r3, [r3, #0]
 80030a4:	0018      	movs	r0, r3
 80030a6:	f7ff ffbd 	bl	8003024 <nibble_to_hex>
 80030aa:	0003      	movs	r3, r0
 80030ac:	7023      	strb	r3, [r4, #0]
    for (size_t i = 0; i < digits; ++i) {
 80030ae:	69fb      	ldr	r3, [r7, #28]
 80030b0:	3301      	adds	r3, #1
 80030b2:	61fb      	str	r3, [r7, #28]
 80030b4:	69fa      	ldr	r2, [r7, #28]
 80030b6:	683b      	ldr	r3, [r7, #0]
 80030b8:	429a      	cmp	r2, r3
 80030ba:	d3da      	bcc.n	8003072 <append_hex+0x14>
    }
}
 80030bc:	46c0      	nop			@ (mov r8, r8)
 80030be:	46c0      	nop			@ (mov r8, r8)
 80030c0:	46bd      	mov	sp, r7
 80030c2:	b009      	add	sp, #36	@ 0x24
 80030c4:	bd90      	pop	{r4, r7, pc}

080030c6 <sent_slcan_parse_line>:

/* Parse an SLCAN text line into a command struct (O/C/V/N/t/T/r/R commands).
 * @param line         null-terminated SLCAN command string
 * @param out_command  [out] parsed command type and optional CAN frame
 * @return             true if parsing succeeded (command may still be INVALID) */
bool sent_slcan_parse_line(const char* line, sent_slcan_command_t* out_command) {
 80030c6:	b590      	push	{r4, r7, lr}
 80030c8:	b091      	sub	sp, #68	@ 0x44
 80030ca:	af00      	add	r7, sp, #0
 80030cc:	6078      	str	r0, [r7, #4]
 80030ce:	6039      	str	r1, [r7, #0]
    SENT_ASSERT(line != NULL && out_command != NULL);
 80030d0:	687b      	ldr	r3, [r7, #4]
 80030d2:	2b00      	cmp	r3, #0
 80030d4:	d002      	beq.n	80030dc <sent_slcan_parse_line+0x16>
 80030d6:	683b      	ldr	r3, [r7, #0]
 80030d8:	2b00      	cmp	r3, #0
 80030da:	d102      	bne.n	80030e2 <sent_slcan_parse_line+0x1c>
 80030dc:	be00      	bkpt	0x0000
 80030de:	46c0      	nop			@ (mov r8, r8)
 80030e0:	e7fd      	b.n	80030de <sent_slcan_parse_line+0x18>

    memset(out_command, 0, sizeof(*out_command));
 80030e2:	683b      	ldr	r3, [r7, #0]
 80030e4:	2214      	movs	r2, #20
 80030e6:	2100      	movs	r1, #0
 80030e8:	0018      	movs	r0, r3
 80030ea:	f003 fcee 	bl	8006aca <memset>
    out_command->type = SENT_SLCAN_CMD_INVALID;
 80030ee:	683b      	ldr	r3, [r7, #0]
 80030f0:	2206      	movs	r2, #6
 80030f2:	701a      	strb	r2, [r3, #0]

    size_t len = trim_len(line);
 80030f4:	687b      	ldr	r3, [r7, #4]
 80030f6:	0018      	movs	r0, r3
 80030f8:	f7ff fef8 	bl	8002eec <trim_len>
 80030fc:	0003      	movs	r3, r0
 80030fe:	63bb      	str	r3, [r7, #56]	@ 0x38
    if (len == 0U) {
 8003100:	6bbb      	ldr	r3, [r7, #56]	@ 0x38
 8003102:	2b00      	cmp	r3, #0
 8003104:	d101      	bne.n	800310a <sent_slcan_parse_line+0x44>
        return true;
 8003106:	2301      	movs	r3, #1
 8003108:	e0f9      	b.n	80032fe <sent_slcan_parse_line+0x238>
    }

    char op = line[0];
 800310a:	2137      	movs	r1, #55	@ 0x37
 800310c:	187b      	adds	r3, r7, r1
 800310e:	687a      	ldr	r2, [r7, #4]
 8003110:	7812      	ldrb	r2, [r2, #0]
 8003112:	701a      	strb	r2, [r3, #0]
    if (op == 'O') {
 8003114:	187b      	adds	r3, r7, r1
 8003116:	781b      	ldrb	r3, [r3, #0]
 8003118:	2b4f      	cmp	r3, #79	@ 0x4f
 800311a:	d104      	bne.n	8003126 <sent_slcan_parse_line+0x60>
        out_command->type = SENT_SLCAN_CMD_OPEN;
 800311c:	683b      	ldr	r3, [r7, #0]
 800311e:	2200      	movs	r2, #0
 8003120:	701a      	strb	r2, [r3, #0]
        return true;
 8003122:	2301      	movs	r3, #1
 8003124:	e0eb      	b.n	80032fe <sent_slcan_parse_line+0x238>
    }
    if (op == 'C') {
 8003126:	2337      	movs	r3, #55	@ 0x37
 8003128:	18fb      	adds	r3, r7, r3
 800312a:	781b      	ldrb	r3, [r3, #0]
 800312c:	2b43      	cmp	r3, #67	@ 0x43
 800312e:	d104      	bne.n	800313a <sent_slcan_parse_line+0x74>
        out_command->type = SENT_SLCAN_CMD_CLOSE;
 8003130:	683b      	ldr	r3, [r7, #0]
 8003132:	2201      	movs	r2, #1
 8003134:	701a      	strb	r2, [r3, #0]
        return true;
 8003136:	2301      	movs	r3, #1
 8003138:	e0e1      	b.n	80032fe <sent_slcan_parse_line+0x238>
    }
    if (op == 'V') {
 800313a:	2337      	movs	r3, #55	@ 0x37
 800313c:	18fb      	adds	r3, r7, r3
 800313e:	781b      	ldrb	r3, [r3, #0]
 8003140:	2b56      	cmp	r3, #86	@ 0x56
 8003142:	d104      	bne.n	800314e <sent_slcan_parse_line+0x88>
        out_command->type = SENT_SLCAN_CMD_VERSION;
 8003144:	683b      	ldr	r3, [r7, #0]
 8003146:	2202      	movs	r2, #2
 8003148:	701a      	strb	r2, [r3, #0]
        return true;
 800314a:	2301      	movs	r3, #1
 800314c:	e0d7      	b.n	80032fe <sent_slcan_parse_line+0x238>
    }
    if (op == 'N') {
 800314e:	2337      	movs	r3, #55	@ 0x37
 8003150:	18fb      	adds	r3, r7, r3
 8003152:	781b      	ldrb	r3, [r3, #0]
 8003154:	2b4e      	cmp	r3, #78	@ 0x4e
 8003156:	d104      	bne.n	8003162 <sent_slcan_parse_line+0x9c>
        out_command->type = SENT_SLCAN_CMD_SERIAL;
 8003158:	683b      	ldr	r3, [r7, #0]
 800315a:	2203      	movs	r2, #3
 800315c:	701a      	strb	r2, [r3, #0]
        return true;
 800315e:	2301      	movs	r3, #1
 8003160:	e0cd      	b.n	80032fe <sent_slcan_parse_line+0x238>
    }
    if (op == 'r' || op == 'R') {
 8003162:	2237      	movs	r2, #55	@ 0x37
 8003164:	18bb      	adds	r3, r7, r2
 8003166:	781b      	ldrb	r3, [r3, #0]
 8003168:	2b72      	cmp	r3, #114	@ 0x72
 800316a:	d003      	beq.n	8003174 <sent_slcan_parse_line+0xae>
 800316c:	18bb      	adds	r3, r7, r2
 800316e:	781b      	ldrb	r3, [r3, #0]
 8003170:	2b52      	cmp	r3, #82	@ 0x52
 8003172:	d104      	bne.n	800317e <sent_slcan_parse_line+0xb8>
        out_command->type = SENT_SLCAN_CMD_UNSUPPORTED;
 8003174:	683b      	ldr	r3, [r7, #0]
 8003176:	2205      	movs	r2, #5
 8003178:	701a      	strb	r2, [r3, #0]
        return true;
 800317a:	2301      	movs	r3, #1
 800317c:	e0bf      	b.n	80032fe <sent_slcan_parse_line+0x238>
    }
    if (op != 't' && op != 'T') {
 800317e:	2237      	movs	r2, #55	@ 0x37
 8003180:	18bb      	adds	r3, r7, r2
 8003182:	781b      	ldrb	r3, [r3, #0]
 8003184:	2b74      	cmp	r3, #116	@ 0x74
 8003186:	d005      	beq.n	8003194 <sent_slcan_parse_line+0xce>
 8003188:	18bb      	adds	r3, r7, r2
 800318a:	781b      	ldrb	r3, [r3, #0]
 800318c:	2b54      	cmp	r3, #84	@ 0x54
 800318e:	d001      	beq.n	8003194 <sent_slcan_parse_line+0xce>
        return true;
 8003190:	2301      	movs	r3, #1
 8003192:	e0b4      	b.n	80032fe <sent_slcan_parse_line+0x238>
    }

    bool extended = (op == 'T');
 8003194:	2036      	movs	r0, #54	@ 0x36
 8003196:	183b      	adds	r3, r7, r0
 8003198:	2237      	movs	r2, #55	@ 0x37
 800319a:	18ba      	adds	r2, r7, r2
 800319c:	7812      	ldrb	r2, [r2, #0]
 800319e:	3a54      	subs	r2, #84	@ 0x54
 80031a0:	4251      	negs	r1, r2
 80031a2:	414a      	adcs	r2, r1
 80031a4:	701a      	strb	r2, [r3, #0]
    size_t id_len = extended ? 8U : 3U;
 80031a6:	183b      	adds	r3, r7, r0
 80031a8:	781b      	ldrb	r3, [r3, #0]
 80031aa:	2b00      	cmp	r3, #0
 80031ac:	d001      	beq.n	80031b2 <sent_slcan_parse_line+0xec>
 80031ae:	2308      	movs	r3, #8
 80031b0:	e000      	b.n	80031b4 <sent_slcan_parse_line+0xee>
 80031b2:	2303      	movs	r3, #3
 80031b4:	633b      	str	r3, [r7, #48]	@ 0x30
    if (len < 1U + id_len + 1U) {
 80031b6:	6b3b      	ldr	r3, [r7, #48]	@ 0x30
 80031b8:	3302      	adds	r3, #2
 80031ba:	6bba      	ldr	r2, [r7, #56]	@ 0x38
 80031bc:	429a      	cmp	r2, r3
 80031be:	d201      	bcs.n	80031c4 <sent_slcan_parse_line+0xfe>
        return true;
 80031c0:	2301      	movs	r3, #1
 80031c2:	e09c      	b.n	80032fe <sent_slcan_parse_line+0x238>
    }

    uint32_t id = 0U;
 80031c4:	2300      	movs	r3, #0
 80031c6:	623b      	str	r3, [r7, #32]
    if (!parse_hex_slice(&line[1], id_len, &id)) {
 80031c8:	687b      	ldr	r3, [r7, #4]
 80031ca:	3301      	adds	r3, #1
 80031cc:	2220      	movs	r2, #32
 80031ce:	18ba      	adds	r2, r7, r2
 80031d0:	6b39      	ldr	r1, [r7, #48]	@ 0x30
 80031d2:	0018      	movs	r0, r3
 80031d4:	f7ff feb4 	bl	8002f40 <parse_hex_slice>
 80031d8:	0003      	movs	r3, r0
 80031da:	001a      	movs	r2, r3
 80031dc:	2301      	movs	r3, #1
 80031de:	4053      	eors	r3, r2
 80031e0:	b2db      	uxtb	r3, r3
 80031e2:	2b00      	cmp	r3, #0
 80031e4:	d001      	beq.n	80031ea <sent_slcan_parse_line+0x124>
        return true;
 80031e6:	2301      	movs	r3, #1
 80031e8:	e089      	b.n	80032fe <sent_slcan_parse_line+0x238>
    }

    uint32_t dlc_u32 = 0U;
 80031ea:	2300      	movs	r3, #0
 80031ec:	61fb      	str	r3, [r7, #28]
    if (!parse_hex_slice(&line[1U + id_len], 1U, &dlc_u32) || dlc_u32 > SENT_CAN_MAX_DLC) {
 80031ee:	6b3b      	ldr	r3, [r7, #48]	@ 0x30
 80031f0:	3301      	adds	r3, #1
 80031f2:	687a      	ldr	r2, [r7, #4]
 80031f4:	18d3      	adds	r3, r2, r3
 80031f6:	221c      	movs	r2, #28
 80031f8:	18ba      	adds	r2, r7, r2
 80031fa:	2101      	movs	r1, #1
 80031fc:	0018      	movs	r0, r3
 80031fe:	f7ff fe9f 	bl	8002f40 <parse_hex_slice>
 8003202:	0003      	movs	r3, r0
 8003204:	001a      	movs	r2, r3
 8003206:	2301      	movs	r3, #1
 8003208:	4053      	eors	r3, r2
 800320a:	b2db      	uxtb	r3, r3
 800320c:	2b00      	cmp	r3, #0
 800320e:	d102      	bne.n	8003216 <sent_slcan_parse_line+0x150>
 8003210:	69fb      	ldr	r3, [r7, #28]
 8003212:	2b08      	cmp	r3, #8
 8003214:	d901      	bls.n	800321a <sent_slcan_parse_line+0x154>
        return true;
 8003216:	2301      	movs	r3, #1
 8003218:	e071      	b.n	80032fe <sent_slcan_parse_line+0x238>
    }
    uint8_t dlc = (uint8_t)dlc_u32;
 800321a:	69fa      	ldr	r2, [r7, #28]
 800321c:	212f      	movs	r1, #47	@ 0x2f
 800321e:	187b      	adds	r3, r7, r1
 8003220:	701a      	strb	r2, [r3, #0]
    size_t payload_len = (size_t)dlc * 2U;
 8003222:	187b      	adds	r3, r7, r1
 8003224:	781b      	ldrb	r3, [r3, #0]
 8003226:	005b      	lsls	r3, r3, #1
 8003228:	62bb      	str	r3, [r7, #40]	@ 0x28
    if (len != 1U + id_len + 1U + payload_len) {
 800322a:	6b3a      	ldr	r2, [r7, #48]	@ 0x30
 800322c:	6abb      	ldr	r3, [r7, #40]	@ 0x28
 800322e:	18d3      	adds	r3, r2, r3
 8003230:	3302      	adds	r3, #2
 8003232:	6bba      	ldr	r2, [r7, #56]	@ 0x38
 8003234:	429a      	cmp	r2, r3
 8003236:	d001      	beq.n	800323c <sent_slcan_parse_line+0x176>
        return true;
 8003238:	2301      	movs	r3, #1
 800323a:	e060      	b.n	80032fe <sent_slcan_parse_line+0x238>
    }

    sent_can_frame_t frame;
    memset(&frame, 0, sizeof(frame));
 800323c:	230c      	movs	r3, #12
 800323e:	18fb      	adds	r3, r7, r3
 8003240:	2210      	movs	r2, #16
 8003242:	2100      	movs	r1, #0
 8003244:	0018      	movs	r0, r3
 8003246:	f003 fc40 	bl	8006aca <memset>
    frame.id = extended ? (id & 0x1FFFFFFFU) : (id & 0x7FFU);
 800324a:	2336      	movs	r3, #54	@ 0x36
 800324c:	18fb      	adds	r3, r7, r3
 800324e:	781b      	ldrb	r3, [r3, #0]
 8003250:	2b00      	cmp	r3, #0
 8003252:	d003      	beq.n	800325c <sent_slcan_parse_line+0x196>
 8003254:	6a3b      	ldr	r3, [r7, #32]
 8003256:	00db      	lsls	r3, r3, #3
 8003258:	08da      	lsrs	r2, r3, #3
 800325a:	e002      	b.n	8003262 <sent_slcan_parse_line+0x19c>
 800325c:	6a3b      	ldr	r3, [r7, #32]
 800325e:	055b      	lsls	r3, r3, #21
 8003260:	0d5a      	lsrs	r2, r3, #21
 8003262:	210c      	movs	r1, #12
 8003264:	187b      	adds	r3, r7, r1
 8003266:	601a      	str	r2, [r3, #0]
    frame.extended = extended;
 8003268:	187b      	adds	r3, r7, r1
 800326a:	2236      	movs	r2, #54	@ 0x36
 800326c:	18ba      	adds	r2, r7, r2
 800326e:	7812      	ldrb	r2, [r2, #0]
 8003270:	711a      	strb	r2, [r3, #4]
    frame.dlc = dlc;
 8003272:	187b      	adds	r3, r7, r1
 8003274:	222f      	movs	r2, #47	@ 0x2f
 8003276:	18ba      	adds	r2, r7, r2
 8003278:	7812      	ldrb	r2, [r2, #0]
 800327a:	715a      	strb	r2, [r3, #5]

    for (size_t i = 0U; i < dlc; ++i) {
 800327c:	2300      	movs	r3, #0
 800327e:	63fb      	str	r3, [r7, #60]	@ 0x3c
 8003280:	e028      	b.n	80032d4 <sent_slcan_parse_line+0x20e>
        uint32_t byte_u32 = 0U;
 8003282:	2300      	movs	r3, #0
 8003284:	60bb      	str	r3, [r7, #8]
        size_t at = 1U + id_len + 1U + (2U * i);
 8003286:	6bfb      	ldr	r3, [r7, #60]	@ 0x3c
 8003288:	005a      	lsls	r2, r3, #1
 800328a:	6b3b      	ldr	r3, [r7, #48]	@ 0x30
 800328c:	18d3      	adds	r3, r2, r3
 800328e:	3302      	adds	r3, #2
 8003290:	627b      	str	r3, [r7, #36]	@ 0x24
        if (!parse_hex_slice(&line[at], 2U, &byte_u32) || byte_u32 > 0xFFU) {
 8003292:	687a      	ldr	r2, [r7, #4]
 8003294:	6a7b      	ldr	r3, [r7, #36]	@ 0x24
 8003296:	18d3      	adds	r3, r2, r3
 8003298:	2208      	movs	r2, #8
 800329a:	18ba      	adds	r2, r7, r2
 800329c:	2102      	movs	r1, #2
 800329e:	0018      	movs	r0, r3
 80032a0:	f7ff fe4e 	bl	8002f40 <parse_hex_slice>
 80032a4:	0003      	movs	r3, r0
 80032a6:	001a      	movs	r2, r3
 80032a8:	2301      	movs	r3, #1
 80032aa:	4053      	eors	r3, r2
 80032ac:	b2db      	uxtb	r3, r3
 80032ae:	2b00      	cmp	r3, #0
 80032b0:	d102      	bne.n	80032b8 <sent_slcan_parse_line+0x1f2>
 80032b2:	68bb      	ldr	r3, [r7, #8]
 80032b4:	2bff      	cmp	r3, #255	@ 0xff
 80032b6:	d901      	bls.n	80032bc <sent_slcan_parse_line+0x1f6>
            return true;
 80032b8:	2301      	movs	r3, #1
 80032ba:	e020      	b.n	80032fe <sent_slcan_parse_line+0x238>
        }
        frame.data[i] = (uint8_t)byte_u32;
 80032bc:	68bb      	ldr	r3, [r7, #8]
 80032be:	b2d9      	uxtb	r1, r3
 80032c0:	230c      	movs	r3, #12
 80032c2:	18fa      	adds	r2, r7, r3
 80032c4:	6bfb      	ldr	r3, [r7, #60]	@ 0x3c
 80032c6:	18d3      	adds	r3, r2, r3
 80032c8:	3306      	adds	r3, #6
 80032ca:	1c0a      	adds	r2, r1, #0
 80032cc:	701a      	strb	r2, [r3, #0]
    for (size_t i = 0U; i < dlc; ++i) {
 80032ce:	6bfb      	ldr	r3, [r7, #60]	@ 0x3c
 80032d0:	3301      	adds	r3, #1
 80032d2:	63fb      	str	r3, [r7, #60]	@ 0x3c
 80032d4:	232f      	movs	r3, #47	@ 0x2f
 80032d6:	18fb      	adds	r3, r7, r3
 80032d8:	781b      	ldrb	r3, [r3, #0]
 80032da:	6bfa      	ldr	r2, [r7, #60]	@ 0x3c
 80032dc:	429a      	cmp	r2, r3
 80032de:	d3d0      	bcc.n	8003282 <sent_slcan_parse_line+0x1bc>
    }

    out_command->type = SENT_SLCAN_CMD_FRAME;
 80032e0:	683b      	ldr	r3, [r7, #0]
 80032e2:	2204      	movs	r2, #4
 80032e4:	701a      	strb	r2, [r3, #0]
    out_command->has_frame = true;
 80032e6:	683b      	ldr	r3, [r7, #0]
 80032e8:	2201      	movs	r2, #1
 80032ea:	705a      	strb	r2, [r3, #1]
    out_command->frame = frame;
 80032ec:	683b      	ldr	r3, [r7, #0]
 80032ee:	220c      	movs	r2, #12
 80032f0:	18ba      	adds	r2, r7, r2
 80032f2:	3304      	adds	r3, #4
 80032f4:	ca13      	ldmia	r2!, {r0, r1, r4}
 80032f6:	c313      	stmia	r3!, {r0, r1, r4}
 80032f8:	6812      	ldr	r2, [r2, #0]
 80032fa:	601a      	str	r2, [r3, #0]
    return true;
 80032fc:	2301      	movs	r3, #1
}
 80032fe:	0018      	movs	r0, r3
 8003300:	46bd      	mov	sp, r7
 8003302:	b011      	add	sp, #68	@ 0x44
 8003304:	bd90      	pop	{r4, r7, pc}

08003306 <sent_slcan_serialize_frame>:
 * @param out_line       [out] output buffer for null-terminated SLCAN string
 * @param out_line_size  size of output buffer [bytes]
 * @return               true if serialization succeeded */
bool sent_slcan_serialize_frame(const sent_can_frame_t* frame,
                                char* out_line,
                                size_t out_line_size) {
 8003306:	b590      	push	{r4, r7, lr}
 8003308:	b089      	sub	sp, #36	@ 0x24
 800330a:	af00      	add	r7, sp, #0
 800330c:	60f8      	str	r0, [r7, #12]
 800330e:	60b9      	str	r1, [r7, #8]
 8003310:	607a      	str	r2, [r7, #4]
    SENT_ASSERT(frame != NULL && out_line != NULL);
 8003312:	68fb      	ldr	r3, [r7, #12]
 8003314:	2b00      	cmp	r3, #0
 8003316:	d002      	beq.n	800331e <sent_slcan_serialize_frame+0x18>
 8003318:	68bb      	ldr	r3, [r7, #8]
 800331a:	2b00      	cmp	r3, #0
 800331c:	d102      	bne.n	8003324 <sent_slcan_serialize_frame+0x1e>
 800331e:	be00      	bkpt	0x0000
 8003320:	46c0      	nop			@ (mov r8, r8)
 8003322:	e7fd      	b.n	8003320 <sent_slcan_serialize_frame+0x1a>
    if (out_line_size == 0U) {
 8003324:	687b      	ldr	r3, [r7, #4]
 8003326:	2b00      	cmp	r3, #0
 8003328:	d101      	bne.n	800332e <sent_slcan_serialize_frame+0x28>
        return false;
 800332a:	2300      	movs	r3, #0
 800332c:	e075      	b.n	800341a <sent_slcan_serialize_frame+0x114>
    }

    uint8_t dlc = frame->dlc > SENT_CAN_MAX_DLC ? SENT_CAN_MAX_DLC : frame->dlc;
 800332e:	68fb      	ldr	r3, [r7, #12]
 8003330:	795b      	ldrb	r3, [r3, #5]
 8003332:	221e      	movs	r2, #30
 8003334:	18ba      	adds	r2, r7, r2
 8003336:	b2d9      	uxtb	r1, r3
 8003338:	2908      	cmp	r1, #8
 800333a:	d900      	bls.n	800333e <sent_slcan_serialize_frame+0x38>
 800333c:	2308      	movs	r3, #8
 800333e:	7013      	strb	r3, [r2, #0]
    size_t id_digits = frame->extended ? 8U : 3U;
 8003340:	68fb      	ldr	r3, [r7, #12]
 8003342:	791b      	ldrb	r3, [r3, #4]
 8003344:	2b00      	cmp	r3, #0
 8003346:	d001      	beq.n	800334c <sent_slcan_serialize_frame+0x46>
 8003348:	2308      	movs	r3, #8
 800334a:	e000      	b.n	800334e <sent_slcan_serialize_frame+0x48>
 800334c:	2303      	movs	r3, #3
 800334e:	61bb      	str	r3, [r7, #24]
    size_t needed = 1U + id_digits + 1U + ((size_t)dlc * 2U);
 8003350:	231e      	movs	r3, #30
 8003352:	18fb      	adds	r3, r7, r3
 8003354:	781b      	ldrb	r3, [r3, #0]
 8003356:	005a      	lsls	r2, r3, #1
 8003358:	69bb      	ldr	r3, [r7, #24]
 800335a:	18d3      	adds	r3, r2, r3
 800335c:	3302      	adds	r3, #2
 800335e:	617b      	str	r3, [r7, #20]
    if (out_line_size <= needed) {
 8003360:	687a      	ldr	r2, [r7, #4]
 8003362:	697b      	ldr	r3, [r7, #20]
 8003364:	429a      	cmp	r2, r3
 8003366:	d801      	bhi.n	800336c <sent_slcan_serialize_frame+0x66>
        return false;
 8003368:	2300      	movs	r3, #0
 800336a:	e056      	b.n	800341a <sent_slcan_serialize_frame+0x114>
    }

    size_t w = 0U;
 800336c:	2300      	movs	r3, #0
 800336e:	613b      	str	r3, [r7, #16]
    out_line[w++] = frame->extended ? 'T' : 't';
 8003370:	68fb      	ldr	r3, [r7, #12]
 8003372:	791b      	ldrb	r3, [r3, #4]
 8003374:	2b00      	cmp	r3, #0
 8003376:	d001      	beq.n	800337c <sent_slcan_serialize_frame+0x76>
 8003378:	2154      	movs	r1, #84	@ 0x54
 800337a:	e000      	b.n	800337e <sent_slcan_serialize_frame+0x78>
 800337c:	2174      	movs	r1, #116	@ 0x74
 800337e:	693b      	ldr	r3, [r7, #16]
 8003380:	1c5a      	adds	r2, r3, #1
 8003382:	613a      	str	r2, [r7, #16]
 8003384:	68ba      	ldr	r2, [r7, #8]
 8003386:	18d3      	adds	r3, r2, r3
 8003388:	1c0a      	adds	r2, r1, #0
 800338a:	701a      	strb	r2, [r3, #0]
    if (frame->extended) {
 800338c:	68fb      	ldr	r3, [r7, #12]
 800338e:	791b      	ldrb	r3, [r3, #4]
 8003390:	2b00      	cmp	r3, #0
 8003392:	d00a      	beq.n	80033aa <sent_slcan_serialize_frame+0xa4>
        append_hex(out_line, &w, frame->id & 0x1FFFFFFFU, 8U);
 8003394:	68fb      	ldr	r3, [r7, #12]
 8003396:	681b      	ldr	r3, [r3, #0]
 8003398:	00db      	lsls	r3, r3, #3
 800339a:	08da      	lsrs	r2, r3, #3
 800339c:	2310      	movs	r3, #16
 800339e:	18f9      	adds	r1, r7, r3
 80033a0:	68b8      	ldr	r0, [r7, #8]
 80033a2:	2308      	movs	r3, #8
 80033a4:	f7ff fe5b 	bl	800305e <append_hex>
 80033a8:	e009      	b.n	80033be <sent_slcan_serialize_frame+0xb8>
    } else {
        append_hex(out_line, &w, frame->id & 0x7FFU, 3U);
 80033aa:	68fb      	ldr	r3, [r7, #12]
 80033ac:	681b      	ldr	r3, [r3, #0]
 80033ae:	055b      	lsls	r3, r3, #21
 80033b0:	0d5a      	lsrs	r2, r3, #21
 80033b2:	2310      	movs	r3, #16
 80033b4:	18f9      	adds	r1, r7, r3
 80033b6:	68b8      	ldr	r0, [r7, #8]
 80033b8:	2303      	movs	r3, #3
 80033ba:	f7ff fe50 	bl	800305e <append_hex>
    }

    append_hex(out_line, &w, dlc, 1U);
 80033be:	231e      	movs	r3, #30
 80033c0:	18fb      	adds	r3, r7, r3
 80033c2:	781a      	ldrb	r2, [r3, #0]
 80033c4:	2310      	movs	r3, #16
 80033c6:	18f9      	adds	r1, r7, r3
 80033c8:	68b8      	ldr	r0, [r7, #8]
 80033ca:	2301      	movs	r3, #1
 80033cc:	f7ff fe47 	bl	800305e <append_hex>
    for (uint8_t i = 0U; i < dlc; ++i) {
 80033d0:	231f      	movs	r3, #31
 80033d2:	18fb      	adds	r3, r7, r3
 80033d4:	2200      	movs	r2, #0
 80033d6:	701a      	strb	r2, [r3, #0]
 80033d8:	e011      	b.n	80033fe <sent_slcan_serialize_frame+0xf8>
        append_hex(out_line, &w, frame->data[i], 2U);
 80033da:	241f      	movs	r4, #31
 80033dc:	193b      	adds	r3, r7, r4
 80033de:	781b      	ldrb	r3, [r3, #0]
 80033e0:	68fa      	ldr	r2, [r7, #12]
 80033e2:	18d3      	adds	r3, r2, r3
 80033e4:	799b      	ldrb	r3, [r3, #6]
 80033e6:	001a      	movs	r2, r3
 80033e8:	2310      	movs	r3, #16
 80033ea:	18f9      	adds	r1, r7, r3
 80033ec:	68b8      	ldr	r0, [r7, #8]
 80033ee:	2302      	movs	r3, #2
 80033f0:	f7ff fe35 	bl	800305e <append_hex>
    for (uint8_t i = 0U; i < dlc; ++i) {
 80033f4:	193b      	adds	r3, r7, r4
 80033f6:	193a      	adds	r2, r7, r4
 80033f8:	7812      	ldrb	r2, [r2, #0]
 80033fa:	3201      	adds	r2, #1
 80033fc:	701a      	strb	r2, [r3, #0]
 80033fe:	231f      	movs	r3, #31
 8003400:	18fa      	adds	r2, r7, r3
 8003402:	231e      	movs	r3, #30
 8003404:	18fb      	adds	r3, r7, r3
 8003406:	7812      	ldrb	r2, [r2, #0]
 8003408:	781b      	ldrb	r3, [r3, #0]
 800340a:	429a      	cmp	r2, r3
 800340c:	d3e5      	bcc.n	80033da <sent_slcan_serialize_frame+0xd4>
    }

    out_line[w] = '\0';
 800340e:	693b      	ldr	r3, [r7, #16]
 8003410:	68ba      	ldr	r2, [r7, #8]
 8003412:	18d3      	adds	r3, r2, r3
 8003414:	2200      	movs	r2, #0
 8003416:	701a      	strb	r2, [r3, #0]
    return true;
 8003418:	2301      	movs	r3, #1
}
 800341a:	0018      	movs	r0, r3
 800341c:	46bd      	mov	sp, r7
 800341e:	b009      	add	sp, #36	@ 0x24
 8003420:	bd90      	pop	{r4, r7, pc}
	...

08003424 <Reset_Handler>:

  .section .text.Reset_Handler
  .weak Reset_Handler
  .type Reset_Handler, %function
Reset_Handler:
  ldr   r0, =_estack
 8003424:	4813      	ldr	r0, [pc, #76]	@ (8003474 <LoopForever+0x2>)
  mov   sp, r0          /* set stack pointer */
 8003426:	4685      	mov	sp, r0
  
/* Call the clock system initialization function.*/
  bl  SystemInit
 8003428:	f7fd fda8 	bl	8000f7c <SystemInit>

/*Check if boot space corresponds to test memory*/
 
    LDR R0,=0x00000004
 800342c:	4812      	ldr	r0, [pc, #72]	@ (8003478 <LoopForever+0x6>)
    LDR R1, [R0]
 800342e:	6801      	ldr	r1, [r0, #0]
    LSRS R1, R1, #24
 8003430:	0e09      	lsrs	r1, r1, #24
    LDR R2,=0x1F
 8003432:	4a12      	ldr	r2, [pc, #72]	@ (800347c <LoopForever+0xa>)
    CMP R1, R2
 8003434:	4291      	cmp	r1, r2
    BNE ApplicationStart
 8003436:	d105      	bne.n	8003444 <ApplicationStart>

 /*SYSCFG clock enable*/

    LDR R0,=0x40021018
 8003438:	4811      	ldr	r0, [pc, #68]	@ (8003480 <LoopForever+0xe>)
    LDR R1,=0x00000001
 800343a:	4912      	ldr	r1, [pc, #72]	@ (8003484 <LoopForever+0x12>)
    STR R1, [R0]
 800343c:	6001      	str	r1, [r0, #0]

/*Set CFGR1 register with flash memory remap at address 0*/
    LDR R0,=0x40010000
 800343e:	4812      	ldr	r0, [pc, #72]	@ (8003488 <LoopForever+0x16>)
    LDR R1,=0x00000000
 8003440:	4912      	ldr	r1, [pc, #72]	@ (800348c <LoopForever+0x1a>)
    STR R1, [R0]
 8003442:	6001      	str	r1, [r0, #0]

08003444 <ApplicationStart>:

ApplicationStart:
/* Copy the data segment initializers from flash to SRAM */
  ldr r0, =_sdata
 8003444:	4812      	ldr	r0, [pc, #72]	@ (8003490 <LoopForever+0x1e>)
  ldr r1, =_edata
 8003446:	4913      	ldr	r1, [pc, #76]	@ (8003494 <LoopForever+0x22>)
  ldr r2, =_sidata
 8003448:	4a13      	ldr	r2, [pc, #76]	@ (8003498 <LoopForever+0x26>)
  movs r3, #0
 800344a:	2300      	movs	r3, #0
  b LoopCopyDataInit
 800344c:	e002      	b.n	8003454 <LoopCopyDataInit>

0800344e <CopyDataInit>:

CopyDataInit:
  ldr r4, [r2, r3]
 800344e:	58d4      	ldr	r4, [r2, r3]
  str r4, [r0, r3]
 8003450:	50c4      	str	r4, [r0, r3]
  adds r3, r3, #4
 8003452:	3304      	adds	r3, #4

08003454 <LoopCopyDataInit>:

LoopCopyDataInit:
  adds r4, r0, r3
 8003454:	18c4      	adds	r4, r0, r3
  cmp r4, r1
 8003456:	428c      	cmp	r4, r1
  bcc CopyDataInit
 8003458:	d3f9      	bcc.n	800344e <CopyDataInit>
  
/* Zero fill the bss segment. */
  ldr r2, =_sbss
 800345a:	4a10      	ldr	r2, [pc, #64]	@ (800349c <LoopForever+0x2a>)
  ldr r4, =_ebss
 800345c:	4c10      	ldr	r4, [pc, #64]	@ (80034a0 <LoopForever+0x2e>)
  movs r3, #0
 800345e:	2300      	movs	r3, #0
  b LoopFillZerobss
 8003460:	e001      	b.n	8003466 <LoopFillZerobss>

08003462 <FillZerobss>:

FillZerobss:
  str  r3, [r2]
 8003462:	6013      	str	r3, [r2, #0]
  adds r2, r2, #4
 8003464:	3204      	adds	r2, #4

08003466 <LoopFillZerobss>:

LoopFillZerobss:
  cmp r2, r4
 8003466:	42a2      	cmp	r2, r4
  bcc FillZerobss
 8003468:	d3fb      	bcc.n	8003462 <FillZerobss>

/* Call static constructors */
  bl __libc_init_array
 800346a:	f003 fb37 	bl	8006adc <__libc_init_array>
/* Call the application's entry point.*/
  bl main
 800346e:	f7fc fefd 	bl	800026c <main>

08003472 <LoopForever>:

LoopForever:
    b LoopForever
 8003472:	e7fe      	b.n	8003472 <LoopForever>
  ldr   r0, =_estack
 8003474:	20001800 	.word	0x20001800
    LDR R0,=0x00000004
 8003478:	00000004 	.word	0x00000004
    LDR R2,=0x1F
 800347c:	0000001f 	.word	0x0000001f
    LDR R0,=0x40021018
 8003480:	40021018 	.word	0x40021018
    LDR R1,=0x00000001
 8003484:	00000001 	.word	0x00000001
    LDR R0,=0x40010000
 8003488:	40010000 	.word	0x40010000
    LDR R1,=0x00000000
 800348c:	00000000 	.word	0x00000000
  ldr r0, =_sdata
 8003490:	20000000 	.word	0x20000000
  ldr r1, =_edata
 8003494:	2000017c 	.word	0x2000017c
  ldr r2, =_sidata
 8003498:	08006c08 	.word	0x08006c08
  ldr r2, =_sbss
 800349c:	2000017c 	.word	0x2000017c
  ldr r4, =_ebss
 80034a0:	20001310 	.word	0x20001310

080034a4 <ADC1_IRQHandler>:
 * @retval : None
*/
    .section .text.Default_Handler,"ax",%progbits
Default_Handler:
Infinite_Loop:
  b Infinite_Loop
 80034a4:	e7fe      	b.n	80034a4 <ADC1_IRQHandler>
	...

080034a8 <HAL_InitTick>:
 80034a8:	b570      	push	{r4, r5, r6, lr}
 80034aa:	0005      	movs	r5, r0
 80034ac:	20fa      	movs	r0, #250	@ 0xfa
 80034ae:	4b0d      	ldr	r3, [pc, #52]	@ (80034e4 <HAL_InitTick+0x3c>)
 80034b0:	0080      	lsls	r0, r0, #2
 80034b2:	7819      	ldrb	r1, [r3, #0]
 80034b4:	f7fc fe4e 	bl	8000154 <__udivsi3>
 80034b8:	4c0b      	ldr	r4, [pc, #44]	@ (80034e8 <HAL_InitTick+0x40>)
 80034ba:	0001      	movs	r1, r0
 80034bc:	6820      	ldr	r0, [r4, #0]
 80034be:	f7fc fe49 	bl	8000154 <__udivsi3>
 80034c2:	f000 f86d 	bl	80035a0 <HAL_SYSTICK_Config>
 80034c6:	0004      	movs	r4, r0
 80034c8:	2001      	movs	r0, #1
 80034ca:	2c00      	cmp	r4, #0
 80034cc:	d109      	bne.n	80034e2 <HAL_InitTick+0x3a>
 80034ce:	2d03      	cmp	r5, #3
 80034d0:	d807      	bhi.n	80034e2 <HAL_InitTick+0x3a>
 80034d2:	3802      	subs	r0, #2
 80034d4:	0022      	movs	r2, r4
 80034d6:	0029      	movs	r1, r5
 80034d8:	f000 f82c 	bl	8003534 <HAL_NVIC_SetPriority>
 80034dc:	0020      	movs	r0, r4
 80034de:	4b03      	ldr	r3, [pc, #12]	@ (80034ec <HAL_InitTick+0x44>)
 80034e0:	601d      	str	r5, [r3, #0]
 80034e2:	bd70      	pop	{r4, r5, r6, pc}
 80034e4:	20000004 	.word	0x20000004
 80034e8:	20000000 	.word	0x20000000
 80034ec:	20000008 	.word	0x20000008

080034f0 <HAL_Init>:
 80034f0:	2310      	movs	r3, #16
 80034f2:	4a06      	ldr	r2, [pc, #24]	@ (800350c <HAL_Init+0x1c>)
 80034f4:	b510      	push	{r4, lr}
 80034f6:	6811      	ldr	r1, [r2, #0]
 80034f8:	2003      	movs	r0, #3
 80034fa:	430b      	orrs	r3, r1
 80034fc:	6013      	str	r3, [r2, #0]
 80034fe:	f7ff ffd3 	bl	80034a8 <HAL_InitTick>
 8003502:	f7fd fc4d 	bl	8000da0 <HAL_MspInit>
 8003506:	2000      	movs	r0, #0
 8003508:	bd10      	pop	{r4, pc}
 800350a:	46c0      	nop			@ (mov r8, r8)
 800350c:	40022000 	.word	0x40022000

08003510 <HAL_IncTick>:
 8003510:	4a03      	ldr	r2, [pc, #12]	@ (8003520 <HAL_IncTick+0x10>)
 8003512:	4b04      	ldr	r3, [pc, #16]	@ (8003524 <HAL_IncTick+0x14>)
 8003514:	6811      	ldr	r1, [r2, #0]
 8003516:	781b      	ldrb	r3, [r3, #0]
 8003518:	185b      	adds	r3, r3, r1
 800351a:	6013      	str	r3, [r2, #0]
 800351c:	4770      	bx	lr
 800351e:	46c0      	nop			@ (mov r8, r8)
 8003520:	20000548 	.word	0x20000548
 8003524:	20000004 	.word	0x20000004

08003528 <HAL_GetTick>:
 8003528:	4b01      	ldr	r3, [pc, #4]	@ (8003530 <HAL_GetTick+0x8>)
 800352a:	6818      	ldr	r0, [r3, #0]
 800352c:	4770      	bx	lr
 800352e:	46c0      	nop			@ (mov r8, r8)
 8003530:	20000548 	.word	0x20000548

08003534 <HAL_NVIC_SetPriority>:
 8003534:	b510      	push	{r4, lr}
 8003536:	24ff      	movs	r4, #255	@ 0xff
 8003538:	2203      	movs	r2, #3
 800353a:	000b      	movs	r3, r1
 800353c:	0021      	movs	r1, r4
 800353e:	4002      	ands	r2, r0
 8003540:	00d2      	lsls	r2, r2, #3
 8003542:	4091      	lsls	r1, r2
 8003544:	019b      	lsls	r3, r3, #6
 8003546:	4023      	ands	r3, r4
 8003548:	43c9      	mvns	r1, r1
 800354a:	4093      	lsls	r3, r2
 800354c:	2800      	cmp	r0, #0
 800354e:	db0a      	blt.n	8003566 <HAL_NVIC_SetPriority+0x32>
 8003550:	24c0      	movs	r4, #192	@ 0xc0
 8003552:	4a0b      	ldr	r2, [pc, #44]	@ (8003580 <HAL_NVIC_SetPriority+0x4c>)
 8003554:	0880      	lsrs	r0, r0, #2
 8003556:	0080      	lsls	r0, r0, #2
 8003558:	1880      	adds	r0, r0, r2
 800355a:	00a4      	lsls	r4, r4, #2
 800355c:	5902      	ldr	r2, [r0, r4]
 800355e:	400a      	ands	r2, r1
 8003560:	4313      	orrs	r3, r2
 8003562:	5103      	str	r3, [r0, r4]
 8003564:	bd10      	pop	{r4, pc}
 8003566:	220f      	movs	r2, #15
 8003568:	4010      	ands	r0, r2
 800356a:	3808      	subs	r0, #8
 800356c:	4a05      	ldr	r2, [pc, #20]	@ (8003584 <HAL_NVIC_SetPriority+0x50>)
 800356e:	0880      	lsrs	r0, r0, #2
 8003570:	0080      	lsls	r0, r0, #2
 8003572:	1880      	adds	r0, r0, r2
 8003574:	69c2      	ldr	r2, [r0, #28]
 8003576:	4011      	ands	r1, r2
 8003578:	4319      	orrs	r1, r3
 800357a:	61c1      	str	r1, [r0, #28]
 800357c:	e7f2      	b.n	8003564 <HAL_NVIC_SetPriority+0x30>
 800357e:	46c0      	nop			@ (mov r8, r8)
 8003580:	e000e100 	.word	0xe000e100
 8003584:	e000ed00 	.word	0xe000ed00

08003588 <HAL_NVIC_EnableIRQ>:
 8003588:	2800      	cmp	r0, #0
 800358a:	db05      	blt.n	8003598 <HAL_NVIC_EnableIRQ+0x10>
 800358c:	231f      	movs	r3, #31
 800358e:	4018      	ands	r0, r3
 8003590:	3b1e      	subs	r3, #30
 8003592:	4083      	lsls	r3, r0
 8003594:	4a01      	ldr	r2, [pc, #4]	@ (800359c <HAL_NVIC_EnableIRQ+0x14>)
 8003596:	6013      	str	r3, [r2, #0]
 8003598:	4770      	bx	lr
 800359a:	46c0      	nop			@ (mov r8, r8)
 800359c:	e000e100 	.word	0xe000e100

080035a0 <HAL_SYSTICK_Config>:
 80035a0:	2280      	movs	r2, #128	@ 0x80
 80035a2:	1e43      	subs	r3, r0, #1
 80035a4:	0452      	lsls	r2, r2, #17
 80035a6:	2001      	movs	r0, #1
 80035a8:	4293      	cmp	r3, r2
 80035aa:	d20d      	bcs.n	80035c8 <HAL_SYSTICK_Config+0x28>
 80035ac:	21c0      	movs	r1, #192	@ 0xc0
 80035ae:	4a07      	ldr	r2, [pc, #28]	@ (80035cc <HAL_SYSTICK_Config+0x2c>)
 80035b0:	4807      	ldr	r0, [pc, #28]	@ (80035d0 <HAL_SYSTICK_Config+0x30>)
 80035b2:	6053      	str	r3, [r2, #4]
 80035b4:	6a03      	ldr	r3, [r0, #32]
 80035b6:	0609      	lsls	r1, r1, #24
 80035b8:	021b      	lsls	r3, r3, #8
 80035ba:	0a1b      	lsrs	r3, r3, #8
 80035bc:	430b      	orrs	r3, r1
 80035be:	6203      	str	r3, [r0, #32]
 80035c0:	2000      	movs	r0, #0
 80035c2:	2307      	movs	r3, #7
 80035c4:	6090      	str	r0, [r2, #8]
 80035c6:	6013      	str	r3, [r2, #0]
 80035c8:	4770      	bx	lr
 80035ca:	46c0      	nop			@ (mov r8, r8)
 80035cc:	e000e010 	.word	0xe000e010
 80035d0:	e000ed00 	.word	0xe000ed00

080035d4 <HAL_GPIO_Init>:
 80035d4:	2300      	movs	r3, #0
 80035d6:	b5f0      	push	{r4, r5, r6, r7, lr}
 80035d8:	b087      	sub	sp, #28
 80035da:	680a      	ldr	r2, [r1, #0]
 80035dc:	0014      	movs	r4, r2
 80035de:	40dc      	lsrs	r4, r3
 80035e0:	d101      	bne.n	80035e6 <HAL_GPIO_Init+0x12>
 80035e2:	b007      	add	sp, #28
 80035e4:	bdf0      	pop	{r4, r5, r6, r7, pc}
 80035e6:	2501      	movs	r5, #1
 80035e8:	0014      	movs	r4, r2
 80035ea:	409d      	lsls	r5, r3
 80035ec:	402c      	ands	r4, r5
 80035ee:	9400      	str	r4, [sp, #0]
 80035f0:	422a      	tst	r2, r5
 80035f2:	d100      	bne.n	80035f6 <HAL_GPIO_Init+0x22>
 80035f4:	e094      	b.n	8003720 <HAL_GPIO_Init+0x14c>
 80035f6:	684a      	ldr	r2, [r1, #4]
 80035f8:	005f      	lsls	r7, r3, #1
 80035fa:	4694      	mov	ip, r2
 80035fc:	2203      	movs	r2, #3
 80035fe:	4664      	mov	r4, ip
 8003600:	4022      	ands	r2, r4
 8003602:	2403      	movs	r4, #3
 8003604:	40bc      	lsls	r4, r7
 8003606:	43e4      	mvns	r4, r4
 8003608:	9401      	str	r4, [sp, #4]
 800360a:	1e54      	subs	r4, r2, #1
 800360c:	2c01      	cmp	r4, #1
 800360e:	d82e      	bhi.n	800366e <HAL_GPIO_Init+0x9a>
 8003610:	6886      	ldr	r6, [r0, #8]
 8003612:	9c01      	ldr	r4, [sp, #4]
 8003614:	4026      	ands	r6, r4
 8003616:	68cc      	ldr	r4, [r1, #12]
 8003618:	40bc      	lsls	r4, r7
 800361a:	4334      	orrs	r4, r6
 800361c:	6084      	str	r4, [r0, #8]
 800361e:	6844      	ldr	r4, [r0, #4]
 8003620:	2601      	movs	r6, #1
 8003622:	43ac      	bics	r4, r5
 8003624:	0025      	movs	r5, r4
 8003626:	4664      	mov	r4, ip
 8003628:	0924      	lsrs	r4, r4, #4
 800362a:	4034      	ands	r4, r6
 800362c:	409c      	lsls	r4, r3
 800362e:	432c      	orrs	r4, r5
 8003630:	6044      	str	r4, [r0, #4]
 8003632:	68c5      	ldr	r5, [r0, #12]
 8003634:	9c01      	ldr	r4, [sp, #4]
 8003636:	4025      	ands	r5, r4
 8003638:	688c      	ldr	r4, [r1, #8]
 800363a:	40bc      	lsls	r4, r7
 800363c:	432c      	orrs	r4, r5
 800363e:	60c4      	str	r4, [r0, #12]
 8003640:	2a02      	cmp	r2, #2
 8003642:	d116      	bne.n	8003672 <HAL_GPIO_Init+0x9e>
 8003644:	2507      	movs	r5, #7
 8003646:	260f      	movs	r6, #15
 8003648:	401d      	ands	r5, r3
 800364a:	00ad      	lsls	r5, r5, #2
 800364c:	40ae      	lsls	r6, r5
 800364e:	08dc      	lsrs	r4, r3, #3
 8003650:	00a4      	lsls	r4, r4, #2
 8003652:	1904      	adds	r4, r0, r4
 8003654:	9402      	str	r4, [sp, #8]
 8003656:	6a24      	ldr	r4, [r4, #32]
 8003658:	9603      	str	r6, [sp, #12]
 800365a:	0026      	movs	r6, r4
 800365c:	9c03      	ldr	r4, [sp, #12]
 800365e:	43a6      	bics	r6, r4
 8003660:	0034      	movs	r4, r6
 8003662:	690e      	ldr	r6, [r1, #16]
 8003664:	40ae      	lsls	r6, r5
 8003666:	4326      	orrs	r6, r4
 8003668:	9c02      	ldr	r4, [sp, #8]
 800366a:	6226      	str	r6, [r4, #32]
 800366c:	e001      	b.n	8003672 <HAL_GPIO_Init+0x9e>
 800366e:	2a03      	cmp	r2, #3
 8003670:	d1df      	bne.n	8003632 <HAL_GPIO_Init+0x5e>
 8003672:	40ba      	lsls	r2, r7
 8003674:	6804      	ldr	r4, [r0, #0]
 8003676:	9d01      	ldr	r5, [sp, #4]
 8003678:	4025      	ands	r5, r4
 800367a:	432a      	orrs	r2, r5
 800367c:	24c0      	movs	r4, #192	@ 0xc0
 800367e:	6002      	str	r2, [r0, #0]
 8003680:	4662      	mov	r2, ip
 8003682:	02a4      	lsls	r4, r4, #10
 8003684:	4222      	tst	r2, r4
 8003686:	d04b      	beq.n	8003720 <HAL_GPIO_Init+0x14c>
 8003688:	2501      	movs	r5, #1
 800368a:	4a26      	ldr	r2, [pc, #152]	@ (8003724 <HAL_GPIO_Init+0x150>)
 800368c:	2790      	movs	r7, #144	@ 0x90
 800368e:	6994      	ldr	r4, [r2, #24]
 8003690:	05ff      	lsls	r7, r7, #23
 8003692:	432c      	orrs	r4, r5
 8003694:	6194      	str	r4, [r2, #24]
 8003696:	6992      	ldr	r2, [r2, #24]
 8003698:	089c      	lsrs	r4, r3, #2
 800369a:	402a      	ands	r2, r5
 800369c:	9205      	str	r2, [sp, #20]
 800369e:	9a05      	ldr	r2, [sp, #20]
 80036a0:	4a21      	ldr	r2, [pc, #132]	@ (8003728 <HAL_GPIO_Init+0x154>)
 80036a2:	00a4      	lsls	r4, r4, #2
 80036a4:	18a4      	adds	r4, r4, r2
 80036a6:	220f      	movs	r2, #15
 80036a8:	3502      	adds	r5, #2
 80036aa:	401d      	ands	r5, r3
 80036ac:	00ad      	lsls	r5, r5, #2
 80036ae:	40aa      	lsls	r2, r5
 80036b0:	68a6      	ldr	r6, [r4, #8]
 80036b2:	4396      	bics	r6, r2
 80036b4:	2200      	movs	r2, #0
 80036b6:	42b8      	cmp	r0, r7
 80036b8:	d008      	beq.n	80036cc <HAL_GPIO_Init+0xf8>
 80036ba:	4f1c      	ldr	r7, [pc, #112]	@ (800372c <HAL_GPIO_Init+0x158>)
 80036bc:	3201      	adds	r2, #1
 80036be:	42b8      	cmp	r0, r7
 80036c0:	d004      	beq.n	80036cc <HAL_GPIO_Init+0xf8>
 80036c2:	4f1b      	ldr	r7, [pc, #108]	@ (8003730 <HAL_GPIO_Init+0x15c>)
 80036c4:	3204      	adds	r2, #4
 80036c6:	42b8      	cmp	r0, r7
 80036c8:	d100      	bne.n	80036cc <HAL_GPIO_Init+0xf8>
 80036ca:	3a03      	subs	r2, #3
 80036cc:	40aa      	lsls	r2, r5
 80036ce:	4667      	mov	r7, ip
 80036d0:	4332      	orrs	r2, r6
 80036d2:	60a2      	str	r2, [r4, #8]
 80036d4:	4a17      	ldr	r2, [pc, #92]	@ (8003734 <HAL_GPIO_Init+0x160>)
 80036d6:	9c00      	ldr	r4, [sp, #0]
 80036d8:	6896      	ldr	r6, [r2, #8]
 80036da:	9d00      	ldr	r5, [sp, #0]
 80036dc:	43e4      	mvns	r4, r4
 80036de:	4335      	orrs	r5, r6
 80036e0:	02ff      	lsls	r7, r7, #11
 80036e2:	d401      	bmi.n	80036e8 <HAL_GPIO_Init+0x114>
 80036e4:	0035      	movs	r5, r6
 80036e6:	4025      	ands	r5, r4
 80036e8:	4667      	mov	r7, ip
 80036ea:	6095      	str	r5, [r2, #8]
 80036ec:	68d6      	ldr	r6, [r2, #12]
 80036ee:	9d00      	ldr	r5, [sp, #0]
 80036f0:	4335      	orrs	r5, r6
 80036f2:	02bf      	lsls	r7, r7, #10
 80036f4:	d401      	bmi.n	80036fa <HAL_GPIO_Init+0x126>
 80036f6:	0035      	movs	r5, r6
 80036f8:	4025      	ands	r5, r4
 80036fa:	4667      	mov	r7, ip
 80036fc:	60d5      	str	r5, [r2, #12]
 80036fe:	6856      	ldr	r6, [r2, #4]
 8003700:	9d00      	ldr	r5, [sp, #0]
 8003702:	4335      	orrs	r5, r6
 8003704:	03bf      	lsls	r7, r7, #14
 8003706:	d401      	bmi.n	800370c <HAL_GPIO_Init+0x138>
 8003708:	0035      	movs	r5, r6
 800370a:	4025      	ands	r5, r4
 800370c:	4667      	mov	r7, ip
 800370e:	6055      	str	r5, [r2, #4]
 8003710:	6815      	ldr	r5, [r2, #0]
 8003712:	9e00      	ldr	r6, [sp, #0]
 8003714:	432e      	orrs	r6, r5
 8003716:	03ff      	lsls	r7, r7, #15
 8003718:	d401      	bmi.n	800371e <HAL_GPIO_Init+0x14a>
 800371a:	4025      	ands	r5, r4
 800371c:	002e      	movs	r6, r5
 800371e:	6016      	str	r6, [r2, #0]
 8003720:	3301      	adds	r3, #1
 8003722:	e75a      	b.n	80035da <HAL_GPIO_Init+0x6>
 8003724:	40021000 	.word	0x40021000
 8003728:	40010000 	.word	0x40010000
 800372c:	48000400 	.word	0x48000400
 8003730:	48000800 	.word	0x48000800
 8003734:	40010400 	.word	0x40010400

08003738 <HAL_GPIO_WritePin>:
 8003738:	2a00      	cmp	r2, #0
 800373a:	d001      	beq.n	8003740 <HAL_GPIO_WritePin+0x8>
 800373c:	6181      	str	r1, [r0, #24]
 800373e:	4770      	bx	lr
 8003740:	6281      	str	r1, [r0, #40]	@ 0x28
 8003742:	e7fc      	b.n	800373e <HAL_GPIO_WritePin+0x6>

08003744 <HAL_PCD_Init>:
 8003744:	b570      	push	{r4, r5, r6, lr}
 8003746:	0004      	movs	r4, r0
 8003748:	2001      	movs	r0, #1
 800374a:	2c00      	cmp	r4, #0
 800374c:	d02b      	beq.n	80037a6 <HAL_PCD_Init+0x62>
 800374e:	4d22      	ldr	r5, [pc, #136]	@ (80037d8 <HAL_PCD_Init+0x94>)
 8003750:	5d63      	ldrb	r3, [r4, r5]
 8003752:	b2da      	uxtb	r2, r3
 8003754:	2b00      	cmp	r3, #0
 8003756:	d105      	bne.n	8003764 <HAL_PCD_Init+0x20>
 8003758:	23a4      	movs	r3, #164	@ 0xa4
 800375a:	009b      	lsls	r3, r3, #2
 800375c:	0020      	movs	r0, r4
 800375e:	54e2      	strb	r2, [r4, r3]
 8003760:	f003 f88e 	bl	8006880 <HAL_PCD_MspInit>
 8003764:	2303      	movs	r3, #3
 8003766:	5563      	strb	r3, [r4, r5]
 8003768:	6820      	ldr	r0, [r4, #0]
 800376a:	f001 fda7 	bl	80052bc <USB_DisableGlobalInt>
 800376e:	2300      	movs	r3, #0
 8003770:	0022      	movs	r2, r4
 8003772:	0019      	movs	r1, r3
 8003774:	2601      	movs	r6, #1
 8003776:	7920      	ldrb	r0, [r4, #4]
 8003778:	3210      	adds	r2, #16
 800377a:	4298      	cmp	r0, r3
 800377c:	d114      	bne.n	80037a8 <HAL_PCD_Init+0x64>
 800377e:	2100      	movs	r1, #0
 8003780:	0022      	movs	r2, r4
 8003782:	0008      	movs	r0, r1
 8003784:	3251      	adds	r2, #81	@ 0x51
 8003786:	32ff      	adds	r2, #255	@ 0xff
 8003788:	428b      	cmp	r3, r1
 800378a:	d117      	bne.n	80037bc <HAL_PCD_Init+0x78>
 800378c:	6861      	ldr	r1, [r4, #4]
 800378e:	68a2      	ldr	r2, [r4, #8]
 8003790:	6820      	ldr	r0, [r4, #0]
 8003792:	f001 fd9d 	bl	80052d0 <USB_DevInit>
 8003796:	2300      	movs	r3, #0
 8003798:	7323      	strb	r3, [r4, #12]
 800379a:	3301      	adds	r3, #1
 800379c:	5563      	strb	r3, [r4, r5]
 800379e:	7aa3      	ldrb	r3, [r4, #10]
 80037a0:	2b01      	cmp	r3, #1
 80037a2:	d015      	beq.n	80037d0 <HAL_PCD_Init+0x8c>
 80037a4:	2000      	movs	r0, #0
 80037a6:	bd70      	pop	{r4, r5, r6, pc}
 80037a8:	7013      	strb	r3, [r2, #0]
 80037aa:	3301      	adds	r3, #1
 80037ac:	7056      	strb	r6, [r2, #1]
 80037ae:	70d1      	strb	r1, [r2, #3]
 80037b0:	6111      	str	r1, [r2, #16]
 80037b2:	6151      	str	r1, [r2, #20]
 80037b4:	6191      	str	r1, [r2, #24]
 80037b6:	b2db      	uxtb	r3, r3
 80037b8:	3228      	adds	r2, #40	@ 0x28
 80037ba:	e7de      	b.n	800377a <HAL_PCD_Init+0x36>
 80037bc:	7011      	strb	r1, [r2, #0]
 80037be:	3101      	adds	r1, #1
 80037c0:	7050      	strb	r0, [r2, #1]
 80037c2:	70d0      	strb	r0, [r2, #3]
 80037c4:	6110      	str	r0, [r2, #16]
 80037c6:	6150      	str	r0, [r2, #20]
 80037c8:	6190      	str	r0, [r2, #24]
 80037ca:	b2c9      	uxtb	r1, r1
 80037cc:	3228      	adds	r2, #40	@ 0x28
 80037ce:	e7db      	b.n	8003788 <HAL_PCD_Init+0x44>
 80037d0:	0020      	movs	r0, r4
 80037d2:	f000 fe0e 	bl	80043f2 <HAL_PCDEx_ActivateLPM>
 80037d6:	e7e5      	b.n	80037a4 <HAL_PCD_Init+0x60>
 80037d8:	00000291 	.word	0x00000291

080037dc <HAL_PCD_Start>:
 80037dc:	b570      	push	{r4, r5, r6, lr}
 80037de:	25a4      	movs	r5, #164	@ 0xa4
 80037e0:	00ad      	lsls	r5, r5, #2
 80037e2:	5d43      	ldrb	r3, [r0, r5]
 80037e4:	0004      	movs	r4, r0
 80037e6:	2002      	movs	r0, #2
 80037e8:	2b01      	cmp	r3, #1
 80037ea:	d009      	beq.n	8003800 <HAL_PCD_Start+0x24>
 80037ec:	2301      	movs	r3, #1
 80037ee:	5563      	strb	r3, [r4, r5]
 80037f0:	6820      	ldr	r0, [r4, #0]
 80037f2:	f001 fd59 	bl	80052a8 <USB_EnableGlobalInt>
 80037f6:	6820      	ldr	r0, [r4, #0]
 80037f8:	f001 ff65 	bl	80056c6 <USB_DevConnect>
 80037fc:	2000      	movs	r0, #0
 80037fe:	5560      	strb	r0, [r4, r5]
 8003800:	bd70      	pop	{r4, r5, r6, pc}

08003802 <HAL_PCD_SetAddress>:
 8003802:	b570      	push	{r4, r5, r6, lr}
 8003804:	25a4      	movs	r5, #164	@ 0xa4
 8003806:	00ad      	lsls	r5, r5, #2
 8003808:	5d43      	ldrb	r3, [r0, r5]
 800380a:	0004      	movs	r4, r0
 800380c:	2002      	movs	r0, #2
 800380e:	2b01      	cmp	r3, #1
 8003810:	d007      	beq.n	8003822 <HAL_PCD_SetAddress+0x20>
 8003812:	2301      	movs	r3, #1
 8003814:	5563      	strb	r3, [r4, r5]
 8003816:	6820      	ldr	r0, [r4, #0]
 8003818:	7321      	strb	r1, [r4, #12]
 800381a:	f001 ff4d 	bl	80056b8 <USB_SetDevAddress>
 800381e:	2000      	movs	r0, #0
 8003820:	5560      	strb	r0, [r4, r5]
 8003822:	bd70      	pop	{r4, r5, r6, pc}

08003824 <HAL_PCD_IRQHandler>:
 8003824:	b5f0      	push	{r4, r5, r6, r7, lr}
 8003826:	0004      	movs	r4, r0
 8003828:	b085      	sub	sp, #20
 800382a:	6800      	ldr	r0, [r0, #0]
 800382c:	f001 ff53 	bl	80056d6 <USB_ReadInterrupts>
 8003830:	2380      	movs	r3, #128	@ 0x80
 8003832:	0005      	movs	r5, r0
 8003834:	021b      	lsls	r3, r3, #8
 8003836:	401d      	ands	r5, r3
 8003838:	4218      	tst	r0, r3
 800383a:	d101      	bne.n	8003840 <HAL_PCD_IRQHandler+0x1c>
 800383c:	f000 fc27 	bl	800408e <HAL_PCD_IRQHandler+0x86a>
 8003840:	6820      	ldr	r0, [r4, #0]
 8003842:	1d82      	adds	r2, r0, #6
 8003844:	8fd3      	ldrh	r3, [r2, #62]	@ 0x3e
 8003846:	b21b      	sxth	r3, r3
 8003848:	2b00      	cmp	r3, #0
 800384a:	db01      	blt.n	8003850 <HAL_PCD_IRQHandler+0x2c>
 800384c:	b005      	add	sp, #20
 800384e:	bdf0      	pop	{r4, r5, r6, r7, pc}
 8003850:	210f      	movs	r1, #15
 8003852:	8fd3      	ldrh	r3, [r2, #62]	@ 0x3e
 8003854:	4019      	ands	r1, r3
 8003856:	9100      	str	r1, [sp, #0]
 8003858:	210f      	movs	r1, #15
 800385a:	b29a      	uxth	r2, r3
 800385c:	420b      	tst	r3, r1
 800385e:	d000      	beq.n	8003862 <HAL_PCD_IRQHandler+0x3e>
 8003860:	e0c0      	b.n	80039e4 <HAL_PCD_IRQHandler+0x1c0>
 8003862:	2310      	movs	r3, #16
 8003864:	0011      	movs	r1, r2
 8003866:	4019      	ands	r1, r3
 8003868:	421a      	tst	r2, r3
 800386a:	d127      	bne.n	80038bc <HAL_PCD_IRQHandler+0x98>
 800386c:	8803      	ldrh	r3, [r0, #0]
 800386e:	4aca      	ldr	r2, [pc, #808]	@ (8003b98 <HAL_PCD_IRQHandler+0x374>)
 8003870:	4013      	ands	r3, r2
 8003872:	2280      	movs	r2, #128	@ 0x80
 8003874:	0212      	lsls	r2, r2, #8
 8003876:	4313      	orrs	r3, r2
 8003878:	8003      	strh	r3, [r0, #0]
 800387a:	0003      	movs	r3, r0
 800387c:	3350      	adds	r3, #80	@ 0x50
 800387e:	881a      	ldrh	r2, [r3, #0]
 8003880:	7c23      	ldrb	r3, [r4, #16]
 8003882:	00db      	lsls	r3, r3, #3
 8003884:	18c3      	adds	r3, r0, r3
 8003886:	189b      	adds	r3, r3, r2
 8003888:	4ac4      	ldr	r2, [pc, #784]	@ (8003b9c <HAL_PCD_IRQHandler+0x378>)
 800388a:	0020      	movs	r0, r4
 800388c:	189b      	adds	r3, r3, r2
 800388e:	881b      	ldrh	r3, [r3, #0]
 8003890:	6a62      	ldr	r2, [r4, #36]	@ 0x24
 8003892:	059b      	lsls	r3, r3, #22
 8003894:	0d9b      	lsrs	r3, r3, #22
 8003896:	62e3      	str	r3, [r4, #44]	@ 0x2c
 8003898:	18d3      	adds	r3, r2, r3
 800389a:	6263      	str	r3, [r4, #36]	@ 0x24
 800389c:	f003 f821 	bl	80068e2 <HAL_PCD_DataInStageCallback>
 80038a0:	7b23      	ldrb	r3, [r4, #12]
 80038a2:	2b00      	cmp	r3, #0
 80038a4:	d0cc      	beq.n	8003840 <HAL_PCD_IRQHandler+0x1c>
 80038a6:	6aa1      	ldr	r1, [r4, #40]	@ 0x28
 80038a8:	6823      	ldr	r3, [r4, #0]
 80038aa:	2900      	cmp	r1, #0
 80038ac:	d1c8      	bne.n	8003840 <HAL_PCD_IRQHandler+0x1c>
 80038ae:	2080      	movs	r0, #128	@ 0x80
 80038b0:	7b22      	ldrb	r2, [r4, #12]
 80038b2:	334c      	adds	r3, #76	@ 0x4c
 80038b4:	4302      	orrs	r2, r0
 80038b6:	801a      	strh	r2, [r3, #0]
 80038b8:	7321      	strb	r1, [r4, #12]
 80038ba:	e7c1      	b.n	8003840 <HAL_PCD_IRQHandler+0x1c>
 80038bc:	8802      	ldrh	r2, [r0, #0]
 80038be:	2180      	movs	r1, #128	@ 0x80
 80038c0:	0016      	movs	r6, r2
 80038c2:	0109      	lsls	r1, r1, #4
 80038c4:	b293      	uxth	r3, r2
 80038c6:	400e      	ands	r6, r1
 80038c8:	420a      	tst	r2, r1
 80038ca:	d022      	beq.n	8003912 <HAL_PCD_IRQHandler+0xee>
 80038cc:	0003      	movs	r3, r0
 80038ce:	3350      	adds	r3, #80	@ 0x50
 80038d0:	881a      	ldrh	r2, [r3, #0]
 80038d2:	23a8      	movs	r3, #168	@ 0xa8
 80038d4:	005b      	lsls	r3, r3, #1
 80038d6:	5ce3      	ldrb	r3, [r4, r3]
 80038d8:	21a6      	movs	r1, #166	@ 0xa6
 80038da:	00db      	lsls	r3, r3, #3
 80038dc:	18c3      	adds	r3, r0, r3
 80038de:	189b      	adds	r3, r3, r2
 80038e0:	4aaf      	ldr	r2, [pc, #700]	@ (8003ba0 <HAL_PCD_IRQHandler+0x37c>)
 80038e2:	0089      	lsls	r1, r1, #2
 80038e4:	189b      	adds	r3, r3, r2
 80038e6:	0022      	movs	r2, r4
 80038e8:	881b      	ldrh	r3, [r3, #0]
 80038ea:	3251      	adds	r2, #81	@ 0x51
 80038ec:	059b      	lsls	r3, r3, #22
 80038ee:	0d9b      	lsrs	r3, r3, #22
 80038f0:	32ff      	adds	r2, #255	@ 0xff
 80038f2:	61d3      	str	r3, [r2, #28]
 80038f4:	1861      	adds	r1, r4, r1
 80038f6:	88d2      	ldrh	r2, [r2, #6]
 80038f8:	f002 f938 	bl	8005b6c <USB_ReadPMA>
 80038fc:	6821      	ldr	r1, [r4, #0]
 80038fe:	4ba9      	ldr	r3, [pc, #676]	@ (8003ba4 <HAL_PCD_IRQHandler+0x380>)
 8003900:	880a      	ldrh	r2, [r1, #0]
 8003902:	0020      	movs	r0, r4
 8003904:	401a      	ands	r2, r3
 8003906:	2380      	movs	r3, #128	@ 0x80
 8003908:	4313      	orrs	r3, r2
 800390a:	800b      	strh	r3, [r1, #0]
 800390c:	f002 ffd4 	bl	80068b8 <HAL_PCD_SetupStageCallback>
 8003910:	e796      	b.n	8003840 <HAL_PCD_IRQHandler+0x1c>
 8003912:	b21b      	sxth	r3, r3
 8003914:	2b00      	cmp	r3, #0
 8003916:	db00      	blt.n	800391a <HAL_PCD_IRQHandler+0xf6>
 8003918:	e792      	b.n	8003840 <HAL_PCD_IRQHandler+0x1c>
 800391a:	8802      	ldrh	r2, [r0, #0]
 800391c:	4ba1      	ldr	r3, [pc, #644]	@ (8003ba4 <HAL_PCD_IRQHandler+0x380>)
 800391e:	0025      	movs	r5, r4
 8003920:	401a      	ands	r2, r3
 8003922:	2380      	movs	r3, #128	@ 0x80
 8003924:	4313      	orrs	r3, r2
 8003926:	8003      	strh	r3, [r0, #0]
 8003928:	0003      	movs	r3, r0
 800392a:	3350      	adds	r3, #80	@ 0x50
 800392c:	881a      	ldrh	r2, [r3, #0]
 800392e:	23a8      	movs	r3, #168	@ 0xa8
 8003930:	005b      	lsls	r3, r3, #1
 8003932:	5ce3      	ldrb	r3, [r4, r3]
 8003934:	3551      	adds	r5, #81	@ 0x51
 8003936:	00db      	lsls	r3, r3, #3
 8003938:	18c3      	adds	r3, r0, r3
 800393a:	189b      	adds	r3, r3, r2
 800393c:	4a98      	ldr	r2, [pc, #608]	@ (8003ba0 <HAL_PCD_IRQHandler+0x37c>)
 800393e:	35ff      	adds	r5, #255	@ 0xff
 8003940:	189b      	adds	r3, r3, r2
 8003942:	881b      	ldrh	r3, [r3, #0]
 8003944:	059b      	lsls	r3, r3, #22
 8003946:	0d9b      	lsrs	r3, r3, #22
 8003948:	61eb      	str	r3, [r5, #28]
 800394a:	d00d      	beq.n	8003968 <HAL_PCD_IRQHandler+0x144>
 800394c:	6969      	ldr	r1, [r5, #20]
 800394e:	2900      	cmp	r1, #0
 8003950:	d00a      	beq.n	8003968 <HAL_PCD_IRQHandler+0x144>
 8003952:	88ea      	ldrh	r2, [r5, #6]
 8003954:	f002 f90a 	bl	8005b6c <USB_ReadPMA>
 8003958:	696b      	ldr	r3, [r5, #20]
 800395a:	69ea      	ldr	r2, [r5, #28]
 800395c:	0031      	movs	r1, r6
 800395e:	189b      	adds	r3, r3, r2
 8003960:	0020      	movs	r0, r4
 8003962:	616b      	str	r3, [r5, #20]
 8003964:	f002 ffb1 	bl	80068ca <HAL_PCD_DataOutStageCallback>
 8003968:	6821      	ldr	r1, [r4, #0]
 800396a:	880a      	ldrh	r2, [r1, #0]
 800396c:	b293      	uxth	r3, r2
 800396e:	0512      	lsls	r2, r2, #20
 8003970:	d500      	bpl.n	8003974 <HAL_PCD_IRQHandler+0x150>
 8003972:	e765      	b.n	8003840 <HAL_PCD_IRQHandler+0x1c>
 8003974:	22c0      	movs	r2, #192	@ 0xc0
 8003976:	0192      	lsls	r2, r2, #6
 8003978:	4013      	ands	r3, r2
 800397a:	4293      	cmp	r3, r2
 800397c:	d100      	bne.n	8003980 <HAL_PCD_IRQHandler+0x15c>
 800397e:	e75f      	b.n	8003840 <HAL_PCD_IRQHandler+0x1c>
 8003980:	000b      	movs	r3, r1
 8003982:	4a87      	ldr	r2, [pc, #540]	@ (8003ba0 <HAL_PCD_IRQHandler+0x37c>)
 8003984:	3350      	adds	r3, #80	@ 0x50
 8003986:	881b      	ldrh	r3, [r3, #0]
 8003988:	188a      	adds	r2, r1, r2
 800398a:	18d2      	adds	r2, r2, r3
 800398c:	8813      	ldrh	r3, [r2, #0]
 800398e:	059b      	lsls	r3, r3, #22
 8003990:	0d9b      	lsrs	r3, r3, #22
 8003992:	8013      	strh	r3, [r2, #0]
 8003994:	692b      	ldr	r3, [r5, #16]
 8003996:	2b00      	cmp	r3, #0
 8003998:	d10e      	bne.n	80039b8 <HAL_PCD_IRQHandler+0x194>
 800399a:	2080      	movs	r0, #128	@ 0x80
 800399c:	8813      	ldrh	r3, [r2, #0]
 800399e:	0200      	lsls	r0, r0, #8
 80039a0:	4303      	orrs	r3, r0
 80039a2:	8013      	strh	r3, [r2, #0]
 80039a4:	880a      	ldrh	r2, [r1, #0]
 80039a6:	4b80      	ldr	r3, [pc, #512]	@ (8003ba8 <HAL_PCD_IRQHandler+0x384>)
 80039a8:	401a      	ands	r2, r3
 80039aa:	23c0      	movs	r3, #192	@ 0xc0
 80039ac:	019b      	lsls	r3, r3, #6
 80039ae:	4053      	eors	r3, r2
 80039b0:	4a7e      	ldr	r2, [pc, #504]	@ (8003bac <HAL_PCD_IRQHandler+0x388>)
 80039b2:	4313      	orrs	r3, r2
 80039b4:	800b      	strh	r3, [r1, #0]
 80039b6:	e743      	b.n	8003840 <HAL_PCD_IRQHandler+0x1c>
 80039b8:	2b3e      	cmp	r3, #62	@ 0x3e
 80039ba:	d808      	bhi.n	80039ce <HAL_PCD_IRQHandler+0x1aa>
 80039bc:	2501      	movs	r5, #1
 80039be:	0858      	lsrs	r0, r3, #1
 80039c0:	402b      	ands	r3, r5
 80039c2:	18c0      	adds	r0, r0, r3
 80039c4:	8813      	ldrh	r3, [r2, #0]
 80039c6:	0280      	lsls	r0, r0, #10
 80039c8:	4303      	orrs	r3, r0
 80039ca:	b29b      	uxth	r3, r3
 80039cc:	e7e9      	b.n	80039a2 <HAL_PCD_IRQHandler+0x17e>
 80039ce:	251f      	movs	r5, #31
 80039d0:	0958      	lsrs	r0, r3, #5
 80039d2:	402b      	ands	r3, r5
 80039d4:	425d      	negs	r5, r3
 80039d6:	416b      	adcs	r3, r5
 80039d8:	1ac0      	subs	r0, r0, r3
 80039da:	8813      	ldrh	r3, [r2, #0]
 80039dc:	0280      	lsls	r0, r0, #10
 80039de:	4318      	orrs	r0, r3
 80039e0:	4b73      	ldr	r3, [pc, #460]	@ (8003bb0 <HAL_PCD_IRQHandler+0x38c>)
 80039e2:	e7f1      	b.n	80039c8 <HAL_PCD_IRQHandler+0x1a4>
 80039e4:	9b00      	ldr	r3, [sp, #0]
 80039e6:	009f      	lsls	r7, r3, #2
 80039e8:	19c2      	adds	r2, r0, r7
 80039ea:	8813      	ldrh	r3, [r2, #0]
 80039ec:	b299      	uxth	r1, r3
 80039ee:	b21b      	sxth	r3, r3
 80039f0:	9101      	str	r1, [sp, #4]
 80039f2:	2b00      	cmp	r3, #0
 80039f4:	db00      	blt.n	80039f8 <HAL_PCD_IRQHandler+0x1d4>
 80039f6:	e092      	b.n	8003b1e <HAL_PCD_IRQHandler+0x2fa>
 80039f8:	8813      	ldrh	r3, [r2, #0]
 80039fa:	496a      	ldr	r1, [pc, #424]	@ (8003ba4 <HAL_PCD_IRQHandler+0x380>)
 80039fc:	400b      	ands	r3, r1
 80039fe:	2180      	movs	r1, #128	@ 0x80
 8003a00:	430b      	orrs	r3, r1
 8003a02:	8013      	strh	r3, [r2, #0]
 8003a04:	2328      	movs	r3, #40	@ 0x28
 8003a06:	9a00      	ldr	r2, [sp, #0]
 8003a08:	4353      	muls	r3, r2
 8003a0a:	18e3      	adds	r3, r4, r3
 8003a0c:	001a      	movs	r2, r3
 8003a0e:	001d      	movs	r5, r3
 8003a10:	325d      	adds	r2, #93	@ 0x5d
 8003a12:	32ff      	adds	r2, #255	@ 0xff
 8003a14:	7812      	ldrb	r2, [r2, #0]
 8003a16:	3551      	adds	r5, #81	@ 0x51
 8003a18:	35ff      	adds	r5, #255	@ 0xff
 8003a1a:	2a00      	cmp	r2, #0
 8003a1c:	d114      	bne.n	8003a48 <HAL_PCD_IRQHandler+0x224>
 8003a1e:	0002      	movs	r2, r0
 8003a20:	3250      	adds	r2, #80	@ 0x50
 8003a22:	8811      	ldrh	r1, [r2, #0]
 8003a24:	782a      	ldrb	r2, [r5, #0]
 8003a26:	00d2      	lsls	r2, r2, #3
 8003a28:	1852      	adds	r2, r2, r1
 8003a2a:	495d      	ldr	r1, [pc, #372]	@ (8003ba0 <HAL_PCD_IRQHandler+0x37c>)
 8003a2c:	1812      	adds	r2, r2, r0
 8003a2e:	1852      	adds	r2, r2, r1
 8003a30:	8812      	ldrh	r2, [r2, #0]
 8003a32:	0592      	lsls	r2, r2, #22
 8003a34:	0d95      	lsrs	r5, r2, #22
 8003a36:	2a00      	cmp	r2, #0
 8003a38:	d056      	beq.n	8003ae8 <HAL_PCD_IRQHandler+0x2c4>
 8003a3a:	001a      	movs	r2, r3
 8003a3c:	3257      	adds	r2, #87	@ 0x57
 8003a3e:	32ff      	adds	r2, #255	@ 0xff
 8003a40:	33fc      	adds	r3, #252	@ 0xfc
 8003a42:	0019      	movs	r1, r3
 8003a44:	8812      	ldrh	r2, [r2, #0]
 8003a46:	e04b      	b.n	8003ae0 <HAL_PCD_IRQHandler+0x2bc>
 8003a48:	0019      	movs	r1, r3
 8003a4a:	3154      	adds	r1, #84	@ 0x54
 8003a4c:	31ff      	adds	r1, #255	@ 0xff
 8003a4e:	7809      	ldrb	r1, [r1, #0]
 8003a50:	782a      	ldrb	r2, [r5, #0]
 8003a52:	2902      	cmp	r1, #2
 8003a54:	d000      	beq.n	8003a58 <HAL_PCD_IRQHandler+0x234>
 8003a56:	e0e3      	b.n	8003c20 <HAL_PCD_IRQHandler+0x3fc>
 8003a58:	2680      	movs	r6, #128	@ 0x80
 8003a5a:	01f6      	lsls	r6, r6, #7
 8003a5c:	46b4      	mov	ip, r6
 8003a5e:	4665      	mov	r5, ip
 8003a60:	9e01      	ldr	r6, [sp, #4]
 8003a62:	33fc      	adds	r3, #252	@ 0xfc
 8003a64:	402e      	ands	r6, r5
 8003a66:	9603      	str	r6, [sp, #12]
 8003a68:	0006      	movs	r6, r0
 8003a6a:	3650      	adds	r6, #80	@ 0x50
 8003a6c:	9602      	str	r6, [sp, #8]
 8003a6e:	4666      	mov	r6, ip
 8003a70:	9d01      	ldr	r5, [sp, #4]
 8003a72:	6ed9      	ldr	r1, [r3, #108]	@ 0x6c
 8003a74:	4235      	tst	r5, r6
 8003a76:	d100      	bne.n	8003a7a <HAL_PCD_IRQHandler+0x256>
 8003a78:	e0a0      	b.n	8003bbc <HAL_PCD_IRQHandler+0x398>
 8003a7a:	9d02      	ldr	r5, [sp, #8]
 8003a7c:	882e      	ldrh	r6, [r5, #0]
 8003a7e:	00d5      	lsls	r5, r2, #3
 8003a80:	1976      	adds	r6, r6, r5
 8003a82:	4d46      	ldr	r5, [pc, #280]	@ (8003b9c <HAL_PCD_IRQHandler+0x378>)
 8003a84:	1836      	adds	r6, r6, r0
 8003a86:	1976      	adds	r6, r6, r5
 8003a88:	8835      	ldrh	r5, [r6, #0]
 8003a8a:	05ad      	lsls	r5, r5, #22
 8003a8c:	0dad      	lsrs	r5, r5, #22
 8003a8e:	428d      	cmp	r5, r1
 8003a90:	d90d      	bls.n	8003aae <HAL_PCD_IRQHandler+0x28a>
 8003a92:	2100      	movs	r1, #0
 8003a94:	66d9      	str	r1, [r3, #108]	@ 0x6c
 8003a96:	0091      	lsls	r1, r2, #2
 8003a98:	1841      	adds	r1, r0, r1
 8003a9a:	880e      	ldrh	r6, [r1, #0]
 8003a9c:	4b42      	ldr	r3, [pc, #264]	@ (8003ba8 <HAL_PCD_IRQHandler+0x384>)
 8003a9e:	401e      	ands	r6, r3
 8003aa0:	2380      	movs	r3, #128	@ 0x80
 8003aa2:	019b      	lsls	r3, r3, #6
 8003aa4:	4073      	eors	r3, r6
 8003aa6:	4e41      	ldr	r6, [pc, #260]	@ (8003bac <HAL_PCD_IRQHandler+0x388>)
 8003aa8:	4333      	orrs	r3, r6
 8003aaa:	800b      	strh	r3, [r1, #0]
 8003aac:	e002      	b.n	8003ab4 <HAL_PCD_IRQHandler+0x290>
 8003aae:	1b49      	subs	r1, r1, r5
 8003ab0:	66d9      	str	r1, [r3, #108]	@ 0x6c
 8003ab2:	d0f0      	beq.n	8003a96 <HAL_PCD_IRQHandler+0x272>
 8003ab4:	9b01      	ldr	r3, [sp, #4]
 8003ab6:	065b      	lsls	r3, r3, #25
 8003ab8:	d507      	bpl.n	8003aca <HAL_PCD_IRQHandler+0x2a6>
 8003aba:	0092      	lsls	r2, r2, #2
 8003abc:	1882      	adds	r2, r0, r2
 8003abe:	8813      	ldrh	r3, [r2, #0]
 8003ac0:	493c      	ldr	r1, [pc, #240]	@ (8003bb4 <HAL_PCD_IRQHandler+0x390>)
 8003ac2:	400b      	ands	r3, r1
 8003ac4:	493c      	ldr	r1, [pc, #240]	@ (8003bb8 <HAL_PCD_IRQHandler+0x394>)
 8003ac6:	430b      	orrs	r3, r1
 8003ac8:	8013      	strh	r3, [r2, #0]
 8003aca:	2d00      	cmp	r5, #0
 8003acc:	d00c      	beq.n	8003ae8 <HAL_PCD_IRQHandler+0x2c4>
 8003ace:	2328      	movs	r3, #40	@ 0x28
 8003ad0:	9a00      	ldr	r2, [sp, #0]
 8003ad2:	4353      	muls	r3, r2
 8003ad4:	18e1      	adds	r1, r4, r3
 8003ad6:	000a      	movs	r2, r1
 8003ad8:	3259      	adds	r2, #89	@ 0x59
 8003ada:	32ff      	adds	r2, #255	@ 0xff
 8003adc:	8812      	ldrh	r2, [r2, #0]
 8003ade:	31fc      	adds	r1, #252	@ 0xfc
 8003ae0:	002b      	movs	r3, r5
 8003ae2:	6e89      	ldr	r1, [r1, #104]	@ 0x68
 8003ae4:	f002 f842 	bl	8005b6c <USB_ReadPMA>
 8003ae8:	2328      	movs	r3, #40	@ 0x28
 8003aea:	9900      	ldr	r1, [sp, #0]
 8003aec:	4359      	muls	r1, r3
 8003aee:	1862      	adds	r2, r4, r1
 8003af0:	32fc      	adds	r2, #252	@ 0xfc
 8003af2:	6f10      	ldr	r0, [r2, #112]	@ 0x70
 8003af4:	1940      	adds	r0, r0, r5
 8003af6:	6710      	str	r0, [r2, #112]	@ 0x70
 8003af8:	6e90      	ldr	r0, [r2, #104]	@ 0x68
 8003afa:	1940      	adds	r0, r0, r5
 8003afc:	6690      	str	r0, [r2, #104]	@ 0x68
 8003afe:	6ed0      	ldr	r0, [r2, #108]	@ 0x6c
 8003b00:	2800      	cmp	r0, #0
 8003b02:	d003      	beq.n	8003b0c <HAL_PCD_IRQHandler+0x2e8>
 8003b04:	6e52      	ldr	r2, [r2, #100]	@ 0x64
 8003b06:	4295      	cmp	r5, r2
 8003b08:	d300      	bcc.n	8003b0c <HAL_PCD_IRQHandler+0x2e8>
 8003b0a:	e0b3      	b.n	8003c74 <HAL_PCD_IRQHandler+0x450>
 8003b0c:	9a00      	ldr	r2, [sp, #0]
 8003b0e:	0020      	movs	r0, r4
 8003b10:	4353      	muls	r3, r2
 8003b12:	18e3      	adds	r3, r4, r3
 8003b14:	3351      	adds	r3, #81	@ 0x51
 8003b16:	33ff      	adds	r3, #255	@ 0xff
 8003b18:	7819      	ldrb	r1, [r3, #0]
 8003b1a:	f002 fed6 	bl	80068ca <HAL_PCD_DataOutStageCallback>
 8003b1e:	2280      	movs	r2, #128	@ 0x80
 8003b20:	9b01      	ldr	r3, [sp, #4]
 8003b22:	6820      	ldr	r0, [r4, #0]
 8003b24:	4213      	tst	r3, r2
 8003b26:	d100      	bne.n	8003b2a <HAL_PCD_IRQHandler+0x306>
 8003b28:	e68a      	b.n	8003840 <HAL_PCD_IRQHandler+0x1c>
 8003b2a:	19c2      	adds	r2, r0, r7
 8003b2c:	8813      	ldrh	r3, [r2, #0]
 8003b2e:	491a      	ldr	r1, [pc, #104]	@ (8003b98 <HAL_PCD_IRQHandler+0x374>)
 8003b30:	9e00      	ldr	r6, [sp, #0]
 8003b32:	400b      	ands	r3, r1
 8003b34:	491e      	ldr	r1, [pc, #120]	@ (8003bb0 <HAL_PCD_IRQHandler+0x38c>)
 8003b36:	430b      	orrs	r3, r1
 8003b38:	b29b      	uxth	r3, r3
 8003b3a:	8013      	strh	r3, [r2, #0]
 8003b3c:	2228      	movs	r2, #40	@ 0x28
 8003b3e:	4356      	muls	r6, r2
 8003b40:	19a3      	adds	r3, r4, r6
 8003b42:	7cd9      	ldrb	r1, [r3, #19]
 8003b44:	2901      	cmp	r1, #1
 8003b46:	d000      	beq.n	8003b4a <HAL_PCD_IRQHandler+0x326>
 8003b48:	e0c7      	b.n	8003cda <HAL_PCD_IRQHandler+0x4b6>
 8003b4a:	9900      	ldr	r1, [sp, #0]
 8003b4c:	3101      	adds	r1, #1
 8003b4e:	434a      	muls	r2, r1
 8003b50:	2100      	movs	r1, #0
 8003b52:	5111      	str	r1, [r2, r4]
 8003b54:	7f1a      	ldrb	r2, [r3, #28]
 8003b56:	428a      	cmp	r2, r1
 8003b58:	d100      	bne.n	8003b5c <HAL_PCD_IRQHandler+0x338>
 8003b5a:	e09e      	b.n	8003c9a <HAL_PCD_IRQHandler+0x476>
 8003b5c:	2240      	movs	r2, #64	@ 0x40
 8003b5e:	9d01      	ldr	r5, [sp, #4]
 8003b60:	9e01      	ldr	r6, [sp, #4]
 8003b62:	4015      	ands	r5, r2
 8003b64:	4216      	tst	r6, r2
 8003b66:	d100      	bne.n	8003b6a <HAL_PCD_IRQHandler+0x346>
 8003b68:	e0a0      	b.n	8003cac <HAL_PCD_IRQHandler+0x488>
 8003b6a:	7c5a      	ldrb	r2, [r3, #17]
 8003b6c:	428a      	cmp	r2, r1
 8003b6e:	d000      	beq.n	8003b72 <HAL_PCD_IRQHandler+0x34e>
 8003b70:	e087      	b.n	8003c82 <HAL_PCD_IRQHandler+0x45e>
 8003b72:	0002      	movs	r2, r0
 8003b74:	3250      	adds	r2, #80	@ 0x50
 8003b76:	8811      	ldrh	r1, [r2, #0]
 8003b78:	7c1a      	ldrb	r2, [r3, #16]
 8003b7a:	4b08      	ldr	r3, [pc, #32]	@ (8003b9c <HAL_PCD_IRQHandler+0x378>)
 8003b7c:	00d2      	lsls	r2, r2, #3
 8003b7e:	18c0      	adds	r0, r0, r3
 8003b80:	1841      	adds	r1, r0, r1
 8003b82:	1852      	adds	r2, r2, r1
 8003b84:	8813      	ldrh	r3, [r2, #0]
 8003b86:	490a      	ldr	r1, [pc, #40]	@ (8003bb0 <HAL_PCD_IRQHandler+0x38c>)
 8003b88:	059b      	lsls	r3, r3, #22
 8003b8a:	0d9b      	lsrs	r3, r3, #22
 8003b8c:	8013      	strh	r3, [r2, #0]
 8003b8e:	8813      	ldrh	r3, [r2, #0]
 8003b90:	430b      	orrs	r3, r1
 8003b92:	b29b      	uxth	r3, r3
 8003b94:	8013      	strh	r3, [r2, #0]
 8003b96:	e080      	b.n	8003c9a <HAL_PCD_IRQHandler+0x476>
 8003b98:	ffff8f0f 	.word	0xffff8f0f
 8003b9c:	00000402 	.word	0x00000402
 8003ba0:	00000406 	.word	0x00000406
 8003ba4:	00000f8f 	.word	0x00000f8f
 8003ba8:	ffffbf8f 	.word	0xffffbf8f
 8003bac:	00008080 	.word	0x00008080
 8003bb0:	ffff8000 	.word	0xffff8000
 8003bb4:	ffff8f8f 	.word	0xffff8f8f
 8003bb8:	000080c0 	.word	0x000080c0
 8003bbc:	9d02      	ldr	r5, [sp, #8]
 8003bbe:	882e      	ldrh	r6, [r5, #0]
 8003bc0:	00d5      	lsls	r5, r2, #3
 8003bc2:	1976      	adds	r6, r6, r5
 8003bc4:	4dc7      	ldr	r5, [pc, #796]	@ (8003ee4 <HAL_PCD_IRQHandler+0x6c0>)
 8003bc6:	1836      	adds	r6, r6, r0
 8003bc8:	1976      	adds	r6, r6, r5
 8003bca:	8835      	ldrh	r5, [r6, #0]
 8003bcc:	05ad      	lsls	r5, r5, #22
 8003bce:	0dad      	lsrs	r5, r5, #22
 8003bd0:	428d      	cmp	r5, r1
 8003bd2:	d90d      	bls.n	8003bf0 <HAL_PCD_IRQHandler+0x3cc>
 8003bd4:	9903      	ldr	r1, [sp, #12]
 8003bd6:	66d9      	str	r1, [r3, #108]	@ 0x6c
 8003bd8:	0091      	lsls	r1, r2, #2
 8003bda:	1841      	adds	r1, r0, r1
 8003bdc:	880e      	ldrh	r6, [r1, #0]
 8003bde:	4bc2      	ldr	r3, [pc, #776]	@ (8003ee8 <HAL_PCD_IRQHandler+0x6c4>)
 8003be0:	401e      	ands	r6, r3
 8003be2:	2380      	movs	r3, #128	@ 0x80
 8003be4:	019b      	lsls	r3, r3, #6
 8003be6:	4073      	eors	r3, r6
 8003be8:	4ec0      	ldr	r6, [pc, #768]	@ (8003eec <HAL_PCD_IRQHandler+0x6c8>)
 8003bea:	4333      	orrs	r3, r6
 8003bec:	800b      	strh	r3, [r1, #0]
 8003bee:	e002      	b.n	8003bf6 <HAL_PCD_IRQHandler+0x3d2>
 8003bf0:	1b49      	subs	r1, r1, r5
 8003bf2:	66d9      	str	r1, [r3, #108]	@ 0x6c
 8003bf4:	d0f0      	beq.n	8003bd8 <HAL_PCD_IRQHandler+0x3b4>
 8003bf6:	9b01      	ldr	r3, [sp, #4]
 8003bf8:	065b      	lsls	r3, r3, #25
 8003bfa:	d407      	bmi.n	8003c0c <HAL_PCD_IRQHandler+0x3e8>
 8003bfc:	0092      	lsls	r2, r2, #2
 8003bfe:	1882      	adds	r2, r0, r2
 8003c00:	8813      	ldrh	r3, [r2, #0]
 8003c02:	49bb      	ldr	r1, [pc, #748]	@ (8003ef0 <HAL_PCD_IRQHandler+0x6cc>)
 8003c04:	400b      	ands	r3, r1
 8003c06:	49bb      	ldr	r1, [pc, #748]	@ (8003ef4 <HAL_PCD_IRQHandler+0x6d0>)
 8003c08:	430b      	orrs	r3, r1
 8003c0a:	8013      	strh	r3, [r2, #0]
 8003c0c:	2d00      	cmp	r5, #0
 8003c0e:	d100      	bne.n	8003c12 <HAL_PCD_IRQHandler+0x3ee>
 8003c10:	e76a      	b.n	8003ae8 <HAL_PCD_IRQHandler+0x2c4>
 8003c12:	2328      	movs	r3, #40	@ 0x28
 8003c14:	9a00      	ldr	r2, [sp, #0]
 8003c16:	4353      	muls	r3, r2
 8003c18:	18e1      	adds	r1, r4, r3
 8003c1a:	000a      	movs	r2, r1
 8003c1c:	325b      	adds	r2, #91	@ 0x5b
 8003c1e:	e75c      	b.n	8003ada <HAL_PCD_IRQHandler+0x2b6>
 8003c20:	0092      	lsls	r2, r2, #2
 8003c22:	1882      	adds	r2, r0, r2
 8003c24:	8816      	ldrh	r6, [r2, #0]
 8003c26:	49b2      	ldr	r1, [pc, #712]	@ (8003ef0 <HAL_PCD_IRQHandler+0x6cc>)
 8003c28:	4031      	ands	r1, r6
 8003c2a:	4eb2      	ldr	r6, [pc, #712]	@ (8003ef4 <HAL_PCD_IRQHandler+0x6d0>)
 8003c2c:	4331      	orrs	r1, r6
 8003c2e:	8011      	strh	r1, [r2, #0]
 8003c30:	782a      	ldrb	r2, [r5, #0]
 8003c32:	0091      	lsls	r1, r2, #2
 8003c34:	1841      	adds	r1, r0, r1
 8003c36:	880d      	ldrh	r5, [r1, #0]
 8003c38:	0001      	movs	r1, r0
 8003c3a:	3150      	adds	r1, #80	@ 0x50
 8003c3c:	8809      	ldrh	r1, [r1, #0]
 8003c3e:	00d2      	lsls	r2, r2, #3
 8003c40:	1852      	adds	r2, r2, r1
 8003c42:	1812      	adds	r2, r2, r0
 8003c44:	046d      	lsls	r5, r5, #17
 8003c46:	d50a      	bpl.n	8003c5e <HAL_PCD_IRQHandler+0x43a>
 8003c48:	49ab      	ldr	r1, [pc, #684]	@ (8003ef8 <HAL_PCD_IRQHandler+0x6d4>)
 8003c4a:	1852      	adds	r2, r2, r1
 8003c4c:	8812      	ldrh	r2, [r2, #0]
 8003c4e:	0592      	lsls	r2, r2, #22
 8003c50:	0d95      	lsrs	r5, r2, #22
 8003c52:	2a00      	cmp	r2, #0
 8003c54:	d100      	bne.n	8003c58 <HAL_PCD_IRQHandler+0x434>
 8003c56:	e747      	b.n	8003ae8 <HAL_PCD_IRQHandler+0x2c4>
 8003c58:	001a      	movs	r2, r3
 8003c5a:	3259      	adds	r2, #89	@ 0x59
 8003c5c:	e6ef      	b.n	8003a3e <HAL_PCD_IRQHandler+0x21a>
 8003c5e:	49a1      	ldr	r1, [pc, #644]	@ (8003ee4 <HAL_PCD_IRQHandler+0x6c0>)
 8003c60:	1852      	adds	r2, r2, r1
 8003c62:	8812      	ldrh	r2, [r2, #0]
 8003c64:	0592      	lsls	r2, r2, #22
 8003c66:	0d95      	lsrs	r5, r2, #22
 8003c68:	2a00      	cmp	r2, #0
 8003c6a:	d100      	bne.n	8003c6e <HAL_PCD_IRQHandler+0x44a>
 8003c6c:	e73c      	b.n	8003ae8 <HAL_PCD_IRQHandler+0x2c4>
 8003c6e:	001a      	movs	r2, r3
 8003c70:	325b      	adds	r2, #91	@ 0x5b
 8003c72:	e6e4      	b.n	8003a3e <HAL_PCD_IRQHandler+0x21a>
 8003c74:	3151      	adds	r1, #81	@ 0x51
 8003c76:	31ff      	adds	r1, #255	@ 0xff
 8003c78:	6820      	ldr	r0, [r4, #0]
 8003c7a:	1861      	adds	r1, r4, r1
 8003c7c:	f001 fd44 	bl	8005708 <USB_EPStartXfer>
 8003c80:	e74d      	b.n	8003b1e <HAL_PCD_IRQHandler+0x2fa>
 8003c82:	2a01      	cmp	r2, #1
 8003c84:	d109      	bne.n	8003c9a <HAL_PCD_IRQHandler+0x476>
 8003c86:	0002      	movs	r2, r0
 8003c88:	4d9b      	ldr	r5, [pc, #620]	@ (8003ef8 <HAL_PCD_IRQHandler+0x6d4>)
 8003c8a:	3250      	adds	r2, #80	@ 0x50
 8003c8c:	8812      	ldrh	r2, [r2, #0]
 8003c8e:	7c1b      	ldrb	r3, [r3, #16]
 8003c90:	1940      	adds	r0, r0, r5
 8003c92:	00db      	lsls	r3, r3, #3
 8003c94:	1880      	adds	r0, r0, r2
 8003c96:	181b      	adds	r3, r3, r0
 8003c98:	8019      	strh	r1, [r3, #0]
 8003c9a:	2328      	movs	r3, #40	@ 0x28
 8003c9c:	9a00      	ldr	r2, [sp, #0]
 8003c9e:	4353      	muls	r3, r2
 8003ca0:	18e3      	adds	r3, r4, r3
 8003ca2:	7c19      	ldrb	r1, [r3, #16]
 8003ca4:	0020      	movs	r0, r4
 8003ca6:	f002 fe1c 	bl	80068e2 <HAL_PCD_DataInStageCallback>
 8003caa:	e5c9      	b.n	8003840 <HAL_PCD_IRQHandler+0x1c>
 8003cac:	7c5a      	ldrb	r2, [r3, #17]
 8003cae:	2a00      	cmp	r2, #0
 8003cb0:	d106      	bne.n	8003cc0 <HAL_PCD_IRQHandler+0x49c>
 8003cb2:	0002      	movs	r2, r0
 8003cb4:	3250      	adds	r2, #80	@ 0x50
 8003cb6:	8811      	ldrh	r1, [r2, #0]
 8003cb8:	7c1a      	ldrb	r2, [r3, #16]
 8003cba:	4b8a      	ldr	r3, [pc, #552]	@ (8003ee4 <HAL_PCD_IRQHandler+0x6c0>)
 8003cbc:	00d2      	lsls	r2, r2, #3
 8003cbe:	e75e      	b.n	8003b7e <HAL_PCD_IRQHandler+0x35a>
 8003cc0:	2a01      	cmp	r2, #1
 8003cc2:	d1ea      	bne.n	8003c9a <HAL_PCD_IRQHandler+0x476>
 8003cc4:	0002      	movs	r2, r0
 8003cc6:	4987      	ldr	r1, [pc, #540]	@ (8003ee4 <HAL_PCD_IRQHandler+0x6c0>)
 8003cc8:	3250      	adds	r2, #80	@ 0x50
 8003cca:	8812      	ldrh	r2, [r2, #0]
 8003ccc:	7c1b      	ldrb	r3, [r3, #16]
 8003cce:	1840      	adds	r0, r0, r1
 8003cd0:	00db      	lsls	r3, r3, #3
 8003cd2:	1880      	adds	r0, r0, r2
 8003cd4:	181b      	adds	r3, r3, r0
 8003cd6:	801d      	strh	r5, [r3, #0]
 8003cd8:	e7df      	b.n	8003c9a <HAL_PCD_IRQHandler+0x476>
 8003cda:	2780      	movs	r7, #128	@ 0x80
 8003cdc:	9901      	ldr	r1, [sp, #4]
 8003cde:	007f      	lsls	r7, r7, #1
 8003ce0:	4039      	ands	r1, r7
 8003ce2:	7c1a      	ldrb	r2, [r3, #16]
 8003ce4:	468c      	mov	ip, r1
 8003ce6:	9901      	ldr	r1, [sp, #4]
 8003ce8:	9202      	str	r2, [sp, #8]
 8003cea:	6a9d      	ldr	r5, [r3, #40]	@ 0x28
 8003cec:	00d2      	lsls	r2, r2, #3
 8003cee:	4239      	tst	r1, r7
 8003cf0:	d11c      	bne.n	8003d2c <HAL_PCD_IRQHandler+0x508>
 8003cf2:	0007      	movs	r7, r0
 8003cf4:	3750      	adds	r7, #80	@ 0x50
 8003cf6:	883f      	ldrh	r7, [r7, #0]
 8003cf8:	18bf      	adds	r7, r7, r2
 8003cfa:	4a7f      	ldr	r2, [pc, #508]	@ (8003ef8 <HAL_PCD_IRQHandler+0x6d4>)
 8003cfc:	183f      	adds	r7, r7, r0
 8003cfe:	18bf      	adds	r7, r7, r2
 8003d00:	883a      	ldrh	r2, [r7, #0]
 8003d02:	0592      	lsls	r2, r2, #22
 8003d04:	0d92      	lsrs	r2, r2, #22
 8003d06:	42aa      	cmp	r2, r5
 8003d08:	d303      	bcc.n	8003d12 <HAL_PCD_IRQHandler+0x4ee>
 8003d0a:	4662      	mov	r2, ip
 8003d0c:	9902      	ldr	r1, [sp, #8]
 8003d0e:	629a      	str	r2, [r3, #40]	@ 0x28
 8003d10:	e7c8      	b.n	8003ca4 <HAL_PCD_IRQHandler+0x480>
 8003d12:	6a59      	ldr	r1, [r3, #36]	@ 0x24
 8003d14:	1aad      	subs	r5, r5, r2
 8003d16:	1889      	adds	r1, r1, r2
 8003d18:	6259      	str	r1, [r3, #36]	@ 0x24
 8003d1a:	6ad9      	ldr	r1, [r3, #44]	@ 0x2c
 8003d1c:	3610      	adds	r6, #16
 8003d1e:	188a      	adds	r2, r1, r2
 8003d20:	629d      	str	r5, [r3, #40]	@ 0x28
 8003d22:	62da      	str	r2, [r3, #44]	@ 0x2c
 8003d24:	19a1      	adds	r1, r4, r6
 8003d26:	f001 fcef 	bl	8005708 <USB_EPStartXfer>
 8003d2a:	e589      	b.n	8003840 <HAL_PCD_IRQHandler+0x1c>
 8003d2c:	2140      	movs	r1, #64	@ 0x40
 8003d2e:	468c      	mov	ip, r1
 8003d30:	9f01      	ldr	r7, [sp, #4]
 8003d32:	0006      	movs	r6, r0
 8003d34:	400f      	ands	r7, r1
 8003d36:	9703      	str	r7, [sp, #12]
 8003d38:	4667      	mov	r7, ip
 8003d3a:	9901      	ldr	r1, [sp, #4]
 8003d3c:	3650      	adds	r6, #80	@ 0x50
 8003d3e:	4239      	tst	r1, r7
 8003d40:	d100      	bne.n	8003d44 <HAL_PCD_IRQHandler+0x520>
 8003d42:	e0df      	b.n	8003f04 <HAL_PCD_IRQHandler+0x6e0>
 8003d44:	496c      	ldr	r1, [pc, #432]	@ (8003ef8 <HAL_PCD_IRQHandler+0x6d4>)
 8003d46:	8837      	ldrh	r7, [r6, #0]
 8003d48:	1846      	adds	r6, r0, r1
 8003d4a:	2100      	movs	r1, #0
 8003d4c:	19f7      	adds	r7, r6, r7
 8003d4e:	5abf      	ldrh	r7, [r7, r2]
 8003d50:	468c      	mov	ip, r1
 8003d52:	05bf      	lsls	r7, r7, #22
 8003d54:	0dbf      	lsrs	r7, r7, #22
 8003d56:	42af      	cmp	r7, r5
 8003d58:	d201      	bcs.n	8003d5e <HAL_PCD_IRQHandler+0x53a>
 8003d5a:	1be9      	subs	r1, r5, r7
 8003d5c:	468c      	mov	ip, r1
 8003d5e:	4661      	mov	r1, ip
 8003d60:	2580      	movs	r5, #128	@ 0x80
 8003d62:	6299      	str	r1, [r3, #40]	@ 0x28
 8003d64:	9901      	ldr	r1, [sp, #4]
 8003d66:	01ed      	lsls	r5, r5, #7
 8003d68:	4029      	ands	r1, r5
 8003d6a:	000d      	movs	r5, r1
 8003d6c:	4661      	mov	r1, ip
 8003d6e:	2900      	cmp	r1, #0
 8003d70:	d147      	bne.n	8003e02 <HAL_PCD_IRQHandler+0x5de>
 8003d72:	2328      	movs	r3, #40	@ 0x28
 8003d74:	9900      	ldr	r1, [sp, #0]
 8003d76:	434b      	muls	r3, r1
 8003d78:	18e3      	adds	r3, r4, r3
 8003d7a:	7c5b      	ldrb	r3, [r3, #17]
 8003d7c:	2b00      	cmp	r3, #0
 8003d7e:	d130      	bne.n	8003de2 <HAL_PCD_IRQHandler+0x5be>
 8003d80:	0007      	movs	r7, r0
 8003d82:	3750      	adds	r7, #80	@ 0x50
 8003d84:	883b      	ldrh	r3, [r7, #0]
 8003d86:	495d      	ldr	r1, [pc, #372]	@ (8003efc <HAL_PCD_IRQHandler+0x6d8>)
 8003d88:	18f3      	adds	r3, r6, r3
 8003d8a:	189b      	adds	r3, r3, r2
 8003d8c:	881e      	ldrh	r6, [r3, #0]
 8003d8e:	05b6      	lsls	r6, r6, #22
 8003d90:	0db6      	lsrs	r6, r6, #22
 8003d92:	801e      	strh	r6, [r3, #0]
 8003d94:	881e      	ldrh	r6, [r3, #0]
 8003d96:	430e      	orrs	r6, r1
 8003d98:	b2b6      	uxth	r6, r6
 8003d9a:	801e      	strh	r6, [r3, #0]
 8003d9c:	4e51      	ldr	r6, [pc, #324]	@ (8003ee4 <HAL_PCD_IRQHandler+0x6c0>)
 8003d9e:	883b      	ldrh	r3, [r7, #0]
 8003da0:	1980      	adds	r0, r0, r6
 8003da2:	18c0      	adds	r0, r0, r3
 8003da4:	1880      	adds	r0, r0, r2
 8003da6:	8803      	ldrh	r3, [r0, #0]
 8003da8:	059b      	lsls	r3, r3, #22
 8003daa:	0d9b      	lsrs	r3, r3, #22
 8003dac:	8003      	strh	r3, [r0, #0]
 8003dae:	8803      	ldrh	r3, [r0, #0]
 8003db0:	430b      	orrs	r3, r1
 8003db2:	b29b      	uxth	r3, r3
 8003db4:	8003      	strh	r3, [r0, #0]
 8003db6:	0020      	movs	r0, r4
 8003db8:	9902      	ldr	r1, [sp, #8]
 8003dba:	f002 fd92 	bl	80068e2 <HAL_PCD_DataInStageCallback>
 8003dbe:	2d00      	cmp	r5, #0
 8003dc0:	d100      	bne.n	8003dc4 <HAL_PCD_IRQHandler+0x5a0>
 8003dc2:	e0dc      	b.n	8003f7e <HAL_PCD_IRQHandler+0x75a>
 8003dc4:	2328      	movs	r3, #40	@ 0x28
 8003dc6:	9a00      	ldr	r2, [sp, #0]
 8003dc8:	4949      	ldr	r1, [pc, #292]	@ (8003ef0 <HAL_PCD_IRQHandler+0x6cc>)
 8003dca:	4353      	muls	r3, r2
 8003dcc:	18e3      	adds	r3, r4, r3
 8003dce:	7c1b      	ldrb	r3, [r3, #16]
 8003dd0:	6822      	ldr	r2, [r4, #0]
 8003dd2:	009b      	lsls	r3, r3, #2
 8003dd4:	18d2      	adds	r2, r2, r3
 8003dd6:	8813      	ldrh	r3, [r2, #0]
 8003dd8:	400b      	ands	r3, r1
 8003dda:	4949      	ldr	r1, [pc, #292]	@ (8003f00 <HAL_PCD_IRQHandler+0x6dc>)
 8003ddc:	430b      	orrs	r3, r1
 8003dde:	8013      	strh	r3, [r2, #0]
 8003de0:	e0cd      	b.n	8003f7e <HAL_PCD_IRQHandler+0x75a>
 8003de2:	2b01      	cmp	r3, #1
 8003de4:	d1e7      	bne.n	8003db6 <HAL_PCD_IRQHandler+0x592>
 8003de6:	0007      	movs	r7, r0
 8003de8:	4661      	mov	r1, ip
 8003dea:	3750      	adds	r7, #80	@ 0x50
 8003dec:	883b      	ldrh	r3, [r7, #0]
 8003dee:	18f3      	adds	r3, r6, r3
 8003df0:	189b      	adds	r3, r3, r2
 8003df2:	8019      	strh	r1, [r3, #0]
 8003df4:	493b      	ldr	r1, [pc, #236]	@ (8003ee4 <HAL_PCD_IRQHandler+0x6c0>)
 8003df6:	883b      	ldrh	r3, [r7, #0]
 8003df8:	1840      	adds	r0, r0, r1
 8003dfa:	18c0      	adds	r0, r0, r3
 8003dfc:	1880      	adds	r0, r0, r2
 8003dfe:	4663      	mov	r3, ip
 8003e00:	e7d8      	b.n	8003db4 <HAL_PCD_IRQHandler+0x590>
 8003e02:	2d00      	cmp	r5, #0
 8003e04:	d00c      	beq.n	8003e20 <HAL_PCD_IRQHandler+0x5fc>
 8003e06:	9902      	ldr	r1, [sp, #8]
 8003e08:	0089      	lsls	r1, r1, #2
 8003e0a:	1841      	adds	r1, r0, r1
 8003e0c:	880d      	ldrh	r5, [r1, #0]
 8003e0e:	9101      	str	r1, [sp, #4]
 8003e10:	46ac      	mov	ip, r5
 8003e12:	4661      	mov	r1, ip
 8003e14:	4d36      	ldr	r5, [pc, #216]	@ (8003ef0 <HAL_PCD_IRQHandler+0x6cc>)
 8003e16:	400d      	ands	r5, r1
 8003e18:	4939      	ldr	r1, [pc, #228]	@ (8003f00 <HAL_PCD_IRQHandler+0x6dc>)
 8003e1a:	430d      	orrs	r5, r1
 8003e1c:	9901      	ldr	r1, [sp, #4]
 8003e1e:	800d      	strh	r5, [r1, #0]
 8003e20:	2528      	movs	r5, #40	@ 0x28
 8003e22:	9900      	ldr	r1, [sp, #0]
 8003e24:	434d      	muls	r5, r1
 8003e26:	2134      	movs	r1, #52	@ 0x34
 8003e28:	468c      	mov	ip, r1
 8003e2a:	1965      	adds	r5, r4, r5
 8003e2c:	44ac      	add	ip, r5
 8003e2e:	4661      	mov	r1, ip
 8003e30:	7809      	ldrb	r1, [r1, #0]
 8003e32:	2901      	cmp	r1, #1
 8003e34:	d000      	beq.n	8003e38 <HAL_PCD_IRQHandler+0x614>
 8003e36:	e0a2      	b.n	8003f7e <HAL_PCD_IRQHandler+0x75a>
 8003e38:	6a69      	ldr	r1, [r5, #36]	@ 0x24
 8003e3a:	19c9      	adds	r1, r1, r7
 8003e3c:	6269      	str	r1, [r5, #36]	@ 0x24
 8003e3e:	9101      	str	r1, [sp, #4]
 8003e40:	6ad9      	ldr	r1, [r3, #44]	@ 0x2c
 8003e42:	19c9      	adds	r1, r1, r7
 8003e44:	62d9      	str	r1, [r3, #44]	@ 0x2c
 8003e46:	6b2b      	ldr	r3, [r5, #48]	@ 0x30
 8003e48:	6a29      	ldr	r1, [r5, #32]
 8003e4a:	428b      	cmp	r3, r1
 8003e4c:	d317      	bcc.n	8003e7e <HAL_PCD_IRQHandler+0x65a>
 8003e4e:	1a5b      	subs	r3, r3, r1
 8003e50:	632b      	str	r3, [r5, #48]	@ 0x30
 8003e52:	2328      	movs	r3, #40	@ 0x28
 8003e54:	9d00      	ldr	r5, [sp, #0]
 8003e56:	436b      	muls	r3, r5
 8003e58:	18e3      	adds	r3, r4, r3
 8003e5a:	7c5d      	ldrb	r5, [r3, #17]
 8003e5c:	b28b      	uxth	r3, r1
 8003e5e:	2d00      	cmp	r5, #0
 8003e60:	d137      	bne.n	8003ed2 <HAL_PCD_IRQHandler+0x6ae>
 8003e62:	0005      	movs	r5, r0
 8003e64:	3550      	adds	r5, #80	@ 0x50
 8003e66:	882d      	ldrh	r5, [r5, #0]
 8003e68:	1975      	adds	r5, r6, r5
 8003e6a:	18aa      	adds	r2, r5, r2
 8003e6c:	8815      	ldrh	r5, [r2, #0]
 8003e6e:	05ad      	lsls	r5, r5, #22
 8003e70:	0dad      	lsrs	r5, r5, #22
 8003e72:	8015      	strh	r5, [r2, #0]
 8003e74:	2900      	cmp	r1, #0
 8003e76:	d10e      	bne.n	8003e96 <HAL_PCD_IRQHandler+0x672>
 8003e78:	8811      	ldrh	r1, [r2, #0]
 8003e7a:	4d20      	ldr	r5, [pc, #128]	@ (8003efc <HAL_PCD_IRQHandler+0x6d8>)
 8003e7c:	e013      	b.n	8003ea6 <HAL_PCD_IRQHandler+0x682>
 8003e7e:	2b00      	cmp	r3, #0
 8003e80:	d103      	bne.n	8003e8a <HAL_PCD_IRQHandler+0x666>
 8003e82:	4661      	mov	r1, ip
 8003e84:	700b      	strb	r3, [r1, #0]
 8003e86:	0039      	movs	r1, r7
 8003e88:	e7e3      	b.n	8003e52 <HAL_PCD_IRQHandler+0x62e>
 8003e8a:	2100      	movs	r1, #0
 8003e8c:	4667      	mov	r7, ip
 8003e8e:	7039      	strb	r1, [r7, #0]
 8003e90:	6329      	str	r1, [r5, #48]	@ 0x30
 8003e92:	0019      	movs	r1, r3
 8003e94:	e7dd      	b.n	8003e52 <HAL_PCD_IRQHandler+0x62e>
 8003e96:	293e      	cmp	r1, #62	@ 0x3e
 8003e98:	d811      	bhi.n	8003ebe <HAL_PCD_IRQHandler+0x69a>
 8003e9a:	2601      	movs	r6, #1
 8003e9c:	084d      	lsrs	r5, r1, #1
 8003e9e:	400e      	ands	r6, r1
 8003ea0:	19ad      	adds	r5, r5, r6
 8003ea2:	8811      	ldrh	r1, [r2, #0]
 8003ea4:	02ad      	lsls	r5, r5, #10
 8003ea6:	4329      	orrs	r1, r5
 8003ea8:	b289      	uxth	r1, r1
 8003eaa:	8011      	strh	r1, [r2, #0]
 8003eac:	2228      	movs	r2, #40	@ 0x28
 8003eae:	9900      	ldr	r1, [sp, #0]
 8003eb0:	434a      	muls	r2, r1
 8003eb2:	18a2      	adds	r2, r4, r2
 8003eb4:	8b12      	ldrh	r2, [r2, #24]
 8003eb6:	9901      	ldr	r1, [sp, #4]
 8003eb8:	f001 fc11 	bl	80056de <USB_WritePMA>
 8003ebc:	e05f      	b.n	8003f7e <HAL_PCD_IRQHandler+0x75a>
 8003ebe:	261f      	movs	r6, #31
 8003ec0:	094d      	lsrs	r5, r1, #5
 8003ec2:	4031      	ands	r1, r6
 8003ec4:	424e      	negs	r6, r1
 8003ec6:	4171      	adcs	r1, r6
 8003ec8:	1a6d      	subs	r5, r5, r1
 8003eca:	8811      	ldrh	r1, [r2, #0]
 8003ecc:	02ad      	lsls	r5, r5, #10
 8003ece:	4329      	orrs	r1, r5
 8003ed0:	e7d3      	b.n	8003e7a <HAL_PCD_IRQHandler+0x656>
 8003ed2:	2d01      	cmp	r5, #1
 8003ed4:	d1ea      	bne.n	8003eac <HAL_PCD_IRQHandler+0x688>
 8003ed6:	0001      	movs	r1, r0
 8003ed8:	3150      	adds	r1, #80	@ 0x50
 8003eda:	8809      	ldrh	r1, [r1, #0]
 8003edc:	1876      	adds	r6, r6, r1
 8003ede:	18b6      	adds	r6, r6, r2
 8003ee0:	8033      	strh	r3, [r6, #0]
 8003ee2:	e7e3      	b.n	8003eac <HAL_PCD_IRQHandler+0x688>
 8003ee4:	00000406 	.word	0x00000406
 8003ee8:	ffffbf8f 	.word	0xffffbf8f
 8003eec:	00008080 	.word	0x00008080
 8003ef0:	ffff8f8f 	.word	0xffff8f8f
 8003ef4:	000080c0 	.word	0x000080c0
 8003ef8:	00000402 	.word	0x00000402
 8003efc:	ffff8000 	.word	0xffff8000
 8003f00:	0000c080 	.word	0x0000c080
 8003f04:	49ac      	ldr	r1, [pc, #688]	@ (80041b8 <HAL_PCD_IRQHandler+0x994>)
 8003f06:	8836      	ldrh	r6, [r6, #0]
 8003f08:	468c      	mov	ip, r1
 8003f0a:	4484      	add	ip, r0
 8003f0c:	4466      	add	r6, ip
 8003f0e:	5ab6      	ldrh	r6, [r6, r2]
 8003f10:	9f03      	ldr	r7, [sp, #12]
 8003f12:	05b6      	lsls	r6, r6, #22
 8003f14:	0db6      	lsrs	r6, r6, #22
 8003f16:	42ae      	cmp	r6, r5
 8003f18:	d800      	bhi.n	8003f1c <HAL_PCD_IRQHandler+0x6f8>
 8003f1a:	1baf      	subs	r7, r5, r6
 8003f1c:	2580      	movs	r5, #128	@ 0x80
 8003f1e:	9901      	ldr	r1, [sp, #4]
 8003f20:	01ed      	lsls	r5, r5, #7
 8003f22:	4029      	ands	r1, r5
 8003f24:	000d      	movs	r5, r1
 8003f26:	629f      	str	r7, [r3, #40]	@ 0x28
 8003f28:	2f00      	cmp	r7, #0
 8003f2a:	d149      	bne.n	8003fc0 <HAL_PCD_IRQHandler+0x79c>
 8003f2c:	2328      	movs	r3, #40	@ 0x28
 8003f2e:	9900      	ldr	r1, [sp, #0]
 8003f30:	434b      	muls	r3, r1
 8003f32:	18e3      	adds	r3, r4, r3
 8003f34:	7c5b      	ldrb	r3, [r3, #17]
 8003f36:	2b00      	cmp	r3, #0
 8003f38:	d133      	bne.n	8003fa2 <HAL_PCD_IRQHandler+0x77e>
 8003f3a:	0003      	movs	r3, r0
 8003f3c:	499f      	ldr	r1, [pc, #636]	@ (80041bc <HAL_PCD_IRQHandler+0x998>)
 8003f3e:	3350      	adds	r3, #80	@ 0x50
 8003f40:	881e      	ldrh	r6, [r3, #0]
 8003f42:	1840      	adds	r0, r0, r1
 8003f44:	1980      	adds	r0, r0, r6
 8003f46:	1880      	adds	r0, r0, r2
 8003f48:	8806      	ldrh	r6, [r0, #0]
 8003f4a:	499d      	ldr	r1, [pc, #628]	@ (80041c0 <HAL_PCD_IRQHandler+0x99c>)
 8003f4c:	05b6      	lsls	r6, r6, #22
 8003f4e:	0db6      	lsrs	r6, r6, #22
 8003f50:	8006      	strh	r6, [r0, #0]
 8003f52:	8806      	ldrh	r6, [r0, #0]
 8003f54:	430e      	orrs	r6, r1
 8003f56:	b2b6      	uxth	r6, r6
 8003f58:	8006      	strh	r6, [r0, #0]
 8003f5a:	881b      	ldrh	r3, [r3, #0]
 8003f5c:	4463      	add	r3, ip
 8003f5e:	189b      	adds	r3, r3, r2
 8003f60:	881a      	ldrh	r2, [r3, #0]
 8003f62:	0592      	lsls	r2, r2, #22
 8003f64:	0d92      	lsrs	r2, r2, #22
 8003f66:	801a      	strh	r2, [r3, #0]
 8003f68:	881a      	ldrh	r2, [r3, #0]
 8003f6a:	430a      	orrs	r2, r1
 8003f6c:	b292      	uxth	r2, r2
 8003f6e:	801a      	strh	r2, [r3, #0]
 8003f70:	0020      	movs	r0, r4
 8003f72:	9902      	ldr	r1, [sp, #8]
 8003f74:	f002 fcb5 	bl	80068e2 <HAL_PCD_DataInStageCallback>
 8003f78:	2d00      	cmp	r5, #0
 8003f7a:	d100      	bne.n	8003f7e <HAL_PCD_IRQHandler+0x75a>
 8003f7c:	e722      	b.n	8003dc4 <HAL_PCD_IRQHandler+0x5a0>
 8003f7e:	2328      	movs	r3, #40	@ 0x28
 8003f80:	9a00      	ldr	r2, [sp, #0]
 8003f82:	4353      	muls	r3, r2
 8003f84:	18e3      	adds	r3, r4, r3
 8003f86:	7c1b      	ldrb	r3, [r3, #16]
 8003f88:	6822      	ldr	r2, [r4, #0]
 8003f8a:	009b      	lsls	r3, r3, #2
 8003f8c:	18d2      	adds	r2, r2, r3
 8003f8e:	8811      	ldrh	r1, [r2, #0]
 8003f90:	4b8c      	ldr	r3, [pc, #560]	@ (80041c4 <HAL_PCD_IRQHandler+0x9a0>)
 8003f92:	4019      	ands	r1, r3
 8003f94:	2330      	movs	r3, #48	@ 0x30
 8003f96:	404b      	eors	r3, r1
 8003f98:	498b      	ldr	r1, [pc, #556]	@ (80041c8 <HAL_PCD_IRQHandler+0x9a4>)
 8003f9a:	430b      	orrs	r3, r1
 8003f9c:	8013      	strh	r3, [r2, #0]
 8003f9e:	f7ff fc4f 	bl	8003840 <HAL_PCD_IRQHandler+0x1c>
 8003fa2:	2b01      	cmp	r3, #1
 8003fa4:	d1e4      	bne.n	8003f70 <HAL_PCD_IRQHandler+0x74c>
 8003fa6:	0003      	movs	r3, r0
 8003fa8:	4984      	ldr	r1, [pc, #528]	@ (80041bc <HAL_PCD_IRQHandler+0x998>)
 8003faa:	3350      	adds	r3, #80	@ 0x50
 8003fac:	881e      	ldrh	r6, [r3, #0]
 8003fae:	1840      	adds	r0, r0, r1
 8003fb0:	1980      	adds	r0, r0, r6
 8003fb2:	1880      	adds	r0, r0, r2
 8003fb4:	8007      	strh	r7, [r0, #0]
 8003fb6:	881b      	ldrh	r3, [r3, #0]
 8003fb8:	4463      	add	r3, ip
 8003fba:	189b      	adds	r3, r3, r2
 8003fbc:	801f      	strh	r7, [r3, #0]
 8003fbe:	e7d7      	b.n	8003f70 <HAL_PCD_IRQHandler+0x74c>
 8003fc0:	2900      	cmp	r1, #0
 8003fc2:	d108      	bne.n	8003fd6 <HAL_PCD_IRQHandler+0x7b2>
 8003fc4:	9902      	ldr	r1, [sp, #8]
 8003fc6:	4d81      	ldr	r5, [pc, #516]	@ (80041cc <HAL_PCD_IRQHandler+0x9a8>)
 8003fc8:	0089      	lsls	r1, r1, #2
 8003fca:	1841      	adds	r1, r0, r1
 8003fcc:	880f      	ldrh	r7, [r1, #0]
 8003fce:	403d      	ands	r5, r7
 8003fd0:	4f7f      	ldr	r7, [pc, #508]	@ (80041d0 <HAL_PCD_IRQHandler+0x9ac>)
 8003fd2:	433d      	orrs	r5, r7
 8003fd4:	800d      	strh	r5, [r1, #0]
 8003fd6:	2728      	movs	r7, #40	@ 0x28
 8003fd8:	9900      	ldr	r1, [sp, #0]
 8003fda:	434f      	muls	r7, r1
 8003fdc:	19e7      	adds	r7, r4, r7
 8003fde:	0039      	movs	r1, r7
 8003fe0:	3134      	adds	r1, #52	@ 0x34
 8003fe2:	9101      	str	r1, [sp, #4]
 8003fe4:	7809      	ldrb	r1, [r1, #0]
 8003fe6:	2901      	cmp	r1, #1
 8003fe8:	d1c9      	bne.n	8003f7e <HAL_PCD_IRQHandler+0x75a>
 8003fea:	6a79      	ldr	r1, [r7, #36]	@ 0x24
 8003fec:	1989      	adds	r1, r1, r6
 8003fee:	6279      	str	r1, [r7, #36]	@ 0x24
 8003ff0:	6add      	ldr	r5, [r3, #44]	@ 0x2c
 8003ff2:	19ad      	adds	r5, r5, r6
 8003ff4:	62dd      	str	r5, [r3, #44]	@ 0x2c
 8003ff6:	6b3b      	ldr	r3, [r7, #48]	@ 0x30
 8003ff8:	6a3d      	ldr	r5, [r7, #32]
 8003ffa:	42ab      	cmp	r3, r5
 8003ffc:	d317      	bcc.n	800402e <HAL_PCD_IRQHandler+0x80a>
 8003ffe:	1b5b      	subs	r3, r3, r5
 8004000:	633b      	str	r3, [r7, #48]	@ 0x30
 8004002:	2328      	movs	r3, #40	@ 0x28
 8004004:	9e00      	ldr	r6, [sp, #0]
 8004006:	4373      	muls	r3, r6
 8004008:	18e3      	adds	r3, r4, r3
 800400a:	7c5e      	ldrb	r6, [r3, #17]
 800400c:	b2ab      	uxth	r3, r5
 800400e:	2e00      	cmp	r6, #0
 8004010:	d134      	bne.n	800407c <HAL_PCD_IRQHandler+0x858>
 8004012:	0006      	movs	r6, r0
 8004014:	3650      	adds	r6, #80	@ 0x50
 8004016:	8836      	ldrh	r6, [r6, #0]
 8004018:	4466      	add	r6, ip
 800401a:	18b2      	adds	r2, r6, r2
 800401c:	8816      	ldrh	r6, [r2, #0]
 800401e:	05b6      	lsls	r6, r6, #22
 8004020:	0db6      	lsrs	r6, r6, #22
 8004022:	8016      	strh	r6, [r2, #0]
 8004024:	2d00      	cmp	r5, #0
 8004026:	d10e      	bne.n	8004046 <HAL_PCD_IRQHandler+0x822>
 8004028:	8815      	ldrh	r5, [r2, #0]
 800402a:	4e65      	ldr	r6, [pc, #404]	@ (80041c0 <HAL_PCD_IRQHandler+0x99c>)
 800402c:	e013      	b.n	8004056 <HAL_PCD_IRQHandler+0x832>
 800402e:	2b00      	cmp	r3, #0
 8004030:	d103      	bne.n	800403a <HAL_PCD_IRQHandler+0x816>
 8004032:	9d01      	ldr	r5, [sp, #4]
 8004034:	702b      	strb	r3, [r5, #0]
 8004036:	0035      	movs	r5, r6
 8004038:	e7e3      	b.n	8004002 <HAL_PCD_IRQHandler+0x7de>
 800403a:	2500      	movs	r5, #0
 800403c:	9e01      	ldr	r6, [sp, #4]
 800403e:	633d      	str	r5, [r7, #48]	@ 0x30
 8004040:	7035      	strb	r5, [r6, #0]
 8004042:	001d      	movs	r5, r3
 8004044:	e7dd      	b.n	8004002 <HAL_PCD_IRQHandler+0x7de>
 8004046:	2d3e      	cmp	r5, #62	@ 0x3e
 8004048:	d80e      	bhi.n	8004068 <HAL_PCD_IRQHandler+0x844>
 800404a:	2701      	movs	r7, #1
 800404c:	086e      	lsrs	r6, r5, #1
 800404e:	402f      	ands	r7, r5
 8004050:	19f6      	adds	r6, r6, r7
 8004052:	8815      	ldrh	r5, [r2, #0]
 8004054:	02b6      	lsls	r6, r6, #10
 8004056:	4335      	orrs	r5, r6
 8004058:	b2ad      	uxth	r5, r5
 800405a:	8015      	strh	r5, [r2, #0]
 800405c:	2228      	movs	r2, #40	@ 0x28
 800405e:	9d00      	ldr	r5, [sp, #0]
 8004060:	436a      	muls	r2, r5
 8004062:	18a2      	adds	r2, r4, r2
 8004064:	8b52      	ldrh	r2, [r2, #26]
 8004066:	e727      	b.n	8003eb8 <HAL_PCD_IRQHandler+0x694>
 8004068:	271f      	movs	r7, #31
 800406a:	096e      	lsrs	r6, r5, #5
 800406c:	403d      	ands	r5, r7
 800406e:	426f      	negs	r7, r5
 8004070:	417d      	adcs	r5, r7
 8004072:	1b76      	subs	r6, r6, r5
 8004074:	8815      	ldrh	r5, [r2, #0]
 8004076:	02b6      	lsls	r6, r6, #10
 8004078:	4335      	orrs	r5, r6
 800407a:	e7d6      	b.n	800402a <HAL_PCD_IRQHandler+0x806>
 800407c:	2e01      	cmp	r6, #1
 800407e:	d1ed      	bne.n	800405c <HAL_PCD_IRQHandler+0x838>
 8004080:	0005      	movs	r5, r0
 8004082:	3550      	adds	r5, #80	@ 0x50
 8004084:	882d      	ldrh	r5, [r5, #0]
 8004086:	4465      	add	r5, ip
 8004088:	18aa      	adds	r2, r5, r2
 800408a:	8013      	strh	r3, [r2, #0]
 800408c:	e7e6      	b.n	800405c <HAL_PCD_IRQHandler+0x838>
 800408e:	0543      	lsls	r3, r0, #21
 8004090:	d50e      	bpl.n	80040b0 <HAL_PCD_IRQHandler+0x88c>
 8004092:	6823      	ldr	r3, [r4, #0]
 8004094:	494f      	ldr	r1, [pc, #316]	@ (80041d4 <HAL_PCD_IRQHandler+0x9b0>)
 8004096:	3306      	adds	r3, #6
 8004098:	8fda      	ldrh	r2, [r3, #62]	@ 0x3e
 800409a:	0020      	movs	r0, r4
 800409c:	400a      	ands	r2, r1
 800409e:	87da      	strh	r2, [r3, #62]	@ 0x3e
 80040a0:	f002 fc31 	bl	8006906 <HAL_PCD_ResetCallback>
 80040a4:	0029      	movs	r1, r5
 80040a6:	0020      	movs	r0, r4
 80040a8:	f7ff fbab 	bl	8003802 <HAL_PCD_SetAddress>
 80040ac:	f7ff fbce 	bl	800384c <HAL_PCD_IRQHandler+0x28>
 80040b0:	0443      	lsls	r3, r0, #17
 80040b2:	d507      	bpl.n	80040c4 <HAL_PCD_IRQHandler+0x8a0>
 80040b4:	6823      	ldr	r3, [r4, #0]
 80040b6:	4948      	ldr	r1, [pc, #288]	@ (80041d8 <HAL_PCD_IRQHandler+0x9b4>)
 80040b8:	3306      	adds	r3, #6
 80040ba:	8fda      	ldrh	r2, [r3, #62]	@ 0x3e
 80040bc:	400a      	ands	r2, r1
 80040be:	87da      	strh	r2, [r3, #62]	@ 0x3e
 80040c0:	f7ff fbc4 	bl	800384c <HAL_PCD_IRQHandler+0x28>
 80040c4:	2380      	movs	r3, #128	@ 0x80
 80040c6:	0001      	movs	r1, r0
 80040c8:	019b      	lsls	r3, r3, #6
 80040ca:	4019      	ands	r1, r3
 80040cc:	4218      	tst	r0, r3
 80040ce:	d004      	beq.n	80040da <HAL_PCD_IRQHandler+0x8b6>
 80040d0:	6823      	ldr	r3, [r4, #0]
 80040d2:	4942      	ldr	r1, [pc, #264]	@ (80041dc <HAL_PCD_IRQHandler+0x9b8>)
 80040d4:	3306      	adds	r3, #6
 80040d6:	8fda      	ldrh	r2, [r3, #62]	@ 0x3e
 80040d8:	e7f0      	b.n	80040bc <HAL_PCD_IRQHandler+0x898>
 80040da:	04c3      	lsls	r3, r0, #19
 80040dc:	d51a      	bpl.n	8004114 <HAL_PCD_IRQHandler+0x8f0>
 80040de:	2004      	movs	r0, #4
 80040e0:	6823      	ldr	r3, [r4, #0]
 80040e2:	3302      	adds	r3, #2
 80040e4:	8fda      	ldrh	r2, [r3, #62]	@ 0x3e
 80040e6:	4382      	bics	r2, r0
 80040e8:	87da      	strh	r2, [r3, #62]	@ 0x3e
 80040ea:	8fda      	ldrh	r2, [r3, #62]	@ 0x3e
 80040ec:	1800      	adds	r0, r0, r0
 80040ee:	4382      	bics	r2, r0
 80040f0:	87da      	strh	r2, [r3, #62]	@ 0x3e
 80040f2:	23b2      	movs	r3, #178	@ 0xb2
 80040f4:	009b      	lsls	r3, r3, #2
 80040f6:	5ce2      	ldrb	r2, [r4, r3]
 80040f8:	2a01      	cmp	r2, #1
 80040fa:	d103      	bne.n	8004104 <HAL_PCD_IRQHandler+0x8e0>
 80040fc:	0020      	movs	r0, r4
 80040fe:	54e1      	strb	r1, [r4, r3]
 8004100:	f000 f98b 	bl	800441a <HAL_PCDEx_LPM_Callback>
 8004104:	0020      	movs	r0, r4
 8004106:	f002 fc21 	bl	800694c <HAL_PCD_ResumeCallback>
 800410a:	6823      	ldr	r3, [r4, #0]
 800410c:	4934      	ldr	r1, [pc, #208]	@ (80041e0 <HAL_PCD_IRQHandler+0x9bc>)
 800410e:	3306      	adds	r3, #6
 8004110:	8fda      	ldrh	r2, [r3, #62]	@ 0x3e
 8004112:	e7d3      	b.n	80040bc <HAL_PCD_IRQHandler+0x898>
 8004114:	0503      	lsls	r3, r0, #20
 8004116:	d513      	bpl.n	8004140 <HAL_PCD_IRQHandler+0x91c>
 8004118:	2108      	movs	r1, #8
 800411a:	6823      	ldr	r3, [r4, #0]
 800411c:	1c9a      	adds	r2, r3, #2
 800411e:	8fd0      	ldrh	r0, [r2, #62]	@ 0x3e
 8004120:	3306      	adds	r3, #6
 8004122:	4301      	orrs	r1, r0
 8004124:	87d1      	strh	r1, [r2, #62]	@ 0x3e
 8004126:	8fd9      	ldrh	r1, [r3, #62]	@ 0x3e
 8004128:	482e      	ldr	r0, [pc, #184]	@ (80041e4 <HAL_PCD_IRQHandler+0x9c0>)
 800412a:	4001      	ands	r1, r0
 800412c:	87d9      	strh	r1, [r3, #62]	@ 0x3e
 800412e:	2304      	movs	r3, #4
 8004130:	8fd1      	ldrh	r1, [r2, #62]	@ 0x3e
 8004132:	430b      	orrs	r3, r1
 8004134:	87d3      	strh	r3, [r2, #62]	@ 0x3e
 8004136:	0020      	movs	r0, r4
 8004138:	f002 fbf6 	bl	8006928 <HAL_PCD_SuspendCallback>
 800413c:	f7ff fb86 	bl	800384c <HAL_PCD_IRQHandler+0x28>
 8004140:	2580      	movs	r5, #128	@ 0x80
 8004142:	4228      	tst	r0, r5
 8004144:	d021      	beq.n	800418a <HAL_PCD_IRQHandler+0x966>
 8004146:	20b2      	movs	r0, #178	@ 0xb2
 8004148:	6823      	ldr	r3, [r4, #0]
 800414a:	0080      	lsls	r0, r0, #2
 800414c:	1d99      	adds	r1, r3, #6
 800414e:	8fca      	ldrh	r2, [r1, #62]	@ 0x3e
 8004150:	43aa      	bics	r2, r5
 8004152:	87ca      	strh	r2, [r1, #62]	@ 0x3e
 8004154:	5c22      	ldrb	r2, [r4, r0]
 8004156:	2a00      	cmp	r2, #0
 8004158:	d1ed      	bne.n	8004136 <HAL_PCD_IRQHandler+0x912>
 800415a:	2104      	movs	r1, #4
 800415c:	1c9a      	adds	r2, r3, #2
 800415e:	8fd5      	ldrh	r5, [r2, #62]	@ 0x3e
 8004160:	3354      	adds	r3, #84	@ 0x54
 8004162:	4329      	orrs	r1, r5
 8004164:	87d1      	strh	r1, [r2, #62]	@ 0x3e
 8004166:	2108      	movs	r1, #8
 8004168:	8fd5      	ldrh	r5, [r2, #62]	@ 0x3e
 800416a:	4329      	orrs	r1, r5
 800416c:	87d1      	strh	r1, [r2, #62]	@ 0x3e
 800416e:	2101      	movs	r1, #1
 8004170:	223c      	movs	r2, #60	@ 0x3c
 8004172:	5421      	strb	r1, [r4, r0]
 8004174:	881b      	ldrh	r3, [r3, #0]
 8004176:	0020      	movs	r0, r4
 8004178:	089b      	lsrs	r3, r3, #2
 800417a:	4013      	ands	r3, r2
 800417c:	22b3      	movs	r2, #179	@ 0xb3
 800417e:	0092      	lsls	r2, r2, #2
 8004180:	50a3      	str	r3, [r4, r2]
 8004182:	f000 f94a 	bl	800441a <HAL_PCDEx_LPM_Callback>
 8004186:	f7ff fb61 	bl	800384c <HAL_PCD_IRQHandler+0x28>
 800418a:	0583      	lsls	r3, r0, #22
 800418c:	d50a      	bpl.n	80041a4 <HAL_PCD_IRQHandler+0x980>
 800418e:	6823      	ldr	r3, [r4, #0]
 8004190:	4915      	ldr	r1, [pc, #84]	@ (80041e8 <HAL_PCD_IRQHandler+0x9c4>)
 8004192:	3306      	adds	r3, #6
 8004194:	8fda      	ldrh	r2, [r3, #62]	@ 0x3e
 8004196:	0020      	movs	r0, r4
 8004198:	400a      	ands	r2, r1
 800419a:	87da      	strh	r2, [r3, #62]	@ 0x3e
 800419c:	f002 fbac 	bl	80068f8 <HAL_PCD_SOFCallback>
 80041a0:	f7ff fb54 	bl	800384c <HAL_PCD_IRQHandler+0x28>
 80041a4:	05c0      	lsls	r0, r0, #23
 80041a6:	d401      	bmi.n	80041ac <HAL_PCD_IRQHandler+0x988>
 80041a8:	f7ff fb50 	bl	800384c <HAL_PCD_IRQHandler+0x28>
 80041ac:	6823      	ldr	r3, [r4, #0]
 80041ae:	490f      	ldr	r1, [pc, #60]	@ (80041ec <HAL_PCD_IRQHandler+0x9c8>)
 80041b0:	3306      	adds	r3, #6
 80041b2:	8fda      	ldrh	r2, [r3, #62]	@ 0x3e
 80041b4:	e782      	b.n	80040bc <HAL_PCD_IRQHandler+0x898>
 80041b6:	46c0      	nop			@ (mov r8, r8)
 80041b8:	00000406 	.word	0x00000406
 80041bc:	00000402 	.word	0x00000402
 80041c0:	ffff8000 	.word	0xffff8000
 80041c4:	ffff8fbf 	.word	0xffff8fbf
 80041c8:	00008080 	.word	0x00008080
 80041cc:	ffff8f8f 	.word	0xffff8f8f
 80041d0:	0000c080 	.word	0x0000c080
 80041d4:	fffffbff 	.word	0xfffffbff
 80041d8:	ffffbfff 	.word	0xffffbfff
 80041dc:	ffffdfff 	.word	0xffffdfff
 80041e0:	ffffefff 	.word	0xffffefff
 80041e4:	fffff7ff 	.word	0xfffff7ff
 80041e8:	fffffdff 	.word	0xfffffdff
 80041ec:	fffffeff 	.word	0xfffffeff

080041f0 <HAL_PCD_EP_Open>:
 80041f0:	b570      	push	{r4, r5, r6, lr}
 80041f2:	0004      	movs	r4, r0
 80041f4:	2007      	movs	r0, #7
 80041f6:	000d      	movs	r5, r1
 80041f8:	4008      	ands	r0, r1
 80041fa:	2128      	movs	r1, #40	@ 0x28
 80041fc:	4341      	muls	r1, r0
 80041fe:	b26d      	sxtb	r5, r5
 8004200:	1866      	adds	r6, r4, r1
 8004202:	2d00      	cmp	r5, #0
 8004204:	da18      	bge.n	8004238 <HAL_PCD_EP_Open+0x48>
 8004206:	2501      	movs	r5, #1
 8004208:	3110      	adds	r1, #16
 800420a:	1861      	adds	r1, r4, r1
 800420c:	7475      	strb	r5, [r6, #17]
 800420e:	7008      	strb	r0, [r1, #0]
 8004210:	610a      	str	r2, [r1, #16]
 8004212:	70cb      	strb	r3, [r1, #3]
 8004214:	2b02      	cmp	r3, #2
 8004216:	d101      	bne.n	800421c <HAL_PCD_EP_Open+0x2c>
 8004218:	2300      	movs	r3, #0
 800421a:	710b      	strb	r3, [r1, #4]
 800421c:	25a4      	movs	r5, #164	@ 0xa4
 800421e:	00ad      	lsls	r5, r5, #2
 8004220:	5d63      	ldrb	r3, [r4, r5]
 8004222:	2002      	movs	r0, #2
 8004224:	2b01      	cmp	r3, #1
 8004226:	d006      	beq.n	8004236 <HAL_PCD_EP_Open+0x46>
 8004228:	2301      	movs	r3, #1
 800422a:	5563      	strb	r3, [r4, r5]
 800422c:	6820      	ldr	r0, [r4, #0]
 800422e:	f001 f85d 	bl	80052ec <USB_ActivateEndpoint>
 8004232:	2000      	movs	r0, #0
 8004234:	5560      	strb	r0, [r4, r5]
 8004236:	bd70      	pop	{r4, r5, r6, pc}
 8004238:	2500      	movs	r5, #0
 800423a:	3151      	adds	r1, #81	@ 0x51
 800423c:	3652      	adds	r6, #82	@ 0x52
 800423e:	31ff      	adds	r1, #255	@ 0xff
 8004240:	36ff      	adds	r6, #255	@ 0xff
 8004242:	1861      	adds	r1, r4, r1
 8004244:	7035      	strb	r5, [r6, #0]
 8004246:	e7e2      	b.n	800420e <HAL_PCD_EP_Open+0x1e>

08004248 <HAL_PCD_EP_Close>:
 8004248:	2207      	movs	r2, #7
 800424a:	000b      	movs	r3, r1
 800424c:	400a      	ands	r2, r1
 800424e:	2128      	movs	r1, #40	@ 0x28
 8004250:	4351      	muls	r1, r2
 8004252:	b25b      	sxtb	r3, r3
 8004254:	b570      	push	{r4, r5, r6, lr}
 8004256:	0004      	movs	r4, r0
 8004258:	1840      	adds	r0, r0, r1
 800425a:	2b00      	cmp	r3, #0
 800425c:	da12      	bge.n	8004284 <HAL_PCD_EP_Close+0x3c>
 800425e:	2301      	movs	r3, #1
 8004260:	3110      	adds	r1, #16
 8004262:	1861      	adds	r1, r4, r1
 8004264:	7443      	strb	r3, [r0, #17]
 8004266:	25a4      	movs	r5, #164	@ 0xa4
 8004268:	700a      	strb	r2, [r1, #0]
 800426a:	00ad      	lsls	r5, r5, #2
 800426c:	5d63      	ldrb	r3, [r4, r5]
 800426e:	2002      	movs	r0, #2
 8004270:	2b01      	cmp	r3, #1
 8004272:	d006      	beq.n	8004282 <HAL_PCD_EP_Close+0x3a>
 8004274:	2301      	movs	r3, #1
 8004276:	5563      	strb	r3, [r4, r5]
 8004278:	6820      	ldr	r0, [r4, #0]
 800427a:	f001 f947 	bl	800550c <USB_DeactivateEndpoint>
 800427e:	2000      	movs	r0, #0
 8004280:	5560      	strb	r0, [r4, r5]
 8004282:	bd70      	pop	{r4, r5, r6, pc}
 8004284:	2300      	movs	r3, #0
 8004286:	3151      	adds	r1, #81	@ 0x51
 8004288:	3052      	adds	r0, #82	@ 0x52
 800428a:	31ff      	adds	r1, #255	@ 0xff
 800428c:	30ff      	adds	r0, #255	@ 0xff
 800428e:	1861      	adds	r1, r4, r1
 8004290:	7003      	strb	r3, [r0, #0]
 8004292:	e7e8      	b.n	8004266 <HAL_PCD_EP_Close+0x1e>

08004294 <HAL_PCD_EP_Receive>:
 8004294:	b5f8      	push	{r3, r4, r5, r6, r7, lr}
 8004296:	2407      	movs	r4, #7
 8004298:	4021      	ands	r1, r4
 800429a:	3421      	adds	r4, #33	@ 0x21
 800429c:	434c      	muls	r4, r1
 800429e:	1906      	adds	r6, r0, r4
 80042a0:	0037      	movs	r7, r6
 80042a2:	37fc      	adds	r7, #252	@ 0xfc
 80042a4:	66fb      	str	r3, [r7, #108]	@ 0x6c
 80042a6:	0033      	movs	r3, r6
 80042a8:	2500      	movs	r5, #0
 80042aa:	3352      	adds	r3, #82	@ 0x52
 80042ac:	3651      	adds	r6, #81	@ 0x51
 80042ae:	3451      	adds	r4, #81	@ 0x51
 80042b0:	33ff      	adds	r3, #255	@ 0xff
 80042b2:	36ff      	adds	r6, #255	@ 0xff
 80042b4:	34ff      	adds	r4, #255	@ 0xff
 80042b6:	673d      	str	r5, [r7, #112]	@ 0x70
 80042b8:	66ba      	str	r2, [r7, #104]	@ 0x68
 80042ba:	701d      	strb	r5, [r3, #0]
 80042bc:	7031      	strb	r1, [r6, #0]
 80042be:	1901      	adds	r1, r0, r4
 80042c0:	6800      	ldr	r0, [r0, #0]
 80042c2:	f001 fa21 	bl	8005708 <USB_EPStartXfer>
 80042c6:	0028      	movs	r0, r5
 80042c8:	bdf8      	pop	{r3, r4, r5, r6, r7, pc}

080042ca <HAL_PCD_EP_GetRxCount>:
 80042ca:	2307      	movs	r3, #7
 80042cc:	400b      	ands	r3, r1
 80042ce:	2128      	movs	r1, #40	@ 0x28
 80042d0:	4359      	muls	r1, r3
 80042d2:	1840      	adds	r0, r0, r1
 80042d4:	30fc      	adds	r0, #252	@ 0xfc
 80042d6:	6f00      	ldr	r0, [r0, #112]	@ 0x70
 80042d8:	4770      	bx	lr

080042da <HAL_PCD_EP_Transmit>:
 80042da:	b570      	push	{r4, r5, r6, lr}
 80042dc:	2407      	movs	r4, #7
 80042de:	4021      	ands	r1, r4
 80042e0:	3421      	adds	r4, #33	@ 0x21
 80042e2:	434c      	muls	r4, r1
 80042e4:	1906      	adds	r6, r0, r4
 80042e6:	0035      	movs	r5, r6
 80042e8:	6272      	str	r2, [r6, #36]	@ 0x24
 80042ea:	2201      	movs	r2, #1
 80042ec:	3534      	adds	r5, #52	@ 0x34
 80042ee:	62b3      	str	r3, [r6, #40]	@ 0x28
 80042f0:	702a      	strb	r2, [r5, #0]
 80042f2:	2500      	movs	r5, #0
 80042f4:	3410      	adds	r4, #16
 80042f6:	62f5      	str	r5, [r6, #44]	@ 0x2c
 80042f8:	7431      	strb	r1, [r6, #16]
 80042fa:	6333      	str	r3, [r6, #48]	@ 0x30
 80042fc:	7472      	strb	r2, [r6, #17]
 80042fe:	1901      	adds	r1, r0, r4
 8004300:	6800      	ldr	r0, [r0, #0]
 8004302:	f001 fa01 	bl	8005708 <USB_EPStartXfer>
 8004306:	0028      	movs	r0, r5
 8004308:	bd70      	pop	{r4, r5, r6, pc}

0800430a <HAL_PCD_EP_SetStall>:
 800430a:	2207      	movs	r2, #7
 800430c:	b570      	push	{r4, r5, r6, lr}
 800430e:	7903      	ldrb	r3, [r0, #4]
 8004310:	0004      	movs	r4, r0
 8004312:	400a      	ands	r2, r1
 8004314:	2001      	movs	r0, #1
 8004316:	4293      	cmp	r3, r2
 8004318:	d319      	bcc.n	800434e <HAL_PCD_EP_SetStall+0x44>
 800431a:	b248      	sxtb	r0, r1
 800431c:	2328      	movs	r3, #40	@ 0x28
 800431e:	2800      	cmp	r0, #0
 8004320:	da16      	bge.n	8004350 <HAL_PCD_EP_SetStall+0x46>
 8004322:	4353      	muls	r3, r2
 8004324:	0019      	movs	r1, r3
 8004326:	2001      	movs	r0, #1
 8004328:	3110      	adds	r1, #16
 800432a:	18e3      	adds	r3, r4, r3
 800432c:	1861      	adds	r1, r4, r1
 800432e:	7458      	strb	r0, [r3, #17]
 8004330:	2301      	movs	r3, #1
 8004332:	25a4      	movs	r5, #164	@ 0xa4
 8004334:	708b      	strb	r3, [r1, #2]
 8004336:	700a      	strb	r2, [r1, #0]
 8004338:	00ad      	lsls	r5, r5, #2
 800433a:	5d62      	ldrb	r2, [r4, r5]
 800433c:	2002      	movs	r0, #2
 800433e:	429a      	cmp	r2, r3
 8004340:	d005      	beq.n	800434e <HAL_PCD_EP_SetStall+0x44>
 8004342:	5563      	strb	r3, [r4, r5]
 8004344:	6820      	ldr	r0, [r4, #0]
 8004346:	f001 f95b 	bl	8005600 <USB_EPSetStall>
 800434a:	2000      	movs	r0, #0
 800434c:	5560      	strb	r0, [r4, r5]
 800434e:	bd70      	pop	{r4, r5, r6, pc}
 8004350:	434b      	muls	r3, r1
 8004352:	0019      	movs	r1, r3
 8004354:	2000      	movs	r0, #0
 8004356:	18e3      	adds	r3, r4, r3
 8004358:	3151      	adds	r1, #81	@ 0x51
 800435a:	3352      	adds	r3, #82	@ 0x52
 800435c:	31ff      	adds	r1, #255	@ 0xff
 800435e:	33ff      	adds	r3, #255	@ 0xff
 8004360:	1861      	adds	r1, r4, r1
 8004362:	7018      	strb	r0, [r3, #0]
 8004364:	e7e4      	b.n	8004330 <HAL_PCD_EP_SetStall+0x26>

08004366 <HAL_PCD_EP_ClrStall>:
 8004366:	000b      	movs	r3, r1
 8004368:	220f      	movs	r2, #15
 800436a:	b570      	push	{r4, r5, r6, lr}
 800436c:	7901      	ldrb	r1, [r0, #4]
 800436e:	0004      	movs	r4, r0
 8004370:	401a      	ands	r2, r3
 8004372:	2001      	movs	r0, #1
 8004374:	4291      	cmp	r1, r2
 8004376:	d31b      	bcc.n	80043b0 <HAL_PCD_EP_ClrStall+0x4a>
 8004378:	2207      	movs	r2, #7
 800437a:	2128      	movs	r1, #40	@ 0x28
 800437c:	401a      	ands	r2, r3
 800437e:	4351      	muls	r1, r2
 8004380:	b25b      	sxtb	r3, r3
 8004382:	1860      	adds	r0, r4, r1
 8004384:	2b00      	cmp	r3, #0
 8004386:	da14      	bge.n	80043b2 <HAL_PCD_EP_ClrStall+0x4c>
 8004388:	2301      	movs	r3, #1
 800438a:	3110      	adds	r1, #16
 800438c:	1861      	adds	r1, r4, r1
 800438e:	7443      	strb	r3, [r0, #17]
 8004390:	2500      	movs	r5, #0
 8004392:	26a4      	movs	r6, #164	@ 0xa4
 8004394:	708d      	strb	r5, [r1, #2]
 8004396:	700a      	strb	r2, [r1, #0]
 8004398:	00b6      	lsls	r6, r6, #2
 800439a:	5da3      	ldrb	r3, [r4, r6]
 800439c:	2002      	movs	r0, #2
 800439e:	2b01      	cmp	r3, #1
 80043a0:	d006      	beq.n	80043b0 <HAL_PCD_EP_ClrStall+0x4a>
 80043a2:	2301      	movs	r3, #1
 80043a4:	55a3      	strb	r3, [r4, r6]
 80043a6:	6820      	ldr	r0, [r4, #0]
 80043a8:	f001 f94c 	bl	8005644 <USB_EPClearStall>
 80043ac:	0028      	movs	r0, r5
 80043ae:	55a5      	strb	r5, [r4, r6]
 80043b0:	bd70      	pop	{r4, r5, r6, pc}
 80043b2:	2300      	movs	r3, #0
 80043b4:	3151      	adds	r1, #81	@ 0x51
 80043b6:	3052      	adds	r0, #82	@ 0x52
 80043b8:	31ff      	adds	r1, #255	@ 0xff
 80043ba:	30ff      	adds	r0, #255	@ 0xff
 80043bc:	1861      	adds	r1, r4, r1
 80043be:	7003      	strb	r3, [r0, #0]
 80043c0:	e7e6      	b.n	8004390 <HAL_PCD_EP_ClrStall+0x2a>

080043c2 <HAL_PCDEx_PMAConfig>:
 80043c2:	b530      	push	{r4, r5, lr}
 80043c4:	2428      	movs	r4, #40	@ 0x28
 80043c6:	060d      	lsls	r5, r1, #24
 80043c8:	d50b      	bpl.n	80043e2 <HAL_PCDEx_PMAConfig+0x20>
 80043ca:	2507      	movs	r5, #7
 80043cc:	4029      	ands	r1, r5
 80043ce:	434c      	muls	r4, r1
 80043d0:	3410      	adds	r4, #16
 80043d2:	1900      	adds	r0, r0, r4
 80043d4:	b299      	uxth	r1, r3
 80043d6:	2a00      	cmp	r2, #0
 80043d8:	d107      	bne.n	80043ea <HAL_PCDEx_PMAConfig+0x28>
 80043da:	7302      	strb	r2, [r0, #12]
 80043dc:	80c1      	strh	r1, [r0, #6]
 80043de:	2000      	movs	r0, #0
 80043e0:	bd30      	pop	{r4, r5, pc}
 80043e2:	434c      	muls	r4, r1
 80043e4:	3451      	adds	r4, #81	@ 0x51
 80043e6:	34ff      	adds	r4, #255	@ 0xff
 80043e8:	e7f3      	b.n	80043d2 <HAL_PCDEx_PMAConfig+0x10>
 80043ea:	2201      	movs	r2, #1
 80043ec:	6083      	str	r3, [r0, #8]
 80043ee:	7302      	strb	r2, [r0, #12]
 80043f0:	e7f5      	b.n	80043de <HAL_PCDEx_PMAConfig+0x1c>

080043f2 <HAL_PCDEx_ActivateLPM>:
 80043f2:	6803      	ldr	r3, [r0, #0]
 80043f4:	0002      	movs	r2, r0
 80043f6:	20b4      	movs	r0, #180	@ 0xb4
 80043f8:	2101      	movs	r1, #1
 80043fa:	b510      	push	{r4, lr}
 80043fc:	0080      	lsls	r0, r0, #2
 80043fe:	24b2      	movs	r4, #178	@ 0xb2
 8004400:	5011      	str	r1, [r2, r0]
 8004402:	2000      	movs	r0, #0
 8004404:	00a4      	lsls	r4, r4, #2
 8004406:	5510      	strb	r0, [r2, r4]
 8004408:	3354      	adds	r3, #84	@ 0x54
 800440a:	881a      	ldrh	r2, [r3, #0]
 800440c:	4311      	orrs	r1, r2
 800440e:	2202      	movs	r2, #2
 8004410:	8019      	strh	r1, [r3, #0]
 8004412:	8819      	ldrh	r1, [r3, #0]
 8004414:	430a      	orrs	r2, r1
 8004416:	801a      	strh	r2, [r3, #0]
 8004418:	bd10      	pop	{r4, pc}

0800441a <HAL_PCDEx_LPM_Callback>:
 800441a:	4770      	bx	lr

0800441c <HAL_RCC_OscConfig>:
 800441c:	b5f0      	push	{r4, r5, r6, r7, lr}
 800441e:	0004      	movs	r4, r0
 8004420:	b085      	sub	sp, #20
 8004422:	2800      	cmp	r0, #0
 8004424:	d102      	bne.n	800442c <HAL_RCC_OscConfig+0x10>
 8004426:	2001      	movs	r0, #1
 8004428:	b005      	add	sp, #20
 800442a:	bdf0      	pop	{r4, r5, r6, r7, pc}
 800442c:	6803      	ldr	r3, [r0, #0]
 800442e:	07db      	lsls	r3, r3, #31
 8004430:	d433      	bmi.n	800449a <HAL_RCC_OscConfig+0x7e>
 8004432:	6823      	ldr	r3, [r4, #0]
 8004434:	079b      	lsls	r3, r3, #30
 8004436:	d500      	bpl.n	800443a <HAL_RCC_OscConfig+0x1e>
 8004438:	e087      	b.n	800454a <HAL_RCC_OscConfig+0x12e>
 800443a:	6823      	ldr	r3, [r4, #0]
 800443c:	071b      	lsls	r3, r3, #28
 800443e:	d500      	bpl.n	8004442 <HAL_RCC_OscConfig+0x26>
 8004440:	e0c8      	b.n	80045d4 <HAL_RCC_OscConfig+0x1b8>
 8004442:	6823      	ldr	r3, [r4, #0]
 8004444:	075b      	lsls	r3, r3, #29
 8004446:	d500      	bpl.n	800444a <HAL_RCC_OscConfig+0x2e>
 8004448:	e0eb      	b.n	8004622 <HAL_RCC_OscConfig+0x206>
 800444a:	6823      	ldr	r3, [r4, #0]
 800444c:	06db      	lsls	r3, r3, #27
 800444e:	d51a      	bpl.n	8004486 <HAL_RCC_OscConfig+0x6a>
 8004450:	6962      	ldr	r2, [r4, #20]
 8004452:	2304      	movs	r3, #4
 8004454:	4db9      	ldr	r5, [pc, #740]	@ (800473c <HAL_RCC_OscConfig+0x320>)
 8004456:	2a01      	cmp	r2, #1
 8004458:	d000      	beq.n	800445c <HAL_RCC_OscConfig+0x40>
 800445a:	e154      	b.n	8004706 <HAL_RCC_OscConfig+0x2ea>
 800445c:	6b69      	ldr	r1, [r5, #52]	@ 0x34
 800445e:	2702      	movs	r7, #2
 8004460:	430b      	orrs	r3, r1
 8004462:	636b      	str	r3, [r5, #52]	@ 0x34
 8004464:	6b6b      	ldr	r3, [r5, #52]	@ 0x34
 8004466:	431a      	orrs	r2, r3
 8004468:	636a      	str	r2, [r5, #52]	@ 0x34
 800446a:	f7ff f85d 	bl	8003528 <HAL_GetTick>
 800446e:	0006      	movs	r6, r0
 8004470:	6b6b      	ldr	r3, [r5, #52]	@ 0x34
 8004472:	423b      	tst	r3, r7
 8004474:	d100      	bne.n	8004478 <HAL_RCC_OscConfig+0x5c>
 8004476:	e13f      	b.n	80046f8 <HAL_RCC_OscConfig+0x2dc>
 8004478:	21f8      	movs	r1, #248	@ 0xf8
 800447a:	6b6a      	ldr	r2, [r5, #52]	@ 0x34
 800447c:	69a3      	ldr	r3, [r4, #24]
 800447e:	438a      	bics	r2, r1
 8004480:	00db      	lsls	r3, r3, #3
 8004482:	4313      	orrs	r3, r2
 8004484:	636b      	str	r3, [r5, #52]	@ 0x34
 8004486:	6823      	ldr	r3, [r4, #0]
 8004488:	069b      	lsls	r3, r3, #26
 800448a:	d500      	bpl.n	800448e <HAL_RCC_OscConfig+0x72>
 800448c:	e162      	b.n	8004754 <HAL_RCC_OscConfig+0x338>
 800448e:	6a63      	ldr	r3, [r4, #36]	@ 0x24
 8004490:	2b00      	cmp	r3, #0
 8004492:	d000      	beq.n	8004496 <HAL_RCC_OscConfig+0x7a>
 8004494:	e1a1      	b.n	80047da <HAL_RCC_OscConfig+0x3be>
 8004496:	2000      	movs	r0, #0
 8004498:	e7c6      	b.n	8004428 <HAL_RCC_OscConfig+0xc>
 800449a:	220c      	movs	r2, #12
 800449c:	4da7      	ldr	r5, [pc, #668]	@ (800473c <HAL_RCC_OscConfig+0x320>)
 800449e:	686b      	ldr	r3, [r5, #4]
 80044a0:	4013      	ands	r3, r2
 80044a2:	2b04      	cmp	r3, #4
 80044a4:	d00b      	beq.n	80044be <HAL_RCC_OscConfig+0xa2>
 80044a6:	686b      	ldr	r3, [r5, #4]
 80044a8:	4013      	ands	r3, r2
 80044aa:	2b08      	cmp	r3, #8
 80044ac:	d10e      	bne.n	80044cc <HAL_RCC_OscConfig+0xb0>
 80044ae:	22c0      	movs	r2, #192	@ 0xc0
 80044b0:	686b      	ldr	r3, [r5, #4]
 80044b2:	0252      	lsls	r2, r2, #9
 80044b4:	4013      	ands	r3, r2
 80044b6:	2280      	movs	r2, #128	@ 0x80
 80044b8:	0252      	lsls	r2, r2, #9
 80044ba:	4293      	cmp	r3, r2
 80044bc:	d106      	bne.n	80044cc <HAL_RCC_OscConfig+0xb0>
 80044be:	682b      	ldr	r3, [r5, #0]
 80044c0:	039b      	lsls	r3, r3, #14
 80044c2:	d5b6      	bpl.n	8004432 <HAL_RCC_OscConfig+0x16>
 80044c4:	6863      	ldr	r3, [r4, #4]
 80044c6:	2b00      	cmp	r3, #0
 80044c8:	d1b3      	bne.n	8004432 <HAL_RCC_OscConfig+0x16>
 80044ca:	e7ac      	b.n	8004426 <HAL_RCC_OscConfig+0xa>
 80044cc:	6863      	ldr	r3, [r4, #4]
 80044ce:	2b01      	cmp	r3, #1
 80044d0:	d113      	bne.n	80044fa <HAL_RCC_OscConfig+0xde>
 80044d2:	2380      	movs	r3, #128	@ 0x80
 80044d4:	682a      	ldr	r2, [r5, #0]
 80044d6:	025b      	lsls	r3, r3, #9
 80044d8:	4313      	orrs	r3, r2
 80044da:	602b      	str	r3, [r5, #0]
 80044dc:	f7ff f824 	bl	8003528 <HAL_GetTick>
 80044e0:	2780      	movs	r7, #128	@ 0x80
 80044e2:	0006      	movs	r6, r0
 80044e4:	02bf      	lsls	r7, r7, #10
 80044e6:	682b      	ldr	r3, [r5, #0]
 80044e8:	423b      	tst	r3, r7
 80044ea:	d1a2      	bne.n	8004432 <HAL_RCC_OscConfig+0x16>
 80044ec:	f7ff f81c 	bl	8003528 <HAL_GetTick>
 80044f0:	1b80      	subs	r0, r0, r6
 80044f2:	2864      	cmp	r0, #100	@ 0x64
 80044f4:	d9f7      	bls.n	80044e6 <HAL_RCC_OscConfig+0xca>
 80044f6:	2003      	movs	r0, #3
 80044f8:	e796      	b.n	8004428 <HAL_RCC_OscConfig+0xc>
 80044fa:	2b00      	cmp	r3, #0
 80044fc:	d115      	bne.n	800452a <HAL_RCC_OscConfig+0x10e>
 80044fe:	682b      	ldr	r3, [r5, #0]
 8004500:	4a8f      	ldr	r2, [pc, #572]	@ (8004740 <HAL_RCC_OscConfig+0x324>)
 8004502:	2780      	movs	r7, #128	@ 0x80
 8004504:	4013      	ands	r3, r2
 8004506:	602b      	str	r3, [r5, #0]
 8004508:	682b      	ldr	r3, [r5, #0]
 800450a:	4a8e      	ldr	r2, [pc, #568]	@ (8004744 <HAL_RCC_OscConfig+0x328>)
 800450c:	02bf      	lsls	r7, r7, #10
 800450e:	4013      	ands	r3, r2
 8004510:	602b      	str	r3, [r5, #0]
 8004512:	f7ff f809 	bl	8003528 <HAL_GetTick>
 8004516:	0006      	movs	r6, r0
 8004518:	682b      	ldr	r3, [r5, #0]
 800451a:	423b      	tst	r3, r7
 800451c:	d089      	beq.n	8004432 <HAL_RCC_OscConfig+0x16>
 800451e:	f7ff f803 	bl	8003528 <HAL_GetTick>
 8004522:	1b80      	subs	r0, r0, r6
 8004524:	2864      	cmp	r0, #100	@ 0x64
 8004526:	d9f7      	bls.n	8004518 <HAL_RCC_OscConfig+0xfc>
 8004528:	e7e5      	b.n	80044f6 <HAL_RCC_OscConfig+0xda>
 800452a:	2b05      	cmp	r3, #5
 800452c:	d105      	bne.n	800453a <HAL_RCC_OscConfig+0x11e>
 800452e:	2380      	movs	r3, #128	@ 0x80
 8004530:	682a      	ldr	r2, [r5, #0]
 8004532:	02db      	lsls	r3, r3, #11
 8004534:	4313      	orrs	r3, r2
 8004536:	602b      	str	r3, [r5, #0]
 8004538:	e7cb      	b.n	80044d2 <HAL_RCC_OscConfig+0xb6>
 800453a:	682b      	ldr	r3, [r5, #0]
 800453c:	4a80      	ldr	r2, [pc, #512]	@ (8004740 <HAL_RCC_OscConfig+0x324>)
 800453e:	4013      	ands	r3, r2
 8004540:	602b      	str	r3, [r5, #0]
 8004542:	682b      	ldr	r3, [r5, #0]
 8004544:	4a7f      	ldr	r2, [pc, #508]	@ (8004744 <HAL_RCC_OscConfig+0x328>)
 8004546:	4013      	ands	r3, r2
 8004548:	e7c7      	b.n	80044da <HAL_RCC_OscConfig+0xbe>
 800454a:	220c      	movs	r2, #12
 800454c:	4d7b      	ldr	r5, [pc, #492]	@ (800473c <HAL_RCC_OscConfig+0x320>)
 800454e:	686b      	ldr	r3, [r5, #4]
 8004550:	4213      	tst	r3, r2
 8004552:	d00b      	beq.n	800456c <HAL_RCC_OscConfig+0x150>
 8004554:	686b      	ldr	r3, [r5, #4]
 8004556:	4013      	ands	r3, r2
 8004558:	2b08      	cmp	r3, #8
 800455a:	d116      	bne.n	800458a <HAL_RCC_OscConfig+0x16e>
 800455c:	22c0      	movs	r2, #192	@ 0xc0
 800455e:	686b      	ldr	r3, [r5, #4]
 8004560:	0252      	lsls	r2, r2, #9
 8004562:	4013      	ands	r3, r2
 8004564:	2280      	movs	r2, #128	@ 0x80
 8004566:	0212      	lsls	r2, r2, #8
 8004568:	4293      	cmp	r3, r2
 800456a:	d10e      	bne.n	800458a <HAL_RCC_OscConfig+0x16e>
 800456c:	682b      	ldr	r3, [r5, #0]
 800456e:	079b      	lsls	r3, r3, #30
 8004570:	d503      	bpl.n	800457a <HAL_RCC_OscConfig+0x15e>
 8004572:	68e3      	ldr	r3, [r4, #12]
 8004574:	2b01      	cmp	r3, #1
 8004576:	d000      	beq.n	800457a <HAL_RCC_OscConfig+0x15e>
 8004578:	e755      	b.n	8004426 <HAL_RCC_OscConfig+0xa>
 800457a:	21f8      	movs	r1, #248	@ 0xf8
 800457c:	682a      	ldr	r2, [r5, #0]
 800457e:	6923      	ldr	r3, [r4, #16]
 8004580:	438a      	bics	r2, r1
 8004582:	00db      	lsls	r3, r3, #3
 8004584:	4313      	orrs	r3, r2
 8004586:	602b      	str	r3, [r5, #0]
 8004588:	e757      	b.n	800443a <HAL_RCC_OscConfig+0x1e>
 800458a:	68e2      	ldr	r2, [r4, #12]
 800458c:	2301      	movs	r3, #1
 800458e:	2a00      	cmp	r2, #0
 8004590:	d00f      	beq.n	80045b2 <HAL_RCC_OscConfig+0x196>
 8004592:	682a      	ldr	r2, [r5, #0]
 8004594:	2702      	movs	r7, #2
 8004596:	4313      	orrs	r3, r2
 8004598:	602b      	str	r3, [r5, #0]
 800459a:	f7fe ffc5 	bl	8003528 <HAL_GetTick>
 800459e:	0006      	movs	r6, r0
 80045a0:	682b      	ldr	r3, [r5, #0]
 80045a2:	423b      	tst	r3, r7
 80045a4:	d1e9      	bne.n	800457a <HAL_RCC_OscConfig+0x15e>
 80045a6:	f7fe ffbf 	bl	8003528 <HAL_GetTick>
 80045aa:	1b80      	subs	r0, r0, r6
 80045ac:	2802      	cmp	r0, #2
 80045ae:	d9f7      	bls.n	80045a0 <HAL_RCC_OscConfig+0x184>
 80045b0:	e7a1      	b.n	80044f6 <HAL_RCC_OscConfig+0xda>
 80045b2:	682a      	ldr	r2, [r5, #0]
 80045b4:	2702      	movs	r7, #2
 80045b6:	439a      	bics	r2, r3
 80045b8:	602a      	str	r2, [r5, #0]
 80045ba:	f7fe ffb5 	bl	8003528 <HAL_GetTick>
 80045be:	0006      	movs	r6, r0
 80045c0:	682b      	ldr	r3, [r5, #0]
 80045c2:	423b      	tst	r3, r7
 80045c4:	d100      	bne.n	80045c8 <HAL_RCC_OscConfig+0x1ac>
 80045c6:	e738      	b.n	800443a <HAL_RCC_OscConfig+0x1e>
 80045c8:	f7fe ffae 	bl	8003528 <HAL_GetTick>
 80045cc:	1b80      	subs	r0, r0, r6
 80045ce:	2802      	cmp	r0, #2
 80045d0:	d9f6      	bls.n	80045c0 <HAL_RCC_OscConfig+0x1a4>
 80045d2:	e790      	b.n	80044f6 <HAL_RCC_OscConfig+0xda>
 80045d4:	69e2      	ldr	r2, [r4, #28]
 80045d6:	2301      	movs	r3, #1
 80045d8:	4d58      	ldr	r5, [pc, #352]	@ (800473c <HAL_RCC_OscConfig+0x320>)
 80045da:	2a00      	cmp	r2, #0
 80045dc:	d010      	beq.n	8004600 <HAL_RCC_OscConfig+0x1e4>
 80045de:	6a6a      	ldr	r2, [r5, #36]	@ 0x24
 80045e0:	2702      	movs	r7, #2
 80045e2:	4313      	orrs	r3, r2
 80045e4:	626b      	str	r3, [r5, #36]	@ 0x24
 80045e6:	f7fe ff9f 	bl	8003528 <HAL_GetTick>
 80045ea:	0006      	movs	r6, r0
 80045ec:	6a6b      	ldr	r3, [r5, #36]	@ 0x24
 80045ee:	423b      	tst	r3, r7
 80045f0:	d000      	beq.n	80045f4 <HAL_RCC_OscConfig+0x1d8>
 80045f2:	e726      	b.n	8004442 <HAL_RCC_OscConfig+0x26>
 80045f4:	f7fe ff98 	bl	8003528 <HAL_GetTick>
 80045f8:	1b80      	subs	r0, r0, r6
 80045fa:	2802      	cmp	r0, #2
 80045fc:	d9f6      	bls.n	80045ec <HAL_RCC_OscConfig+0x1d0>
 80045fe:	e77a      	b.n	80044f6 <HAL_RCC_OscConfig+0xda>
 8004600:	6a6a      	ldr	r2, [r5, #36]	@ 0x24
 8004602:	2702      	movs	r7, #2
 8004604:	439a      	bics	r2, r3
 8004606:	626a      	str	r2, [r5, #36]	@ 0x24
 8004608:	f7fe ff8e 	bl	8003528 <HAL_GetTick>
 800460c:	0006      	movs	r6, r0
 800460e:	6a6b      	ldr	r3, [r5, #36]	@ 0x24
 8004610:	423b      	tst	r3, r7
 8004612:	d100      	bne.n	8004616 <HAL_RCC_OscConfig+0x1fa>
 8004614:	e715      	b.n	8004442 <HAL_RCC_OscConfig+0x26>
 8004616:	f7fe ff87 	bl	8003528 <HAL_GetTick>
 800461a:	1b80      	subs	r0, r0, r6
 800461c:	2802      	cmp	r0, #2
 800461e:	d9f6      	bls.n	800460e <HAL_RCC_OscConfig+0x1f2>
 8004620:	e769      	b.n	80044f6 <HAL_RCC_OscConfig+0xda>
 8004622:	2280      	movs	r2, #128	@ 0x80
 8004624:	2100      	movs	r1, #0
 8004626:	4d45      	ldr	r5, [pc, #276]	@ (800473c <HAL_RCC_OscConfig+0x320>)
 8004628:	0552      	lsls	r2, r2, #21
 800462a:	69eb      	ldr	r3, [r5, #28]
 800462c:	9100      	str	r1, [sp, #0]
 800462e:	4213      	tst	r3, r2
 8004630:	d108      	bne.n	8004644 <HAL_RCC_OscConfig+0x228>
 8004632:	69eb      	ldr	r3, [r5, #28]
 8004634:	4313      	orrs	r3, r2
 8004636:	61eb      	str	r3, [r5, #28]
 8004638:	69eb      	ldr	r3, [r5, #28]
 800463a:	4013      	ands	r3, r2
 800463c:	9303      	str	r3, [sp, #12]
 800463e:	9b03      	ldr	r3, [sp, #12]
 8004640:	2301      	movs	r3, #1
 8004642:	9300      	str	r3, [sp, #0]
 8004644:	2780      	movs	r7, #128	@ 0x80
 8004646:	4e40      	ldr	r6, [pc, #256]	@ (8004748 <HAL_RCC_OscConfig+0x32c>)
 8004648:	007f      	lsls	r7, r7, #1
 800464a:	6833      	ldr	r3, [r6, #0]
 800464c:	423b      	tst	r3, r7
 800464e:	d015      	beq.n	800467c <HAL_RCC_OscConfig+0x260>
 8004650:	68a3      	ldr	r3, [r4, #8]
 8004652:	2b01      	cmp	r3, #1
 8004654:	d122      	bne.n	800469c <HAL_RCC_OscConfig+0x280>
 8004656:	6a2a      	ldr	r2, [r5, #32]
 8004658:	4313      	orrs	r3, r2
 800465a:	622b      	str	r3, [r5, #32]
 800465c:	f7fe ff64 	bl	8003528 <HAL_GetTick>
 8004660:	2702      	movs	r7, #2
 8004662:	0006      	movs	r6, r0
 8004664:	6a2b      	ldr	r3, [r5, #32]
 8004666:	423b      	tst	r3, r7
 8004668:	d03f      	beq.n	80046ea <HAL_RCC_OscConfig+0x2ce>
 800466a:	9b00      	ldr	r3, [sp, #0]
 800466c:	2b01      	cmp	r3, #1
 800466e:	d000      	beq.n	8004672 <HAL_RCC_OscConfig+0x256>
 8004670:	e6eb      	b.n	800444a <HAL_RCC_OscConfig+0x2e>
 8004672:	69eb      	ldr	r3, [r5, #28]
 8004674:	4a35      	ldr	r2, [pc, #212]	@ (800474c <HAL_RCC_OscConfig+0x330>)
 8004676:	4013      	ands	r3, r2
 8004678:	61eb      	str	r3, [r5, #28]
 800467a:	e6e6      	b.n	800444a <HAL_RCC_OscConfig+0x2e>
 800467c:	6833      	ldr	r3, [r6, #0]
 800467e:	433b      	orrs	r3, r7
 8004680:	6033      	str	r3, [r6, #0]
 8004682:	f7fe ff51 	bl	8003528 <HAL_GetTick>
 8004686:	9001      	str	r0, [sp, #4]
 8004688:	6833      	ldr	r3, [r6, #0]
 800468a:	423b      	tst	r3, r7
 800468c:	d1e0      	bne.n	8004650 <HAL_RCC_OscConfig+0x234>
 800468e:	f7fe ff4b 	bl	8003528 <HAL_GetTick>
 8004692:	9b01      	ldr	r3, [sp, #4]
 8004694:	1ac0      	subs	r0, r0, r3
 8004696:	2864      	cmp	r0, #100	@ 0x64
 8004698:	d9f6      	bls.n	8004688 <HAL_RCC_OscConfig+0x26c>
 800469a:	e72c      	b.n	80044f6 <HAL_RCC_OscConfig+0xda>
 800469c:	2201      	movs	r2, #1
 800469e:	2b00      	cmp	r3, #0
 80046a0:	d114      	bne.n	80046cc <HAL_RCC_OscConfig+0x2b0>
 80046a2:	6a2b      	ldr	r3, [r5, #32]
 80046a4:	2702      	movs	r7, #2
 80046a6:	4393      	bics	r3, r2
 80046a8:	622b      	str	r3, [r5, #32]
 80046aa:	6a2b      	ldr	r3, [r5, #32]
 80046ac:	3203      	adds	r2, #3
 80046ae:	4393      	bics	r3, r2
 80046b0:	622b      	str	r3, [r5, #32]
 80046b2:	f7fe ff39 	bl	8003528 <HAL_GetTick>
 80046b6:	0006      	movs	r6, r0
 80046b8:	6a2b      	ldr	r3, [r5, #32]
 80046ba:	423b      	tst	r3, r7
 80046bc:	d0d5      	beq.n	800466a <HAL_RCC_OscConfig+0x24e>
 80046be:	f7fe ff33 	bl	8003528 <HAL_GetTick>
 80046c2:	4b23      	ldr	r3, [pc, #140]	@ (8004750 <HAL_RCC_OscConfig+0x334>)
 80046c4:	1b80      	subs	r0, r0, r6
 80046c6:	4298      	cmp	r0, r3
 80046c8:	d9f6      	bls.n	80046b8 <HAL_RCC_OscConfig+0x29c>
 80046ca:	e714      	b.n	80044f6 <HAL_RCC_OscConfig+0xda>
 80046cc:	2b05      	cmp	r3, #5
 80046ce:	d105      	bne.n	80046dc <HAL_RCC_OscConfig+0x2c0>
 80046d0:	6a29      	ldr	r1, [r5, #32]
 80046d2:	3b01      	subs	r3, #1
 80046d4:	430b      	orrs	r3, r1
 80046d6:	622b      	str	r3, [r5, #32]
 80046d8:	6a2b      	ldr	r3, [r5, #32]
 80046da:	e7bd      	b.n	8004658 <HAL_RCC_OscConfig+0x23c>
 80046dc:	6a2b      	ldr	r3, [r5, #32]
 80046de:	4393      	bics	r3, r2
 80046e0:	2204      	movs	r2, #4
 80046e2:	622b      	str	r3, [r5, #32]
 80046e4:	6a2b      	ldr	r3, [r5, #32]
 80046e6:	4393      	bics	r3, r2
 80046e8:	e7b7      	b.n	800465a <HAL_RCC_OscConfig+0x23e>
 80046ea:	f7fe ff1d 	bl	8003528 <HAL_GetTick>
 80046ee:	4b18      	ldr	r3, [pc, #96]	@ (8004750 <HAL_RCC_OscConfig+0x334>)
 80046f0:	1b80      	subs	r0, r0, r6
 80046f2:	4298      	cmp	r0, r3
 80046f4:	d9b6      	bls.n	8004664 <HAL_RCC_OscConfig+0x248>
 80046f6:	e6fe      	b.n	80044f6 <HAL_RCC_OscConfig+0xda>
 80046f8:	f7fe ff16 	bl	8003528 <HAL_GetTick>
 80046fc:	1b80      	subs	r0, r0, r6
 80046fe:	2802      	cmp	r0, #2
 8004700:	d800      	bhi.n	8004704 <HAL_RCC_OscConfig+0x2e8>
 8004702:	e6b5      	b.n	8004470 <HAL_RCC_OscConfig+0x54>
 8004704:	e6f7      	b.n	80044f6 <HAL_RCC_OscConfig+0xda>
 8004706:	3205      	adds	r2, #5
 8004708:	d103      	bne.n	8004712 <HAL_RCC_OscConfig+0x2f6>
 800470a:	6b6a      	ldr	r2, [r5, #52]	@ 0x34
 800470c:	439a      	bics	r2, r3
 800470e:	636a      	str	r2, [r5, #52]	@ 0x34
 8004710:	e6b2      	b.n	8004478 <HAL_RCC_OscConfig+0x5c>
 8004712:	6b6a      	ldr	r2, [r5, #52]	@ 0x34
 8004714:	2702      	movs	r7, #2
 8004716:	4313      	orrs	r3, r2
 8004718:	2201      	movs	r2, #1
 800471a:	636b      	str	r3, [r5, #52]	@ 0x34
 800471c:	6b6b      	ldr	r3, [r5, #52]	@ 0x34
 800471e:	4393      	bics	r3, r2
 8004720:	636b      	str	r3, [r5, #52]	@ 0x34
 8004722:	f7fe ff01 	bl	8003528 <HAL_GetTick>
 8004726:	0006      	movs	r6, r0
 8004728:	6b6b      	ldr	r3, [r5, #52]	@ 0x34
 800472a:	423b      	tst	r3, r7
 800472c:	d100      	bne.n	8004730 <HAL_RCC_OscConfig+0x314>
 800472e:	e6aa      	b.n	8004486 <HAL_RCC_OscConfig+0x6a>
 8004730:	f7fe fefa 	bl	8003528 <HAL_GetTick>
 8004734:	1b80      	subs	r0, r0, r6
 8004736:	2802      	cmp	r0, #2
 8004738:	d9f6      	bls.n	8004728 <HAL_RCC_OscConfig+0x30c>
 800473a:	e6dc      	b.n	80044f6 <HAL_RCC_OscConfig+0xda>
 800473c:	40021000 	.word	0x40021000
 8004740:	fffeffff 	.word	0xfffeffff
 8004744:	fffbffff 	.word	0xfffbffff
 8004748:	40007000 	.word	0x40007000
 800474c:	efffffff 	.word	0xefffffff
 8004750:	00001388 	.word	0x00001388
 8004754:	220c      	movs	r2, #12
 8004756:	4d55      	ldr	r5, [pc, #340]	@ (80048ac <HAL_RCC_OscConfig+0x490>)
 8004758:	686b      	ldr	r3, [r5, #4]
 800475a:	4013      	ands	r3, r2
 800475c:	4293      	cmp	r3, r2
 800475e:	d009      	beq.n	8004774 <HAL_RCC_OscConfig+0x358>
 8004760:	686b      	ldr	r3, [r5, #4]
 8004762:	4013      	ands	r3, r2
 8004764:	2b08      	cmp	r3, #8
 8004766:	d10e      	bne.n	8004786 <HAL_RCC_OscConfig+0x36a>
 8004768:	22c0      	movs	r2, #192	@ 0xc0
 800476a:	686b      	ldr	r3, [r5, #4]
 800476c:	0252      	lsls	r2, r2, #9
 800476e:	4013      	ands	r3, r2
 8004770:	4293      	cmp	r3, r2
 8004772:	d108      	bne.n	8004786 <HAL_RCC_OscConfig+0x36a>
 8004774:	6b6b      	ldr	r3, [r5, #52]	@ 0x34
 8004776:	039b      	lsls	r3, r3, #14
 8004778:	d400      	bmi.n	800477c <HAL_RCC_OscConfig+0x360>
 800477a:	e688      	b.n	800448e <HAL_RCC_OscConfig+0x72>
 800477c:	6a23      	ldr	r3, [r4, #32]
 800477e:	2b01      	cmp	r3, #1
 8004780:	d000      	beq.n	8004784 <HAL_RCC_OscConfig+0x368>
 8004782:	e650      	b.n	8004426 <HAL_RCC_OscConfig+0xa>
 8004784:	e683      	b.n	800448e <HAL_RCC_OscConfig+0x72>
 8004786:	6a23      	ldr	r3, [r4, #32]
 8004788:	2b00      	cmp	r3, #0
 800478a:	d013      	beq.n	80047b4 <HAL_RCC_OscConfig+0x398>
 800478c:	2380      	movs	r3, #128	@ 0x80
 800478e:	6b6a      	ldr	r2, [r5, #52]	@ 0x34
 8004790:	025b      	lsls	r3, r3, #9
 8004792:	4313      	orrs	r3, r2
 8004794:	636b      	str	r3, [r5, #52]	@ 0x34
 8004796:	f7fe fec7 	bl	8003528 <HAL_GetTick>
 800479a:	2780      	movs	r7, #128	@ 0x80
 800479c:	0006      	movs	r6, r0
 800479e:	02bf      	lsls	r7, r7, #10
 80047a0:	6b6b      	ldr	r3, [r5, #52]	@ 0x34
 80047a2:	423b      	tst	r3, r7
 80047a4:	d000      	beq.n	80047a8 <HAL_RCC_OscConfig+0x38c>
 80047a6:	e672      	b.n	800448e <HAL_RCC_OscConfig+0x72>
 80047a8:	f7fe febe 	bl	8003528 <HAL_GetTick>
 80047ac:	1b80      	subs	r0, r0, r6
 80047ae:	2802      	cmp	r0, #2
 80047b0:	d9f6      	bls.n	80047a0 <HAL_RCC_OscConfig+0x384>
 80047b2:	e6a0      	b.n	80044f6 <HAL_RCC_OscConfig+0xda>
 80047b4:	6b6b      	ldr	r3, [r5, #52]	@ 0x34
 80047b6:	4a3e      	ldr	r2, [pc, #248]	@ (80048b0 <HAL_RCC_OscConfig+0x494>)
 80047b8:	2780      	movs	r7, #128	@ 0x80
 80047ba:	4013      	ands	r3, r2
 80047bc:	636b      	str	r3, [r5, #52]	@ 0x34
 80047be:	f7fe feb3 	bl	8003528 <HAL_GetTick>
 80047c2:	0006      	movs	r6, r0
 80047c4:	02bf      	lsls	r7, r7, #10
 80047c6:	6b6b      	ldr	r3, [r5, #52]	@ 0x34
 80047c8:	423b      	tst	r3, r7
 80047ca:	d100      	bne.n	80047ce <HAL_RCC_OscConfig+0x3b2>
 80047cc:	e65f      	b.n	800448e <HAL_RCC_OscConfig+0x72>
 80047ce:	f7fe feab 	bl	8003528 <HAL_GetTick>
 80047d2:	1b80      	subs	r0, r0, r6
 80047d4:	2802      	cmp	r0, #2
 80047d6:	d9f6      	bls.n	80047c6 <HAL_RCC_OscConfig+0x3aa>
 80047d8:	e68d      	b.n	80044f6 <HAL_RCC_OscConfig+0xda>
 80047da:	210c      	movs	r1, #12
 80047dc:	4d33      	ldr	r5, [pc, #204]	@ (80048ac <HAL_RCC_OscConfig+0x490>)
 80047de:	686a      	ldr	r2, [r5, #4]
 80047e0:	400a      	ands	r2, r1
 80047e2:	2a08      	cmp	r2, #8
 80047e4:	d047      	beq.n	8004876 <HAL_RCC_OscConfig+0x45a>
 80047e6:	4a33      	ldr	r2, [pc, #204]	@ (80048b4 <HAL_RCC_OscConfig+0x498>)
 80047e8:	2b02      	cmp	r3, #2
 80047ea:	d132      	bne.n	8004852 <HAL_RCC_OscConfig+0x436>
 80047ec:	682b      	ldr	r3, [r5, #0]
 80047ee:	2780      	movs	r7, #128	@ 0x80
 80047f0:	4013      	ands	r3, r2
 80047f2:	602b      	str	r3, [r5, #0]
 80047f4:	f7fe fe98 	bl	8003528 <HAL_GetTick>
 80047f8:	0006      	movs	r6, r0
 80047fa:	04bf      	lsls	r7, r7, #18
 80047fc:	682b      	ldr	r3, [r5, #0]
 80047fe:	423b      	tst	r3, r7
 8004800:	d121      	bne.n	8004846 <HAL_RCC_OscConfig+0x42a>
 8004802:	220f      	movs	r2, #15
 8004804:	6aeb      	ldr	r3, [r5, #44]	@ 0x2c
 8004806:	2680      	movs	r6, #128	@ 0x80
 8004808:	4393      	bics	r3, r2
 800480a:	6b22      	ldr	r2, [r4, #48]	@ 0x30
 800480c:	04b6      	lsls	r6, r6, #18
 800480e:	4313      	orrs	r3, r2
 8004810:	62eb      	str	r3, [r5, #44]	@ 0x2c
 8004812:	6aa1      	ldr	r1, [r4, #40]	@ 0x28
 8004814:	6ae3      	ldr	r3, [r4, #44]	@ 0x2c
 8004816:	686a      	ldr	r2, [r5, #4]
 8004818:	430b      	orrs	r3, r1
 800481a:	4927      	ldr	r1, [pc, #156]	@ (80048b8 <HAL_RCC_OscConfig+0x49c>)
 800481c:	400a      	ands	r2, r1
 800481e:	4313      	orrs	r3, r2
 8004820:	606b      	str	r3, [r5, #4]
 8004822:	2380      	movs	r3, #128	@ 0x80
 8004824:	682a      	ldr	r2, [r5, #0]
 8004826:	045b      	lsls	r3, r3, #17
 8004828:	4313      	orrs	r3, r2
 800482a:	602b      	str	r3, [r5, #0]
 800482c:	f7fe fe7c 	bl	8003528 <HAL_GetTick>
 8004830:	0004      	movs	r4, r0
 8004832:	682b      	ldr	r3, [r5, #0]
 8004834:	4233      	tst	r3, r6
 8004836:	d000      	beq.n	800483a <HAL_RCC_OscConfig+0x41e>
 8004838:	e62d      	b.n	8004496 <HAL_RCC_OscConfig+0x7a>
 800483a:	f7fe fe75 	bl	8003528 <HAL_GetTick>
 800483e:	1b00      	subs	r0, r0, r4
 8004840:	2802      	cmp	r0, #2
 8004842:	d9f6      	bls.n	8004832 <HAL_RCC_OscConfig+0x416>
 8004844:	e657      	b.n	80044f6 <HAL_RCC_OscConfig+0xda>
 8004846:	f7fe fe6f 	bl	8003528 <HAL_GetTick>
 800484a:	1b80      	subs	r0, r0, r6
 800484c:	2802      	cmp	r0, #2
 800484e:	d9d5      	bls.n	80047fc <HAL_RCC_OscConfig+0x3e0>
 8004850:	e651      	b.n	80044f6 <HAL_RCC_OscConfig+0xda>
 8004852:	682b      	ldr	r3, [r5, #0]
 8004854:	2680      	movs	r6, #128	@ 0x80
 8004856:	4013      	ands	r3, r2
 8004858:	602b      	str	r3, [r5, #0]
 800485a:	f7fe fe65 	bl	8003528 <HAL_GetTick>
 800485e:	0004      	movs	r4, r0
 8004860:	04b6      	lsls	r6, r6, #18
 8004862:	682b      	ldr	r3, [r5, #0]
 8004864:	4233      	tst	r3, r6
 8004866:	d100      	bne.n	800486a <HAL_RCC_OscConfig+0x44e>
 8004868:	e615      	b.n	8004496 <HAL_RCC_OscConfig+0x7a>
 800486a:	f7fe fe5d 	bl	8003528 <HAL_GetTick>
 800486e:	1b00      	subs	r0, r0, r4
 8004870:	2802      	cmp	r0, #2
 8004872:	d9f6      	bls.n	8004862 <HAL_RCC_OscConfig+0x446>
 8004874:	e63f      	b.n	80044f6 <HAL_RCC_OscConfig+0xda>
 8004876:	2b01      	cmp	r3, #1
 8004878:	d100      	bne.n	800487c <HAL_RCC_OscConfig+0x460>
 800487a:	e5d4      	b.n	8004426 <HAL_RCC_OscConfig+0xa>
 800487c:	22c0      	movs	r2, #192	@ 0xc0
 800487e:	6868      	ldr	r0, [r5, #4]
 8004880:	6aa1      	ldr	r1, [r4, #40]	@ 0x28
 8004882:	0252      	lsls	r2, r2, #9
 8004884:	6aeb      	ldr	r3, [r5, #44]	@ 0x2c
 8004886:	4002      	ands	r2, r0
 8004888:	428a      	cmp	r2, r1
 800488a:	d000      	beq.n	800488e <HAL_RCC_OscConfig+0x472>
 800488c:	e5cb      	b.n	8004426 <HAL_RCC_OscConfig+0xa>
 800488e:	220f      	movs	r2, #15
 8004890:	4013      	ands	r3, r2
 8004892:	6b22      	ldr	r2, [r4, #48]	@ 0x30
 8004894:	4293      	cmp	r3, r2
 8004896:	d000      	beq.n	800489a <HAL_RCC_OscConfig+0x47e>
 8004898:	e5c5      	b.n	8004426 <HAL_RCC_OscConfig+0xa>
 800489a:	23f0      	movs	r3, #240	@ 0xf0
 800489c:	039b      	lsls	r3, r3, #14
 800489e:	4018      	ands	r0, r3
 80048a0:	6ae3      	ldr	r3, [r4, #44]	@ 0x2c
 80048a2:	1ac0      	subs	r0, r0, r3
 80048a4:	1e43      	subs	r3, r0, #1
 80048a6:	4198      	sbcs	r0, r3
 80048a8:	b2c0      	uxtb	r0, r0
 80048aa:	e5bd      	b.n	8004428 <HAL_RCC_OscConfig+0xc>
 80048ac:	40021000 	.word	0x40021000
 80048b0:	fffeffff 	.word	0xfffeffff
 80048b4:	feffffff 	.word	0xfeffffff
 80048b8:	ffc27fff 	.word	0xffc27fff

080048bc <HAL_RCC_GetSysClockFreq>:
 80048bc:	200c      	movs	r0, #12
 80048be:	b570      	push	{r4, r5, r6, lr}
 80048c0:	4d13      	ldr	r5, [pc, #76]	@ (8004910 <HAL_RCC_GetSysClockFreq+0x54>)
 80048c2:	686b      	ldr	r3, [r5, #4]
 80048c4:	4018      	ands	r0, r3
 80048c6:	2808      	cmp	r0, #8
 80048c8:	d008      	beq.n	80048dc <HAL_RCC_GetSysClockFreq+0x20>
 80048ca:	380c      	subs	r0, #12
 80048cc:	4243      	negs	r3, r0
 80048ce:	4158      	adcs	r0, r3
 80048d0:	4b10      	ldr	r3, [pc, #64]	@ (8004914 <HAL_RCC_GetSysClockFreq+0x58>)
 80048d2:	4240      	negs	r0, r0
 80048d4:	4018      	ands	r0, r3
 80048d6:	4b10      	ldr	r3, [pc, #64]	@ (8004918 <HAL_RCC_GetSysClockFreq+0x5c>)
 80048d8:	18c0      	adds	r0, r0, r3
 80048da:	bd70      	pop	{r4, r5, r6, pc}
 80048dc:	200f      	movs	r0, #15
 80048de:	490f      	ldr	r1, [pc, #60]	@ (800491c <HAL_RCC_GetSysClockFreq+0x60>)
 80048e0:	0c9a      	lsrs	r2, r3, #18
 80048e2:	4002      	ands	r2, r0
 80048e4:	5c8c      	ldrb	r4, [r1, r2]
 80048e6:	6aea      	ldr	r2, [r5, #44]	@ 0x2c
 80048e8:	490d      	ldr	r1, [pc, #52]	@ (8004920 <HAL_RCC_GetSysClockFreq+0x64>)
 80048ea:	4002      	ands	r2, r0
 80048ec:	5c89      	ldrb	r1, [r1, r2]
 80048ee:	22c0      	movs	r2, #192	@ 0xc0
 80048f0:	2080      	movs	r0, #128	@ 0x80
 80048f2:	0252      	lsls	r2, r2, #9
 80048f4:	4013      	ands	r3, r2
 80048f6:	0240      	lsls	r0, r0, #9
 80048f8:	4283      	cmp	r3, r0
 80048fa:	d101      	bne.n	8004900 <HAL_RCC_GetSysClockFreq+0x44>
 80048fc:	4806      	ldr	r0, [pc, #24]	@ (8004918 <HAL_RCC_GetSysClockFreq+0x5c>)
 80048fe:	e002      	b.n	8004906 <HAL_RCC_GetSysClockFreq+0x4a>
 8004900:	4293      	cmp	r3, r2
 8004902:	d1fb      	bne.n	80048fc <HAL_RCC_GetSysClockFreq+0x40>
 8004904:	4807      	ldr	r0, [pc, #28]	@ (8004924 <HAL_RCC_GetSysClockFreq+0x68>)
 8004906:	f7fb fc25 	bl	8000154 <__udivsi3>
 800490a:	4360      	muls	r0, r4
 800490c:	e7e5      	b.n	80048da <HAL_RCC_GetSysClockFreq+0x1e>
 800490e:	46c0      	nop			@ (mov r8, r8)
 8004910:	40021000 	.word	0x40021000
 8004914:	02625a00 	.word	0x02625a00
 8004918:	007a1200 	.word	0x007a1200
 800491c:	08006bab 	.word	0x08006bab
 8004920:	08006b9b 	.word	0x08006b9b
 8004924:	02dc6c00 	.word	0x02dc6c00

08004928 <HAL_RCC_ClockConfig>:
 8004928:	b5f7      	push	{r0, r1, r2, r4, r5, r6, r7, lr}
 800492a:	0004      	movs	r4, r0
 800492c:	000f      	movs	r7, r1
 800492e:	2800      	cmp	r0, #0
 8004930:	d101      	bne.n	8004936 <HAL_RCC_ClockConfig+0xe>
 8004932:	2001      	movs	r0, #1
 8004934:	bdfe      	pop	{r1, r2, r3, r4, r5, r6, r7, pc}
 8004936:	2201      	movs	r2, #1
 8004938:	4d3a      	ldr	r5, [pc, #232]	@ (8004a24 <HAL_RCC_ClockConfig+0xfc>)
 800493a:	682b      	ldr	r3, [r5, #0]
 800493c:	4013      	ands	r3, r2
 800493e:	428b      	cmp	r3, r1
 8004940:	d31c      	bcc.n	800497c <HAL_RCC_ClockConfig+0x54>
 8004942:	6822      	ldr	r2, [r4, #0]
 8004944:	0793      	lsls	r3, r2, #30
 8004946:	d422      	bmi.n	800498e <HAL_RCC_ClockConfig+0x66>
 8004948:	07d2      	lsls	r2, r2, #31
 800494a:	d42f      	bmi.n	80049ac <HAL_RCC_ClockConfig+0x84>
 800494c:	2301      	movs	r3, #1
 800494e:	682a      	ldr	r2, [r5, #0]
 8004950:	401a      	ands	r2, r3
 8004952:	42ba      	cmp	r2, r7
 8004954:	d857      	bhi.n	8004a06 <HAL_RCC_ClockConfig+0xde>
 8004956:	6823      	ldr	r3, [r4, #0]
 8004958:	4d33      	ldr	r5, [pc, #204]	@ (8004a28 <HAL_RCC_ClockConfig+0x100>)
 800495a:	075b      	lsls	r3, r3, #29
 800495c:	d45a      	bmi.n	8004a14 <HAL_RCC_ClockConfig+0xec>
 800495e:	f7ff ffad 	bl	80048bc <HAL_RCC_GetSysClockFreq>
 8004962:	686b      	ldr	r3, [r5, #4]
 8004964:	4a31      	ldr	r2, [pc, #196]	@ (8004a2c <HAL_RCC_ClockConfig+0x104>)
 8004966:	061b      	lsls	r3, r3, #24
 8004968:	0f1b      	lsrs	r3, r3, #28
 800496a:	5cd3      	ldrb	r3, [r2, r3]
 800496c:	4930      	ldr	r1, [pc, #192]	@ (8004a30 <HAL_RCC_ClockConfig+0x108>)
 800496e:	40d8      	lsrs	r0, r3
 8004970:	6008      	str	r0, [r1, #0]
 8004972:	2003      	movs	r0, #3
 8004974:	f7fe fd98 	bl	80034a8 <HAL_InitTick>
 8004978:	2000      	movs	r0, #0
 800497a:	e7db      	b.n	8004934 <HAL_RCC_ClockConfig+0xc>
 800497c:	682b      	ldr	r3, [r5, #0]
 800497e:	4393      	bics	r3, r2
 8004980:	430b      	orrs	r3, r1
 8004982:	602b      	str	r3, [r5, #0]
 8004984:	682b      	ldr	r3, [r5, #0]
 8004986:	4013      	ands	r3, r2
 8004988:	428b      	cmp	r3, r1
 800498a:	d1d2      	bne.n	8004932 <HAL_RCC_ClockConfig+0xa>
 800498c:	e7d9      	b.n	8004942 <HAL_RCC_ClockConfig+0x1a>
 800498e:	4926      	ldr	r1, [pc, #152]	@ (8004a28 <HAL_RCC_ClockConfig+0x100>)
 8004990:	0753      	lsls	r3, r2, #29
 8004992:	d504      	bpl.n	800499e <HAL_RCC_ClockConfig+0x76>
 8004994:	23e0      	movs	r3, #224	@ 0xe0
 8004996:	6848      	ldr	r0, [r1, #4]
 8004998:	00db      	lsls	r3, r3, #3
 800499a:	4303      	orrs	r3, r0
 800499c:	604b      	str	r3, [r1, #4]
 800499e:	20f0      	movs	r0, #240	@ 0xf0
 80049a0:	684b      	ldr	r3, [r1, #4]
 80049a2:	4383      	bics	r3, r0
 80049a4:	68a0      	ldr	r0, [r4, #8]
 80049a6:	4303      	orrs	r3, r0
 80049a8:	604b      	str	r3, [r1, #4]
 80049aa:	e7cd      	b.n	8004948 <HAL_RCC_ClockConfig+0x20>
 80049ac:	6862      	ldr	r2, [r4, #4]
 80049ae:	4e1e      	ldr	r6, [pc, #120]	@ (8004a28 <HAL_RCC_ClockConfig+0x100>)
 80049b0:	2a01      	cmp	r2, #1
 80049b2:	d103      	bne.n	80049bc <HAL_RCC_ClockConfig+0x94>
 80049b4:	6833      	ldr	r3, [r6, #0]
 80049b6:	039b      	lsls	r3, r3, #14
 80049b8:	d405      	bmi.n	80049c6 <HAL_RCC_ClockConfig+0x9e>
 80049ba:	e7ba      	b.n	8004932 <HAL_RCC_ClockConfig+0xa>
 80049bc:	2a02      	cmp	r2, #2
 80049be:	d11a      	bne.n	80049f6 <HAL_RCC_ClockConfig+0xce>
 80049c0:	6833      	ldr	r3, [r6, #0]
 80049c2:	019b      	lsls	r3, r3, #6
 80049c4:	d5b5      	bpl.n	8004932 <HAL_RCC_ClockConfig+0xa>
 80049c6:	2103      	movs	r1, #3
 80049c8:	6873      	ldr	r3, [r6, #4]
 80049ca:	438b      	bics	r3, r1
 80049cc:	4313      	orrs	r3, r2
 80049ce:	6073      	str	r3, [r6, #4]
 80049d0:	f7fe fdaa 	bl	8003528 <HAL_GetTick>
 80049d4:	9001      	str	r0, [sp, #4]
 80049d6:	230c      	movs	r3, #12
 80049d8:	6872      	ldr	r2, [r6, #4]
 80049da:	401a      	ands	r2, r3
 80049dc:	6863      	ldr	r3, [r4, #4]
 80049de:	009b      	lsls	r3, r3, #2
 80049e0:	429a      	cmp	r2, r3
 80049e2:	d0b3      	beq.n	800494c <HAL_RCC_ClockConfig+0x24>
 80049e4:	f7fe fda0 	bl	8003528 <HAL_GetTick>
 80049e8:	9b01      	ldr	r3, [sp, #4]
 80049ea:	1ac0      	subs	r0, r0, r3
 80049ec:	4b11      	ldr	r3, [pc, #68]	@ (8004a34 <HAL_RCC_ClockConfig+0x10c>)
 80049ee:	4298      	cmp	r0, r3
 80049f0:	d9f1      	bls.n	80049d6 <HAL_RCC_ClockConfig+0xae>
 80049f2:	2003      	movs	r0, #3
 80049f4:	e79e      	b.n	8004934 <HAL_RCC_ClockConfig+0xc>
 80049f6:	2a03      	cmp	r2, #3
 80049f8:	d101      	bne.n	80049fe <HAL_RCC_ClockConfig+0xd6>
 80049fa:	6b73      	ldr	r3, [r6, #52]	@ 0x34
 80049fc:	e7db      	b.n	80049b6 <HAL_RCC_ClockConfig+0x8e>
 80049fe:	6833      	ldr	r3, [r6, #0]
 8004a00:	079b      	lsls	r3, r3, #30
 8004a02:	d4e0      	bmi.n	80049c6 <HAL_RCC_ClockConfig+0x9e>
 8004a04:	e795      	b.n	8004932 <HAL_RCC_ClockConfig+0xa>
 8004a06:	682a      	ldr	r2, [r5, #0]
 8004a08:	439a      	bics	r2, r3
 8004a0a:	602a      	str	r2, [r5, #0]
 8004a0c:	682a      	ldr	r2, [r5, #0]
 8004a0e:	421a      	tst	r2, r3
 8004a10:	d0a1      	beq.n	8004956 <HAL_RCC_ClockConfig+0x2e>
 8004a12:	e78e      	b.n	8004932 <HAL_RCC_ClockConfig+0xa>
 8004a14:	686b      	ldr	r3, [r5, #4]
 8004a16:	4a08      	ldr	r2, [pc, #32]	@ (8004a38 <HAL_RCC_ClockConfig+0x110>)
 8004a18:	4013      	ands	r3, r2
 8004a1a:	68e2      	ldr	r2, [r4, #12]
 8004a1c:	4313      	orrs	r3, r2
 8004a1e:	606b      	str	r3, [r5, #4]
 8004a20:	e79d      	b.n	800495e <HAL_RCC_ClockConfig+0x36>
 8004a22:	46c0      	nop			@ (mov r8, r8)
 8004a24:	40022000 	.word	0x40022000
 8004a28:	40021000 	.word	0x40021000
 8004a2c:	08006b88 	.word	0x08006b88
 8004a30:	20000000 	.word	0x20000000
 8004a34:	00001388 	.word	0x00001388
 8004a38:	fffff8ff 	.word	0xfffff8ff

08004a3c <HAL_RCCEx_PeriphCLKConfig>:
 8004a3c:	b5f0      	push	{r4, r5, r6, r7, lr}
 8004a3e:	6803      	ldr	r3, [r0, #0]
 8004a40:	0005      	movs	r5, r0
 8004a42:	b085      	sub	sp, #20
 8004a44:	03db      	lsls	r3, r3, #15
 8004a46:	d52b      	bpl.n	8004aa0 <HAL_RCCEx_PeriphCLKConfig+0x64>
 8004a48:	2280      	movs	r2, #128	@ 0x80
 8004a4a:	2100      	movs	r1, #0
 8004a4c:	4c41      	ldr	r4, [pc, #260]	@ (8004b54 <HAL_RCCEx_PeriphCLKConfig+0x118>)
 8004a4e:	0552      	lsls	r2, r2, #21
 8004a50:	69e3      	ldr	r3, [r4, #28]
 8004a52:	9100      	str	r1, [sp, #0]
 8004a54:	4213      	tst	r3, r2
 8004a56:	d108      	bne.n	8004a6a <HAL_RCCEx_PeriphCLKConfig+0x2e>
 8004a58:	69e3      	ldr	r3, [r4, #28]
 8004a5a:	4313      	orrs	r3, r2
 8004a5c:	61e3      	str	r3, [r4, #28]
 8004a5e:	69e3      	ldr	r3, [r4, #28]
 8004a60:	4013      	ands	r3, r2
 8004a62:	9303      	str	r3, [sp, #12]
 8004a64:	9b03      	ldr	r3, [sp, #12]
 8004a66:	2301      	movs	r3, #1
 8004a68:	9300      	str	r3, [sp, #0]
 8004a6a:	2780      	movs	r7, #128	@ 0x80
 8004a6c:	4e3a      	ldr	r6, [pc, #232]	@ (8004b58 <HAL_RCCEx_PeriphCLKConfig+0x11c>)
 8004a6e:	007f      	lsls	r7, r7, #1
 8004a70:	6833      	ldr	r3, [r6, #0]
 8004a72:	423b      	tst	r3, r7
 8004a74:	d034      	beq.n	8004ae0 <HAL_RCCEx_PeriphCLKConfig+0xa4>
 8004a76:	6a21      	ldr	r1, [r4, #32]
 8004a78:	22c0      	movs	r2, #192	@ 0xc0
 8004a7a:	0008      	movs	r0, r1
 8004a7c:	0092      	lsls	r2, r2, #2
 8004a7e:	686b      	ldr	r3, [r5, #4]
 8004a80:	4e36      	ldr	r6, [pc, #216]	@ (8004b5c <HAL_RCCEx_PeriphCLKConfig+0x120>)
 8004a82:	4010      	ands	r0, r2
 8004a84:	4211      	tst	r1, r2
 8004a86:	d13d      	bne.n	8004b04 <HAL_RCCEx_PeriphCLKConfig+0xc8>
 8004a88:	6a23      	ldr	r3, [r4, #32]
 8004a8a:	686a      	ldr	r2, [r5, #4]
 8004a8c:	4033      	ands	r3, r6
 8004a8e:	4313      	orrs	r3, r2
 8004a90:	6223      	str	r3, [r4, #32]
 8004a92:	9b00      	ldr	r3, [sp, #0]
 8004a94:	2b01      	cmp	r3, #1
 8004a96:	d103      	bne.n	8004aa0 <HAL_RCCEx_PeriphCLKConfig+0x64>
 8004a98:	69e3      	ldr	r3, [r4, #28]
 8004a9a:	4a31      	ldr	r2, [pc, #196]	@ (8004b60 <HAL_RCCEx_PeriphCLKConfig+0x124>)
 8004a9c:	4013      	ands	r3, r2
 8004a9e:	61e3      	str	r3, [r4, #28]
 8004aa0:	682b      	ldr	r3, [r5, #0]
 8004aa2:	07da      	lsls	r2, r3, #31
 8004aa4:	d506      	bpl.n	8004ab4 <HAL_RCCEx_PeriphCLKConfig+0x78>
 8004aa6:	2003      	movs	r0, #3
 8004aa8:	492a      	ldr	r1, [pc, #168]	@ (8004b54 <HAL_RCCEx_PeriphCLKConfig+0x118>)
 8004aaa:	6b0a      	ldr	r2, [r1, #48]	@ 0x30
 8004aac:	4382      	bics	r2, r0
 8004aae:	68a8      	ldr	r0, [r5, #8]
 8004ab0:	4302      	orrs	r2, r0
 8004ab2:	630a      	str	r2, [r1, #48]	@ 0x30
 8004ab4:	069a      	lsls	r2, r3, #26
 8004ab6:	d506      	bpl.n	8004ac6 <HAL_RCCEx_PeriphCLKConfig+0x8a>
 8004ab8:	2010      	movs	r0, #16
 8004aba:	4926      	ldr	r1, [pc, #152]	@ (8004b54 <HAL_RCCEx_PeriphCLKConfig+0x118>)
 8004abc:	6b0a      	ldr	r2, [r1, #48]	@ 0x30
 8004abe:	4382      	bics	r2, r0
 8004ac0:	68e8      	ldr	r0, [r5, #12]
 8004ac2:	4302      	orrs	r2, r0
 8004ac4:	630a      	str	r2, [r1, #48]	@ 0x30
 8004ac6:	039a      	lsls	r2, r3, #14
 8004ac8:	d506      	bpl.n	8004ad8 <HAL_RCCEx_PeriphCLKConfig+0x9c>
 8004aca:	2080      	movs	r0, #128	@ 0x80
 8004acc:	4921      	ldr	r1, [pc, #132]	@ (8004b54 <HAL_RCCEx_PeriphCLKConfig+0x118>)
 8004ace:	6b0a      	ldr	r2, [r1, #48]	@ 0x30
 8004ad0:	4382      	bics	r2, r0
 8004ad2:	6968      	ldr	r0, [r5, #20]
 8004ad4:	4302      	orrs	r2, r0
 8004ad6:	630a      	str	r2, [r1, #48]	@ 0x30
 8004ad8:	055b      	lsls	r3, r3, #21
 8004ada:	d433      	bmi.n	8004b44 <HAL_RCCEx_PeriphCLKConfig+0x108>
 8004adc:	2000      	movs	r0, #0
 8004ade:	e00f      	b.n	8004b00 <HAL_RCCEx_PeriphCLKConfig+0xc4>
 8004ae0:	6833      	ldr	r3, [r6, #0]
 8004ae2:	433b      	orrs	r3, r7
 8004ae4:	6033      	str	r3, [r6, #0]
 8004ae6:	f7fe fd1f 	bl	8003528 <HAL_GetTick>
 8004aea:	9001      	str	r0, [sp, #4]
 8004aec:	6833      	ldr	r3, [r6, #0]
 8004aee:	423b      	tst	r3, r7
 8004af0:	d1c1      	bne.n	8004a76 <HAL_RCCEx_PeriphCLKConfig+0x3a>
 8004af2:	f7fe fd19 	bl	8003528 <HAL_GetTick>
 8004af6:	9b01      	ldr	r3, [sp, #4]
 8004af8:	1ac0      	subs	r0, r0, r3
 8004afa:	2864      	cmp	r0, #100	@ 0x64
 8004afc:	d9f6      	bls.n	8004aec <HAL_RCCEx_PeriphCLKConfig+0xb0>
 8004afe:	2003      	movs	r0, #3
 8004b00:	b005      	add	sp, #20
 8004b02:	bdf0      	pop	{r4, r5, r6, r7, pc}
 8004b04:	4013      	ands	r3, r2
 8004b06:	4283      	cmp	r3, r0
 8004b08:	d0be      	beq.n	8004a88 <HAL_RCCEx_PeriphCLKConfig+0x4c>
 8004b0a:	2280      	movs	r2, #128	@ 0x80
 8004b0c:	6a23      	ldr	r3, [r4, #32]
 8004b0e:	6a20      	ldr	r0, [r4, #32]
 8004b10:	0019      	movs	r1, r3
 8004b12:	0252      	lsls	r2, r2, #9
 8004b14:	4302      	orrs	r2, r0
 8004b16:	6222      	str	r2, [r4, #32]
 8004b18:	6a22      	ldr	r2, [r4, #32]
 8004b1a:	4812      	ldr	r0, [pc, #72]	@ (8004b64 <HAL_RCCEx_PeriphCLKConfig+0x128>)
 8004b1c:	4031      	ands	r1, r6
 8004b1e:	4002      	ands	r2, r0
 8004b20:	6222      	str	r2, [r4, #32]
 8004b22:	6221      	str	r1, [r4, #32]
 8004b24:	07db      	lsls	r3, r3, #31
 8004b26:	d5af      	bpl.n	8004a88 <HAL_RCCEx_PeriphCLKConfig+0x4c>
 8004b28:	f7fe fcfe 	bl	8003528 <HAL_GetTick>
 8004b2c:	0007      	movs	r7, r0
 8004b2e:	2202      	movs	r2, #2
 8004b30:	6a23      	ldr	r3, [r4, #32]
 8004b32:	4213      	tst	r3, r2
 8004b34:	d1a8      	bne.n	8004a88 <HAL_RCCEx_PeriphCLKConfig+0x4c>
 8004b36:	f7fe fcf7 	bl	8003528 <HAL_GetTick>
 8004b3a:	4b0b      	ldr	r3, [pc, #44]	@ (8004b68 <HAL_RCCEx_PeriphCLKConfig+0x12c>)
 8004b3c:	1bc0      	subs	r0, r0, r7
 8004b3e:	4298      	cmp	r0, r3
 8004b40:	d9f5      	bls.n	8004b2e <HAL_RCCEx_PeriphCLKConfig+0xf2>
 8004b42:	e7dc      	b.n	8004afe <HAL_RCCEx_PeriphCLKConfig+0xc2>
 8004b44:	2140      	movs	r1, #64	@ 0x40
 8004b46:	4a03      	ldr	r2, [pc, #12]	@ (8004b54 <HAL_RCCEx_PeriphCLKConfig+0x118>)
 8004b48:	6b13      	ldr	r3, [r2, #48]	@ 0x30
 8004b4a:	438b      	bics	r3, r1
 8004b4c:	6929      	ldr	r1, [r5, #16]
 8004b4e:	430b      	orrs	r3, r1
 8004b50:	6313      	str	r3, [r2, #48]	@ 0x30
 8004b52:	e7c3      	b.n	8004adc <HAL_RCCEx_PeriphCLKConfig+0xa0>
 8004b54:	40021000 	.word	0x40021000
 8004b58:	40007000 	.word	0x40007000
 8004b5c:	fffffcff 	.word	0xfffffcff
 8004b60:	efffffff 	.word	0xefffffff
 8004b64:	fffeffff 	.word	0xfffeffff
 8004b68:	00001388 	.word	0x00001388

08004b6c <HAL_TIM_Base_Start_IT>:
 8004b6c:	0001      	movs	r1, r0
 8004b6e:	0003      	movs	r3, r0
 8004b70:	2001      	movs	r0, #1
 8004b72:	b510      	push	{r4, lr}
 8004b74:	313d      	adds	r1, #61	@ 0x3d
 8004b76:	780c      	ldrb	r4, [r1, #0]
 8004b78:	b2e2      	uxtb	r2, r4
 8004b7a:	4284      	cmp	r4, r0
 8004b7c:	d119      	bne.n	8004bb2 <HAL_TIM_Base_Start_IT+0x46>
 8004b7e:	1800      	adds	r0, r0, r0
 8004b80:	7008      	strb	r0, [r1, #0]
 8004b82:	681b      	ldr	r3, [r3, #0]
 8004b84:	68d9      	ldr	r1, [r3, #12]
 8004b86:	4311      	orrs	r1, r2
 8004b88:	60d9      	str	r1, [r3, #12]
 8004b8a:	490b      	ldr	r1, [pc, #44]	@ (8004bb8 <HAL_TIM_Base_Start_IT+0x4c>)
 8004b8c:	428b      	cmp	r3, r1
 8004b8e:	d006      	beq.n	8004b9e <HAL_TIM_Base_Start_IT+0x32>
 8004b90:	2180      	movs	r1, #128	@ 0x80
 8004b92:	05c9      	lsls	r1, r1, #23
 8004b94:	428b      	cmp	r3, r1
 8004b96:	d002      	beq.n	8004b9e <HAL_TIM_Base_Start_IT+0x32>
 8004b98:	4908      	ldr	r1, [pc, #32]	@ (8004bbc <HAL_TIM_Base_Start_IT+0x50>)
 8004b9a:	428b      	cmp	r3, r1
 8004b9c:	d10a      	bne.n	8004bb4 <HAL_TIM_Base_Start_IT+0x48>
 8004b9e:	2107      	movs	r1, #7
 8004ba0:	689a      	ldr	r2, [r3, #8]
 8004ba2:	400a      	ands	r2, r1
 8004ba4:	2a06      	cmp	r2, #6
 8004ba6:	d003      	beq.n	8004bb0 <HAL_TIM_Base_Start_IT+0x44>
 8004ba8:	2201      	movs	r2, #1
 8004baa:	6819      	ldr	r1, [r3, #0]
 8004bac:	430a      	orrs	r2, r1
 8004bae:	601a      	str	r2, [r3, #0]
 8004bb0:	2000      	movs	r0, #0
 8004bb2:	bd10      	pop	{r4, pc}
 8004bb4:	6819      	ldr	r1, [r3, #0]
 8004bb6:	e7f9      	b.n	8004bac <HAL_TIM_Base_Start_IT+0x40>
 8004bb8:	40012c00 	.word	0x40012c00
 8004bbc:	40000400 	.word	0x40000400

08004bc0 <HAL_TIM_Base_Stop_IT>:
 8004bc0:	2101      	movs	r1, #1
 8004bc2:	6803      	ldr	r3, [r0, #0]
 8004bc4:	b510      	push	{r4, lr}
 8004bc6:	68da      	ldr	r2, [r3, #12]
 8004bc8:	438a      	bics	r2, r1
 8004bca:	60da      	str	r2, [r3, #12]
 8004bcc:	6a1c      	ldr	r4, [r3, #32]
 8004bce:	4a07      	ldr	r2, [pc, #28]	@ (8004bec <HAL_TIM_Base_Stop_IT+0x2c>)
 8004bd0:	4214      	tst	r4, r2
 8004bd2:	d106      	bne.n	8004be2 <HAL_TIM_Base_Stop_IT+0x22>
 8004bd4:	6a1c      	ldr	r4, [r3, #32]
 8004bd6:	4a06      	ldr	r2, [pc, #24]	@ (8004bf0 <HAL_TIM_Base_Stop_IT+0x30>)
 8004bd8:	4214      	tst	r4, r2
 8004bda:	d102      	bne.n	8004be2 <HAL_TIM_Base_Stop_IT+0x22>
 8004bdc:	681a      	ldr	r2, [r3, #0]
 8004bde:	438a      	bics	r2, r1
 8004be0:	601a      	str	r2, [r3, #0]
 8004be2:	2301      	movs	r3, #1
 8004be4:	303d      	adds	r0, #61	@ 0x3d
 8004be6:	7003      	strb	r3, [r0, #0]
 8004be8:	2000      	movs	r0, #0
 8004bea:	bd10      	pop	{r4, pc}
 8004bec:	00001111 	.word	0x00001111
 8004bf0:	00000444 	.word	0x00000444

08004bf4 <HAL_TIM_IC_MspInit>:
 8004bf4:	4770      	bx	lr

08004bf6 <HAL_TIM_ReadCapturedValue>:
 8004bf6:	2908      	cmp	r1, #8
 8004bf8:	d011      	beq.n	8004c1e <HAL_TIM_ReadCapturedValue+0x28>
 8004bfa:	d805      	bhi.n	8004c08 <HAL_TIM_ReadCapturedValue+0x12>
 8004bfc:	2900      	cmp	r1, #0
 8004bfe:	d008      	beq.n	8004c12 <HAL_TIM_ReadCapturedValue+0x1c>
 8004c00:	2904      	cmp	r1, #4
 8004c02:	d009      	beq.n	8004c18 <HAL_TIM_ReadCapturedValue+0x22>
 8004c04:	2000      	movs	r0, #0
 8004c06:	4770      	bx	lr
 8004c08:	290c      	cmp	r1, #12
 8004c0a:	d1fb      	bne.n	8004c04 <HAL_TIM_ReadCapturedValue+0xe>
 8004c0c:	6803      	ldr	r3, [r0, #0]
 8004c0e:	6c18      	ldr	r0, [r3, #64]	@ 0x40
 8004c10:	e7f9      	b.n	8004c06 <HAL_TIM_ReadCapturedValue+0x10>
 8004c12:	6803      	ldr	r3, [r0, #0]
 8004c14:	6b58      	ldr	r0, [r3, #52]	@ 0x34
 8004c16:	e7f6      	b.n	8004c06 <HAL_TIM_ReadCapturedValue+0x10>
 8004c18:	6803      	ldr	r3, [r0, #0]
 8004c1a:	6b98      	ldr	r0, [r3, #56]	@ 0x38
 8004c1c:	e7f3      	b.n	8004c06 <HAL_TIM_ReadCapturedValue+0x10>
 8004c1e:	6803      	ldr	r3, [r0, #0]
 8004c20:	6bd8      	ldr	r0, [r3, #60]	@ 0x3c
 8004c22:	e7f0      	b.n	8004c06 <HAL_TIM_ReadCapturedValue+0x10>

08004c24 <HAL_TIM_OC_DelayElapsedCallback>:
 8004c24:	4770      	bx	lr

08004c26 <HAL_TIM_PWM_PulseFinishedCallback>:
 8004c26:	4770      	bx	lr

08004c28 <HAL_TIM_TriggerCallback>:
 8004c28:	4770      	bx	lr

08004c2a <HAL_TIM_IRQHandler>:
 8004c2a:	2202      	movs	r2, #2
 8004c2c:	6803      	ldr	r3, [r0, #0]
 8004c2e:	b570      	push	{r4, r5, r6, lr}
 8004c30:	68dd      	ldr	r5, [r3, #12]
 8004c32:	691e      	ldr	r6, [r3, #16]
 8004c34:	0004      	movs	r4, r0
 8004c36:	4216      	tst	r6, r2
 8004c38:	d00d      	beq.n	8004c56 <HAL_TIM_IRQHandler+0x2c>
 8004c3a:	4215      	tst	r5, r2
 8004c3c:	d00b      	beq.n	8004c56 <HAL_TIM_IRQHandler+0x2c>
 8004c3e:	3a05      	subs	r2, #5
 8004c40:	611a      	str	r2, [r3, #16]
 8004c42:	3204      	adds	r2, #4
 8004c44:	7702      	strb	r2, [r0, #28]
 8004c46:	699b      	ldr	r3, [r3, #24]
 8004c48:	079b      	lsls	r3, r3, #30
 8004c4a:	d100      	bne.n	8004c4e <HAL_TIM_IRQHandler+0x24>
 8004c4c:	e071      	b.n	8004d32 <HAL_TIM_IRQHandler+0x108>
 8004c4e:	f7fb fc5f 	bl	8000510 <HAL_TIM_IC_CaptureCallback>
 8004c52:	2300      	movs	r3, #0
 8004c54:	7723      	strb	r3, [r4, #28]
 8004c56:	2304      	movs	r3, #4
 8004c58:	421e      	tst	r6, r3
 8004c5a:	d011      	beq.n	8004c80 <HAL_TIM_IRQHandler+0x56>
 8004c5c:	421d      	tst	r5, r3
 8004c5e:	d00f      	beq.n	8004c80 <HAL_TIM_IRQHandler+0x56>
 8004c60:	2205      	movs	r2, #5
 8004c62:	6823      	ldr	r3, [r4, #0]
 8004c64:	4252      	negs	r2, r2
 8004c66:	611a      	str	r2, [r3, #16]
 8004c68:	3207      	adds	r2, #7
 8004c6a:	7722      	strb	r2, [r4, #28]
 8004c6c:	699a      	ldr	r2, [r3, #24]
 8004c6e:	23c0      	movs	r3, #192	@ 0xc0
 8004c70:	009b      	lsls	r3, r3, #2
 8004c72:	0020      	movs	r0, r4
 8004c74:	421a      	tst	r2, r3
 8004c76:	d062      	beq.n	8004d3e <HAL_TIM_IRQHandler+0x114>
 8004c78:	f7fb fc4a 	bl	8000510 <HAL_TIM_IC_CaptureCallback>
 8004c7c:	2300      	movs	r3, #0
 8004c7e:	7723      	strb	r3, [r4, #28]
 8004c80:	2308      	movs	r3, #8
 8004c82:	421e      	tst	r6, r3
 8004c84:	d00f      	beq.n	8004ca6 <HAL_TIM_IRQHandler+0x7c>
 8004c86:	421d      	tst	r5, r3
 8004c88:	d00d      	beq.n	8004ca6 <HAL_TIM_IRQHandler+0x7c>
 8004c8a:	2209      	movs	r2, #9
 8004c8c:	6823      	ldr	r3, [r4, #0]
 8004c8e:	4252      	negs	r2, r2
 8004c90:	611a      	str	r2, [r3, #16]
 8004c92:	320d      	adds	r2, #13
 8004c94:	7722      	strb	r2, [r4, #28]
 8004c96:	69db      	ldr	r3, [r3, #28]
 8004c98:	0020      	movs	r0, r4
 8004c9a:	079b      	lsls	r3, r3, #30
 8004c9c:	d055      	beq.n	8004d4a <HAL_TIM_IRQHandler+0x120>
 8004c9e:	f7fb fc37 	bl	8000510 <HAL_TIM_IC_CaptureCallback>
 8004ca2:	2300      	movs	r3, #0
 8004ca4:	7723      	strb	r3, [r4, #28]
 8004ca6:	2310      	movs	r3, #16
 8004ca8:	421e      	tst	r6, r3
 8004caa:	d011      	beq.n	8004cd0 <HAL_TIM_IRQHandler+0xa6>
 8004cac:	421d      	tst	r5, r3
 8004cae:	d00f      	beq.n	8004cd0 <HAL_TIM_IRQHandler+0xa6>
 8004cb0:	2211      	movs	r2, #17
 8004cb2:	6823      	ldr	r3, [r4, #0]
 8004cb4:	4252      	negs	r2, r2
 8004cb6:	611a      	str	r2, [r3, #16]
 8004cb8:	3219      	adds	r2, #25
 8004cba:	7722      	strb	r2, [r4, #28]
 8004cbc:	69da      	ldr	r2, [r3, #28]
 8004cbe:	23c0      	movs	r3, #192	@ 0xc0
 8004cc0:	009b      	lsls	r3, r3, #2
 8004cc2:	0020      	movs	r0, r4
 8004cc4:	421a      	tst	r2, r3
 8004cc6:	d046      	beq.n	8004d56 <HAL_TIM_IRQHandler+0x12c>
 8004cc8:	f7fb fc22 	bl	8000510 <HAL_TIM_IC_CaptureCallback>
 8004ccc:	2300      	movs	r3, #0
 8004cce:	7723      	strb	r3, [r4, #28]
 8004cd0:	2301      	movs	r3, #1
 8004cd2:	421e      	tst	r6, r3
 8004cd4:	d008      	beq.n	8004ce8 <HAL_TIM_IRQHandler+0xbe>
 8004cd6:	421d      	tst	r5, r3
 8004cd8:	d006      	beq.n	8004ce8 <HAL_TIM_IRQHandler+0xbe>
 8004cda:	2202      	movs	r2, #2
 8004cdc:	6823      	ldr	r3, [r4, #0]
 8004cde:	4252      	negs	r2, r2
 8004ce0:	0020      	movs	r0, r4
 8004ce2:	611a      	str	r2, [r3, #16]
 8004ce4:	f7fb fd22 	bl	800072c <HAL_TIM_PeriodElapsedCallback>
 8004ce8:	2380      	movs	r3, #128	@ 0x80
 8004cea:	421e      	tst	r6, r3
 8004cec:	d008      	beq.n	8004d00 <HAL_TIM_IRQHandler+0xd6>
 8004cee:	421d      	tst	r5, r3
 8004cf0:	d006      	beq.n	8004d00 <HAL_TIM_IRQHandler+0xd6>
 8004cf2:	2281      	movs	r2, #129	@ 0x81
 8004cf4:	6823      	ldr	r3, [r4, #0]
 8004cf6:	4252      	negs	r2, r2
 8004cf8:	0020      	movs	r0, r4
 8004cfa:	611a      	str	r2, [r3, #16]
 8004cfc:	f000 fad3 	bl	80052a6 <HAL_TIMEx_BreakCallback>
 8004d00:	2340      	movs	r3, #64	@ 0x40
 8004d02:	421e      	tst	r6, r3
 8004d04:	d008      	beq.n	8004d18 <HAL_TIM_IRQHandler+0xee>
 8004d06:	421d      	tst	r5, r3
 8004d08:	d006      	beq.n	8004d18 <HAL_TIM_IRQHandler+0xee>
 8004d0a:	2241      	movs	r2, #65	@ 0x41
 8004d0c:	6823      	ldr	r3, [r4, #0]
 8004d0e:	4252      	negs	r2, r2
 8004d10:	0020      	movs	r0, r4
 8004d12:	611a      	str	r2, [r3, #16]
 8004d14:	f7ff ff88 	bl	8004c28 <HAL_TIM_TriggerCallback>
 8004d18:	2320      	movs	r3, #32
 8004d1a:	421e      	tst	r6, r3
 8004d1c:	d008      	beq.n	8004d30 <HAL_TIM_IRQHandler+0x106>
 8004d1e:	421d      	tst	r5, r3
 8004d20:	d006      	beq.n	8004d30 <HAL_TIM_IRQHandler+0x106>
 8004d22:	2221      	movs	r2, #33	@ 0x21
 8004d24:	6823      	ldr	r3, [r4, #0]
 8004d26:	4252      	negs	r2, r2
 8004d28:	0020      	movs	r0, r4
 8004d2a:	611a      	str	r2, [r3, #16]
 8004d2c:	f000 faba 	bl	80052a4 <HAL_TIMEx_CommutCallback>
 8004d30:	bd70      	pop	{r4, r5, r6, pc}
 8004d32:	f7ff ff77 	bl	8004c24 <HAL_TIM_OC_DelayElapsedCallback>
 8004d36:	0020      	movs	r0, r4
 8004d38:	f7ff ff75 	bl	8004c26 <HAL_TIM_PWM_PulseFinishedCallback>
 8004d3c:	e789      	b.n	8004c52 <HAL_TIM_IRQHandler+0x28>
 8004d3e:	f7ff ff71 	bl	8004c24 <HAL_TIM_OC_DelayElapsedCallback>
 8004d42:	0020      	movs	r0, r4
 8004d44:	f7ff ff6f 	bl	8004c26 <HAL_TIM_PWM_PulseFinishedCallback>
 8004d48:	e798      	b.n	8004c7c <HAL_TIM_IRQHandler+0x52>
 8004d4a:	f7ff ff6b 	bl	8004c24 <HAL_TIM_OC_DelayElapsedCallback>
 8004d4e:	0020      	movs	r0, r4
 8004d50:	f7ff ff69 	bl	8004c26 <HAL_TIM_PWM_PulseFinishedCallback>
 8004d54:	e7a5      	b.n	8004ca2 <HAL_TIM_IRQHandler+0x78>
 8004d56:	f7ff ff65 	bl	8004c24 <HAL_TIM_OC_DelayElapsedCallback>
 8004d5a:	0020      	movs	r0, r4
 8004d5c:	f7ff ff63 	bl	8004c26 <HAL_TIM_PWM_PulseFinishedCallback>
 8004d60:	e7b4      	b.n	8004ccc <HAL_TIM_IRQHandler+0xa2>
	...

08004d64 <TIM_Base_SetConfig>:
 8004d64:	b510      	push	{r4, lr}
 8004d66:	4c1c      	ldr	r4, [pc, #112]	@ (8004dd8 <TIM_Base_SetConfig+0x74>)
 8004d68:	6803      	ldr	r3, [r0, #0]
 8004d6a:	42a0      	cmp	r0, r4
 8004d6c:	d006      	beq.n	8004d7c <TIM_Base_SetConfig+0x18>
 8004d6e:	2280      	movs	r2, #128	@ 0x80
 8004d70:	05d2      	lsls	r2, r2, #23
 8004d72:	4290      	cmp	r0, r2
 8004d74:	d002      	beq.n	8004d7c <TIM_Base_SetConfig+0x18>
 8004d76:	4a19      	ldr	r2, [pc, #100]	@ (8004ddc <TIM_Base_SetConfig+0x78>)
 8004d78:	4290      	cmp	r0, r2
 8004d7a:	d108      	bne.n	8004d8e <TIM_Base_SetConfig+0x2a>
 8004d7c:	2270      	movs	r2, #112	@ 0x70
 8004d7e:	4393      	bics	r3, r2
 8004d80:	684a      	ldr	r2, [r1, #4]
 8004d82:	4313      	orrs	r3, r2
 8004d84:	4a16      	ldr	r2, [pc, #88]	@ (8004de0 <TIM_Base_SetConfig+0x7c>)
 8004d86:	401a      	ands	r2, r3
 8004d88:	68cb      	ldr	r3, [r1, #12]
 8004d8a:	4313      	orrs	r3, r2
 8004d8c:	e008      	b.n	8004da0 <TIM_Base_SetConfig+0x3c>
 8004d8e:	4a15      	ldr	r2, [pc, #84]	@ (8004de4 <TIM_Base_SetConfig+0x80>)
 8004d90:	4290      	cmp	r0, r2
 8004d92:	d0f7      	beq.n	8004d84 <TIM_Base_SetConfig+0x20>
 8004d94:	4a14      	ldr	r2, [pc, #80]	@ (8004de8 <TIM_Base_SetConfig+0x84>)
 8004d96:	4290      	cmp	r0, r2
 8004d98:	d0f4      	beq.n	8004d84 <TIM_Base_SetConfig+0x20>
 8004d9a:	4a14      	ldr	r2, [pc, #80]	@ (8004dec <TIM_Base_SetConfig+0x88>)
 8004d9c:	4290      	cmp	r0, r2
 8004d9e:	d0f1      	beq.n	8004d84 <TIM_Base_SetConfig+0x20>
 8004da0:	2280      	movs	r2, #128	@ 0x80
 8004da2:	4393      	bics	r3, r2
 8004da4:	694a      	ldr	r2, [r1, #20]
 8004da6:	4313      	orrs	r3, r2
 8004da8:	6003      	str	r3, [r0, #0]
 8004daa:	688b      	ldr	r3, [r1, #8]
 8004dac:	62c3      	str	r3, [r0, #44]	@ 0x2c
 8004dae:	680b      	ldr	r3, [r1, #0]
 8004db0:	6283      	str	r3, [r0, #40]	@ 0x28
 8004db2:	42a0      	cmp	r0, r4
 8004db4:	d005      	beq.n	8004dc2 <TIM_Base_SetConfig+0x5e>
 8004db6:	4b0c      	ldr	r3, [pc, #48]	@ (8004de8 <TIM_Base_SetConfig+0x84>)
 8004db8:	4298      	cmp	r0, r3
 8004dba:	d002      	beq.n	8004dc2 <TIM_Base_SetConfig+0x5e>
 8004dbc:	4b0b      	ldr	r3, [pc, #44]	@ (8004dec <TIM_Base_SetConfig+0x88>)
 8004dbe:	4298      	cmp	r0, r3
 8004dc0:	d101      	bne.n	8004dc6 <TIM_Base_SetConfig+0x62>
 8004dc2:	690b      	ldr	r3, [r1, #16]
 8004dc4:	6303      	str	r3, [r0, #48]	@ 0x30
 8004dc6:	2201      	movs	r2, #1
 8004dc8:	6142      	str	r2, [r0, #20]
 8004dca:	6903      	ldr	r3, [r0, #16]
 8004dcc:	4213      	tst	r3, r2
 8004dce:	d002      	beq.n	8004dd6 <TIM_Base_SetConfig+0x72>
 8004dd0:	6903      	ldr	r3, [r0, #16]
 8004dd2:	4393      	bics	r3, r2
 8004dd4:	6103      	str	r3, [r0, #16]
 8004dd6:	bd10      	pop	{r4, pc}
 8004dd8:	40012c00 	.word	0x40012c00
 8004ddc:	40000400 	.word	0x40000400
 8004de0:	fffffcff 	.word	0xfffffcff
 8004de4:	40002000 	.word	0x40002000
 8004de8:	40014400 	.word	0x40014400
 8004dec:	40014800 	.word	0x40014800

08004df0 <HAL_TIM_Base_Init>:
 8004df0:	b570      	push	{r4, r5, r6, lr}
 8004df2:	0004      	movs	r4, r0
 8004df4:	2001      	movs	r0, #1
 8004df6:	2c00      	cmp	r4, #0
 8004df8:	d021      	beq.n	8004e3e <HAL_TIM_Base_Init+0x4e>
 8004dfa:	0025      	movs	r5, r4
 8004dfc:	353d      	adds	r5, #61	@ 0x3d
 8004dfe:	782b      	ldrb	r3, [r5, #0]
 8004e00:	b2da      	uxtb	r2, r3
 8004e02:	2b00      	cmp	r3, #0
 8004e04:	d105      	bne.n	8004e12 <HAL_TIM_Base_Init+0x22>
 8004e06:	0023      	movs	r3, r4
 8004e08:	333c      	adds	r3, #60	@ 0x3c
 8004e0a:	0020      	movs	r0, r4
 8004e0c:	701a      	strb	r2, [r3, #0]
 8004e0e:	f7fb fff3 	bl	8000df8 <HAL_TIM_Base_MspInit>
 8004e12:	2302      	movs	r3, #2
 8004e14:	702b      	strb	r3, [r5, #0]
 8004e16:	6820      	ldr	r0, [r4, #0]
 8004e18:	1d21      	adds	r1, r4, #4
 8004e1a:	f7ff ffa3 	bl	8004d64 <TIM_Base_SetConfig>
 8004e1e:	0022      	movs	r2, r4
 8004e20:	2301      	movs	r3, #1
 8004e22:	2000      	movs	r0, #0
 8004e24:	3246      	adds	r2, #70	@ 0x46
 8004e26:	7013      	strb	r3, [r2, #0]
 8004e28:	3445      	adds	r4, #69	@ 0x45
 8004e2a:	3a08      	subs	r2, #8
 8004e2c:	7013      	strb	r3, [r2, #0]
 8004e2e:	7053      	strb	r3, [r2, #1]
 8004e30:	7093      	strb	r3, [r2, #2]
 8004e32:	70d3      	strb	r3, [r2, #3]
 8004e34:	7113      	strb	r3, [r2, #4]
 8004e36:	7153      	strb	r3, [r2, #5]
 8004e38:	7193      	strb	r3, [r2, #6]
 8004e3a:	7023      	strb	r3, [r4, #0]
 8004e3c:	702b      	strb	r3, [r5, #0]
 8004e3e:	bd70      	pop	{r4, r5, r6, pc}

08004e40 <HAL_TIM_IC_Init>:
 8004e40:	b570      	push	{r4, r5, r6, lr}
 8004e42:	0004      	movs	r4, r0
 8004e44:	2001      	movs	r0, #1
 8004e46:	2c00      	cmp	r4, #0
 8004e48:	d021      	beq.n	8004e8e <HAL_TIM_IC_Init+0x4e>
 8004e4a:	0025      	movs	r5, r4
 8004e4c:	353d      	adds	r5, #61	@ 0x3d
 8004e4e:	782b      	ldrb	r3, [r5, #0]
 8004e50:	b2da      	uxtb	r2, r3
 8004e52:	2b00      	cmp	r3, #0
 8004e54:	d105      	bne.n	8004e62 <HAL_TIM_IC_Init+0x22>
 8004e56:	0023      	movs	r3, r4
 8004e58:	333c      	adds	r3, #60	@ 0x3c
 8004e5a:	0020      	movs	r0, r4
 8004e5c:	701a      	strb	r2, [r3, #0]
 8004e5e:	f7ff fec9 	bl	8004bf4 <HAL_TIM_IC_MspInit>
 8004e62:	2302      	movs	r3, #2
 8004e64:	702b      	strb	r3, [r5, #0]
 8004e66:	6820      	ldr	r0, [r4, #0]
 8004e68:	1d21      	adds	r1, r4, #4
 8004e6a:	f7ff ff7b 	bl	8004d64 <TIM_Base_SetConfig>
 8004e6e:	0022      	movs	r2, r4
 8004e70:	2301      	movs	r3, #1
 8004e72:	2000      	movs	r0, #0
 8004e74:	3246      	adds	r2, #70	@ 0x46
 8004e76:	7013      	strb	r3, [r2, #0]
 8004e78:	3445      	adds	r4, #69	@ 0x45
 8004e7a:	3a08      	subs	r2, #8
 8004e7c:	7013      	strb	r3, [r2, #0]
 8004e7e:	7053      	strb	r3, [r2, #1]
 8004e80:	7093      	strb	r3, [r2, #2]
 8004e82:	70d3      	strb	r3, [r2, #3]
 8004e84:	7113      	strb	r3, [r2, #4]
 8004e86:	7153      	strb	r3, [r2, #5]
 8004e88:	7193      	strb	r3, [r2, #6]
 8004e8a:	7023      	strb	r3, [r4, #0]
 8004e8c:	702b      	strb	r3, [r5, #0]
 8004e8e:	bd70      	pop	{r4, r5, r6, pc}

08004e90 <TIM_TI1_SetConfig>:
 8004e90:	b5f0      	push	{r4, r5, r6, r7, lr}
 8004e92:	2601      	movs	r6, #1
 8004e94:	6a04      	ldr	r4, [r0, #32]
 8004e96:	0015      	movs	r5, r2
 8004e98:	6a02      	ldr	r2, [r0, #32]
 8004e9a:	4f0f      	ldr	r7, [pc, #60]	@ (8004ed8 <TIM_TI1_SetConfig+0x48>)
 8004e9c:	43b2      	bics	r2, r6
 8004e9e:	6202      	str	r2, [r0, #32]
 8004ea0:	6982      	ldr	r2, [r0, #24]
 8004ea2:	42b8      	cmp	r0, r7
 8004ea4:	d014      	beq.n	8004ed0 <TIM_TI1_SetConfig+0x40>
 8004ea6:	2780      	movs	r7, #128	@ 0x80
 8004ea8:	05ff      	lsls	r7, r7, #23
 8004eaa:	42b8      	cmp	r0, r7
 8004eac:	d010      	beq.n	8004ed0 <TIM_TI1_SetConfig+0x40>
 8004eae:	4f0b      	ldr	r7, [pc, #44]	@ (8004edc <TIM_TI1_SetConfig+0x4c>)
 8004eb0:	42b8      	cmp	r0, r7
 8004eb2:	d00d      	beq.n	8004ed0 <TIM_TI1_SetConfig+0x40>
 8004eb4:	4332      	orrs	r2, r6
 8004eb6:	25f0      	movs	r5, #240	@ 0xf0
 8004eb8:	43aa      	bics	r2, r5
 8004eba:	011b      	lsls	r3, r3, #4
 8004ebc:	350f      	adds	r5, #15
 8004ebe:	402b      	ands	r3, r5
 8004ec0:	4313      	orrs	r3, r2
 8004ec2:	220a      	movs	r2, #10
 8004ec4:	4394      	bics	r4, r2
 8004ec6:	4011      	ands	r1, r2
 8004ec8:	4321      	orrs	r1, r4
 8004eca:	6183      	str	r3, [r0, #24]
 8004ecc:	6201      	str	r1, [r0, #32]
 8004ece:	bdf0      	pop	{r4, r5, r6, r7, pc}
 8004ed0:	2603      	movs	r6, #3
 8004ed2:	43b2      	bics	r2, r6
 8004ed4:	432a      	orrs	r2, r5
 8004ed6:	e7ee      	b.n	8004eb6 <TIM_TI1_SetConfig+0x26>
 8004ed8:	40012c00 	.word	0x40012c00
 8004edc:	40000400 	.word	0x40000400

08004ee0 <HAL_TIM_IC_ConfigChannel>:
 8004ee0:	0003      	movs	r3, r0
 8004ee2:	b5f7      	push	{r0, r1, r2, r4, r5, r6, r7, lr}
 8004ee4:	333c      	adds	r3, #60	@ 0x3c
 8004ee6:	9001      	str	r0, [sp, #4]
 8004ee8:	000c      	movs	r4, r1
 8004eea:	7819      	ldrb	r1, [r3, #0]
 8004eec:	2002      	movs	r0, #2
 8004eee:	2901      	cmp	r1, #1
 8004ef0:	d00c      	beq.n	8004f0c <HAL_TIM_IC_ConfigChannel+0x2c>
 8004ef2:	3801      	subs	r0, #1
 8004ef4:	7018      	strb	r0, [r3, #0]
 8004ef6:	2a08      	cmp	r2, #8
 8004ef8:	d067      	beq.n	8004fca <HAL_TIM_IC_ConfigChannel+0xea>
 8004efa:	d808      	bhi.n	8004f0e <HAL_TIM_IC_ConfigChannel+0x2e>
 8004efc:	2a00      	cmp	r2, #0
 8004efe:	d02d      	beq.n	8004f5c <HAL_TIM_IC_ConfigChannel+0x7c>
 8004f00:	2a04      	cmp	r2, #4
 8004f02:	d03d      	beq.n	8004f80 <HAL_TIM_IC_ConfigChannel+0xa0>
 8004f04:	2300      	movs	r3, #0
 8004f06:	9d01      	ldr	r5, [sp, #4]
 8004f08:	353c      	adds	r5, #60	@ 0x3c
 8004f0a:	702b      	strb	r3, [r5, #0]
 8004f0c:	bdfe      	pop	{r1, r2, r3, r4, r5, r6, r7, pc}
 8004f0e:	2a0c      	cmp	r2, #12
 8004f10:	d1f8      	bne.n	8004f04 <HAL_TIM_IC_ConfigChannel+0x24>
 8004f12:	9b01      	ldr	r3, [sp, #4]
 8004f14:	4d40      	ldr	r5, [pc, #256]	@ (8005018 <HAL_TIM_IC_ConfigChannel+0x138>)
 8004f16:	681b      	ldr	r3, [r3, #0]
 8004f18:	6822      	ldr	r2, [r4, #0]
 8004f1a:	6a1e      	ldr	r6, [r3, #32]
 8004f1c:	6a1f      	ldr	r7, [r3, #32]
 8004f1e:	6860      	ldr	r0, [r4, #4]
 8004f20:	402f      	ands	r7, r5
 8004f22:	68e1      	ldr	r1, [r4, #12]
 8004f24:	621f      	str	r7, [r3, #32]
 8004f26:	69df      	ldr	r7, [r3, #28]
 8004f28:	4d3c      	ldr	r5, [pc, #240]	@ (800501c <HAL_TIM_IC_ConfigChannel+0x13c>)
 8004f2a:	0200      	lsls	r0, r0, #8
 8004f2c:	402f      	ands	r7, r5
 8004f2e:	4338      	orrs	r0, r7
 8004f30:	4f3b      	ldr	r7, [pc, #236]	@ (8005020 <HAL_TIM_IC_ConfigChannel+0x140>)
 8004f32:	0709      	lsls	r1, r1, #28
 8004f34:	4038      	ands	r0, r7
 8004f36:	0c09      	lsrs	r1, r1, #16
 8004f38:	4301      	orrs	r1, r0
 8004f3a:	483a      	ldr	r0, [pc, #232]	@ (8005024 <HAL_TIM_IC_ConfigChannel+0x144>)
 8004f3c:	0312      	lsls	r2, r2, #12
 8004f3e:	4006      	ands	r6, r0
 8004f40:	20a0      	movs	r0, #160	@ 0xa0
 8004f42:	0200      	lsls	r0, r0, #8
 8004f44:	4002      	ands	r2, r0
 8004f46:	4332      	orrs	r2, r6
 8004f48:	61d9      	str	r1, [r3, #28]
 8004f4a:	621a      	str	r2, [r3, #32]
 8004f4c:	69da      	ldr	r2, [r3, #28]
 8004f4e:	4936      	ldr	r1, [pc, #216]	@ (8005028 <HAL_TIM_IC_ConfigChannel+0x148>)
 8004f50:	400a      	ands	r2, r1
 8004f52:	61da      	str	r2, [r3, #28]
 8004f54:	68a2      	ldr	r2, [r4, #8]
 8004f56:	69d9      	ldr	r1, [r3, #28]
 8004f58:	0212      	lsls	r2, r2, #8
 8004f5a:	e05a      	b.n	8005012 <HAL_TIM_IC_ConfigChannel+0x132>
 8004f5c:	9b01      	ldr	r3, [sp, #4]
 8004f5e:	6862      	ldr	r2, [r4, #4]
 8004f60:	681e      	ldr	r6, [r3, #0]
 8004f62:	6821      	ldr	r1, [r4, #0]
 8004f64:	68e3      	ldr	r3, [r4, #12]
 8004f66:	0030      	movs	r0, r6
 8004f68:	f7ff ff92 	bl	8004e90 <TIM_TI1_SetConfig>
 8004f6c:	220c      	movs	r2, #12
 8004f6e:	69b3      	ldr	r3, [r6, #24]
 8004f70:	4393      	bics	r3, r2
 8004f72:	61b3      	str	r3, [r6, #24]
 8004f74:	69b3      	ldr	r3, [r6, #24]
 8004f76:	68a2      	ldr	r2, [r4, #8]
 8004f78:	4313      	orrs	r3, r2
 8004f7a:	61b3      	str	r3, [r6, #24]
 8004f7c:	2000      	movs	r0, #0
 8004f7e:	e7c1      	b.n	8004f04 <HAL_TIM_IC_ConfigChannel+0x24>
 8004f80:	2510      	movs	r5, #16
 8004f82:	9b01      	ldr	r3, [sp, #4]
 8004f84:	6822      	ldr	r2, [r4, #0]
 8004f86:	681b      	ldr	r3, [r3, #0]
 8004f88:	6860      	ldr	r0, [r4, #4]
 8004f8a:	6a1e      	ldr	r6, [r3, #32]
 8004f8c:	6a1f      	ldr	r7, [r3, #32]
 8004f8e:	68e1      	ldr	r1, [r4, #12]
 8004f90:	43af      	bics	r7, r5
 8004f92:	621f      	str	r7, [r3, #32]
 8004f94:	699f      	ldr	r7, [r3, #24]
 8004f96:	4d21      	ldr	r5, [pc, #132]	@ (800501c <HAL_TIM_IC_ConfigChannel+0x13c>)
 8004f98:	0200      	lsls	r0, r0, #8
 8004f9a:	402f      	ands	r7, r5
 8004f9c:	4338      	orrs	r0, r7
 8004f9e:	4f20      	ldr	r7, [pc, #128]	@ (8005020 <HAL_TIM_IC_ConfigChannel+0x140>)
 8004fa0:	0709      	lsls	r1, r1, #28
 8004fa2:	4038      	ands	r0, r7
 8004fa4:	0c09      	lsrs	r1, r1, #16
 8004fa6:	4301      	orrs	r1, r0
 8004fa8:	20a0      	movs	r0, #160	@ 0xa0
 8004faa:	0112      	lsls	r2, r2, #4
 8004fac:	4386      	bics	r6, r0
 8004fae:	4002      	ands	r2, r0
 8004fb0:	4332      	orrs	r2, r6
 8004fb2:	6199      	str	r1, [r3, #24]
 8004fb4:	621a      	str	r2, [r3, #32]
 8004fb6:	699a      	ldr	r2, [r3, #24]
 8004fb8:	491b      	ldr	r1, [pc, #108]	@ (8005028 <HAL_TIM_IC_ConfigChannel+0x148>)
 8004fba:	400a      	ands	r2, r1
 8004fbc:	619a      	str	r2, [r3, #24]
 8004fbe:	68a2      	ldr	r2, [r4, #8]
 8004fc0:	6999      	ldr	r1, [r3, #24]
 8004fc2:	0212      	lsls	r2, r2, #8
 8004fc4:	430a      	orrs	r2, r1
 8004fc6:	619a      	str	r2, [r3, #24]
 8004fc8:	e7d8      	b.n	8004f7c <HAL_TIM_IC_ConfigChannel+0x9c>
 8004fca:	9b01      	ldr	r3, [sp, #4]
 8004fcc:	4d17      	ldr	r5, [pc, #92]	@ (800502c <HAL_TIM_IC_ConfigChannel+0x14c>)
 8004fce:	681b      	ldr	r3, [r3, #0]
 8004fd0:	6822      	ldr	r2, [r4, #0]
 8004fd2:	6a1e      	ldr	r6, [r3, #32]
 8004fd4:	6a1f      	ldr	r7, [r3, #32]
 8004fd6:	6860      	ldr	r0, [r4, #4]
 8004fd8:	402f      	ands	r7, r5
 8004fda:	68e1      	ldr	r1, [r4, #12]
 8004fdc:	621f      	str	r7, [r3, #32]
 8004fde:	69df      	ldr	r7, [r3, #28]
 8004fe0:	3505      	adds	r5, #5
 8004fe2:	35ff      	adds	r5, #255	@ 0xff
 8004fe4:	43af      	bics	r7, r5
 8004fe6:	4338      	orrs	r0, r7
 8004fe8:	27f0      	movs	r7, #240	@ 0xf0
 8004fea:	0109      	lsls	r1, r1, #4
 8004fec:	43b8      	bics	r0, r7
 8004fee:	370f      	adds	r7, #15
 8004ff0:	4039      	ands	r1, r7
 8004ff2:	4301      	orrs	r1, r0
 8004ff4:	480e      	ldr	r0, [pc, #56]	@ (8005030 <HAL_TIM_IC_ConfigChannel+0x150>)
 8004ff6:	61d9      	str	r1, [r3, #28]
 8004ff8:	4030      	ands	r0, r6
 8004ffa:	26a0      	movs	r6, #160	@ 0xa0
 8004ffc:	210c      	movs	r1, #12
 8004ffe:	0212      	lsls	r2, r2, #8
 8005000:	0136      	lsls	r6, r6, #4
 8005002:	4032      	ands	r2, r6
 8005004:	4302      	orrs	r2, r0
 8005006:	621a      	str	r2, [r3, #32]
 8005008:	69da      	ldr	r2, [r3, #28]
 800500a:	438a      	bics	r2, r1
 800500c:	61da      	str	r2, [r3, #28]
 800500e:	69da      	ldr	r2, [r3, #28]
 8005010:	68a1      	ldr	r1, [r4, #8]
 8005012:	430a      	orrs	r2, r1
 8005014:	61da      	str	r2, [r3, #28]
 8005016:	e7b1      	b.n	8004f7c <HAL_TIM_IC_ConfigChannel+0x9c>
 8005018:	ffffefff 	.word	0xffffefff
 800501c:	fffffcff 	.word	0xfffffcff
 8005020:	ffff0fff 	.word	0xffff0fff
 8005024:	ffff5fff 	.word	0xffff5fff
 8005028:	fffff3ff 	.word	0xfffff3ff
 800502c:	fffffeff 	.word	0xfffffeff
 8005030:	fffff5ff 	.word	0xfffff5ff

08005034 <TIM_ETR_SetConfig>:
 8005034:	b530      	push	{r4, r5, lr}
 8005036:	6884      	ldr	r4, [r0, #8]
 8005038:	4d03      	ldr	r5, [pc, #12]	@ (8005048 <TIM_ETR_SetConfig+0x14>)
 800503a:	430a      	orrs	r2, r1
 800503c:	021b      	lsls	r3, r3, #8
 800503e:	402c      	ands	r4, r5
 8005040:	4313      	orrs	r3, r2
 8005042:	4323      	orrs	r3, r4
 8005044:	6083      	str	r3, [r0, #8]
 8005046:	bd30      	pop	{r4, r5, pc}
 8005048:	ffff00ff 	.word	0xffff00ff

0800504c <HAL_TIM_ConfigClockSource>:
 800504c:	b5f8      	push	{r3, r4, r5, r6, r7, lr}
 800504e:	0005      	movs	r5, r0
 8005050:	2202      	movs	r2, #2
 8005052:	353c      	adds	r5, #60	@ 0x3c
 8005054:	782c      	ldrb	r4, [r5, #0]
 8005056:	0003      	movs	r3, r0
 8005058:	0010      	movs	r0, r2
 800505a:	2c01      	cmp	r4, #1
 800505c:	d01b      	beq.n	8005096 <HAL_TIM_ConfigClockSource+0x4a>
 800505e:	001e      	movs	r6, r3
 8005060:	3801      	subs	r0, #1
 8005062:	363d      	adds	r6, #61	@ 0x3d
 8005064:	7028      	strb	r0, [r5, #0]
 8005066:	7032      	strb	r2, [r6, #0]
 8005068:	681c      	ldr	r4, [r3, #0]
 800506a:	4a41      	ldr	r2, [pc, #260]	@ (8005170 <HAL_TIM_ConfigClockSource+0x124>)
 800506c:	68a3      	ldr	r3, [r4, #8]
 800506e:	4013      	ands	r3, r2
 8005070:	60a3      	str	r3, [r4, #8]
 8005072:	680b      	ldr	r3, [r1, #0]
 8005074:	2b60      	cmp	r3, #96	@ 0x60
 8005076:	d04e      	beq.n	8005116 <HAL_TIM_ConfigClockSource+0xca>
 8005078:	d82d      	bhi.n	80050d6 <HAL_TIM_ConfigClockSource+0x8a>
 800507a:	2b40      	cmp	r3, #64	@ 0x40
 800507c:	d062      	beq.n	8005144 <HAL_TIM_ConfigClockSource+0xf8>
 800507e:	d813      	bhi.n	80050a8 <HAL_TIM_ConfigClockSource+0x5c>
 8005080:	2b20      	cmp	r3, #32
 8005082:	d00b      	beq.n	800509c <HAL_TIM_ConfigClockSource+0x50>
 8005084:	d808      	bhi.n	8005098 <HAL_TIM_ConfigClockSource+0x4c>
 8005086:	2210      	movs	r2, #16
 8005088:	0019      	movs	r1, r3
 800508a:	4391      	bics	r1, r2
 800508c:	d006      	beq.n	800509c <HAL_TIM_ConfigClockSource+0x50>
 800508e:	2301      	movs	r3, #1
 8005090:	7033      	strb	r3, [r6, #0]
 8005092:	2300      	movs	r3, #0
 8005094:	702b      	strb	r3, [r5, #0]
 8005096:	bdf8      	pop	{r3, r4, r5, r6, r7, pc}
 8005098:	2b30      	cmp	r3, #48	@ 0x30
 800509a:	d1f8      	bne.n	800508e <HAL_TIM_ConfigClockSource+0x42>
 800509c:	2170      	movs	r1, #112	@ 0x70
 800509e:	68a2      	ldr	r2, [r4, #8]
 80050a0:	438a      	bics	r2, r1
 80050a2:	4313      	orrs	r3, r2
 80050a4:	2207      	movs	r2, #7
 80050a6:	e028      	b.n	80050fa <HAL_TIM_ConfigClockSource+0xae>
 80050a8:	2b50      	cmp	r3, #80	@ 0x50
 80050aa:	d1f0      	bne.n	800508e <HAL_TIM_ConfigClockSource+0x42>
 80050ac:	684a      	ldr	r2, [r1, #4]
 80050ae:	68cb      	ldr	r3, [r1, #12]
 80050b0:	6a21      	ldr	r1, [r4, #32]
 80050b2:	6a27      	ldr	r7, [r4, #32]
 80050b4:	011b      	lsls	r3, r3, #4
 80050b6:	4387      	bics	r7, r0
 80050b8:	6227      	str	r7, [r4, #32]
 80050ba:	27f0      	movs	r7, #240	@ 0xf0
 80050bc:	69a0      	ldr	r0, [r4, #24]
 80050be:	43b8      	bics	r0, r7
 80050c0:	4303      	orrs	r3, r0
 80050c2:	200a      	movs	r0, #10
 80050c4:	61a3      	str	r3, [r4, #24]
 80050c6:	2370      	movs	r3, #112	@ 0x70
 80050c8:	4381      	bics	r1, r0
 80050ca:	430a      	orrs	r2, r1
 80050cc:	6222      	str	r2, [r4, #32]
 80050ce:	68a2      	ldr	r2, [r4, #8]
 80050d0:	439a      	bics	r2, r3
 80050d2:	3b19      	subs	r3, #25
 80050d4:	e011      	b.n	80050fa <HAL_TIM_ConfigClockSource+0xae>
 80050d6:	2280      	movs	r2, #128	@ 0x80
 80050d8:	0152      	lsls	r2, r2, #5
 80050da:	4293      	cmp	r3, r2
 80050dc:	d00f      	beq.n	80050fe <HAL_TIM_ConfigClockSource+0xb2>
 80050de:	2280      	movs	r2, #128	@ 0x80
 80050e0:	0192      	lsls	r2, r2, #6
 80050e2:	4293      	cmp	r3, r2
 80050e4:	d00d      	beq.n	8005102 <HAL_TIM_ConfigClockSource+0xb6>
 80050e6:	2b70      	cmp	r3, #112	@ 0x70
 80050e8:	d1d1      	bne.n	800508e <HAL_TIM_ConfigClockSource+0x42>
 80050ea:	68cb      	ldr	r3, [r1, #12]
 80050ec:	684a      	ldr	r2, [r1, #4]
 80050ee:	0020      	movs	r0, r4
 80050f0:	6889      	ldr	r1, [r1, #8]
 80050f2:	f7ff ff9f 	bl	8005034 <TIM_ETR_SetConfig>
 80050f6:	2377      	movs	r3, #119	@ 0x77
 80050f8:	68a2      	ldr	r2, [r4, #8]
 80050fa:	4313      	orrs	r3, r2
 80050fc:	60a3      	str	r3, [r4, #8]
 80050fe:	2000      	movs	r0, #0
 8005100:	e7c5      	b.n	800508e <HAL_TIM_ConfigClockSource+0x42>
 8005102:	68cb      	ldr	r3, [r1, #12]
 8005104:	684a      	ldr	r2, [r1, #4]
 8005106:	0020      	movs	r0, r4
 8005108:	6889      	ldr	r1, [r1, #8]
 800510a:	f7ff ff93 	bl	8005034 <TIM_ETR_SetConfig>
 800510e:	2380      	movs	r3, #128	@ 0x80
 8005110:	68a2      	ldr	r2, [r4, #8]
 8005112:	01db      	lsls	r3, r3, #7
 8005114:	e7f1      	b.n	80050fa <HAL_TIM_ConfigClockSource+0xae>
 8005116:	2710      	movs	r7, #16
 8005118:	684b      	ldr	r3, [r1, #4]
 800511a:	68ca      	ldr	r2, [r1, #12]
 800511c:	6a21      	ldr	r1, [r4, #32]
 800511e:	6a20      	ldr	r0, [r4, #32]
 8005120:	0312      	lsls	r2, r2, #12
 8005122:	43b8      	bics	r0, r7
 8005124:	6220      	str	r0, [r4, #32]
 8005126:	69a0      	ldr	r0, [r4, #24]
 8005128:	4f12      	ldr	r7, [pc, #72]	@ (8005174 <HAL_TIM_ConfigClockSource+0x128>)
 800512a:	011b      	lsls	r3, r3, #4
 800512c:	4038      	ands	r0, r7
 800512e:	4302      	orrs	r2, r0
 8005130:	20a0      	movs	r0, #160	@ 0xa0
 8005132:	4381      	bics	r1, r0
 8005134:	430b      	orrs	r3, r1
 8005136:	61a2      	str	r2, [r4, #24]
 8005138:	6223      	str	r3, [r4, #32]
 800513a:	2370      	movs	r3, #112	@ 0x70
 800513c:	68a2      	ldr	r2, [r4, #8]
 800513e:	439a      	bics	r2, r3
 8005140:	3b09      	subs	r3, #9
 8005142:	e7da      	b.n	80050fa <HAL_TIM_ConfigClockSource+0xae>
 8005144:	684a      	ldr	r2, [r1, #4]
 8005146:	68cb      	ldr	r3, [r1, #12]
 8005148:	6a21      	ldr	r1, [r4, #32]
 800514a:	6a27      	ldr	r7, [r4, #32]
 800514c:	011b      	lsls	r3, r3, #4
 800514e:	4387      	bics	r7, r0
 8005150:	6227      	str	r7, [r4, #32]
 8005152:	27f0      	movs	r7, #240	@ 0xf0
 8005154:	69a0      	ldr	r0, [r4, #24]
 8005156:	43b8      	bics	r0, r7
 8005158:	4303      	orrs	r3, r0
 800515a:	200a      	movs	r0, #10
 800515c:	61a3      	str	r3, [r4, #24]
 800515e:	2370      	movs	r3, #112	@ 0x70
 8005160:	4381      	bics	r1, r0
 8005162:	430a      	orrs	r2, r1
 8005164:	6222      	str	r2, [r4, #32]
 8005166:	68a2      	ldr	r2, [r4, #8]
 8005168:	439a      	bics	r2, r3
 800516a:	3b29      	subs	r3, #41	@ 0x29
 800516c:	e7c5      	b.n	80050fa <HAL_TIM_ConfigClockSource+0xae>
 800516e:	46c0      	nop			@ (mov r8, r8)
 8005170:	ffff0088 	.word	0xffff0088
 8005174:	ffff0fff 	.word	0xffff0fff

08005178 <TIM_CCxChannelCmd>:
 8005178:	231f      	movs	r3, #31
 800517a:	b510      	push	{r4, lr}
 800517c:	2401      	movs	r4, #1
 800517e:	4019      	ands	r1, r3
 8005180:	408c      	lsls	r4, r1
 8005182:	408a      	lsls	r2, r1
 8005184:	6a03      	ldr	r3, [r0, #32]
 8005186:	43a3      	bics	r3, r4
 8005188:	6203      	str	r3, [r0, #32]
 800518a:	6a03      	ldr	r3, [r0, #32]
 800518c:	431a      	orrs	r2, r3
 800518e:	6202      	str	r2, [r0, #32]
 8005190:	bd10      	pop	{r4, pc}
	...

08005194 <HAL_TIM_IC_Start_IT>:
 8005194:	0003      	movs	r3, r0
 8005196:	b510      	push	{r4, lr}
 8005198:	2900      	cmp	r1, #0
 800519a:	d12a      	bne.n	80051f2 <HAL_TIM_IC_Start_IT+0x5e>
 800519c:	333e      	adds	r3, #62	@ 0x3e
 800519e:	781a      	ldrb	r2, [r3, #0]
 80051a0:	3304      	adds	r3, #4
 80051a2:	781b      	ldrb	r3, [r3, #0]
 80051a4:	b2d2      	uxtb	r2, r2
 80051a6:	b2db      	uxtb	r3, r3
 80051a8:	2a01      	cmp	r2, #1
 80051aa:	d149      	bne.n	8005240 <HAL_TIM_IC_Start_IT+0xac>
 80051ac:	2b01      	cmp	r3, #1
 80051ae:	d147      	bne.n	8005240 <HAL_TIM_IC_Start_IT+0xac>
 80051b0:	0002      	movs	r2, r0
 80051b2:	3301      	adds	r3, #1
 80051b4:	2900      	cmp	r1, #0
 80051b6:	d126      	bne.n	8005206 <HAL_TIM_IC_Start_IT+0x72>
 80051b8:	323e      	adds	r2, #62	@ 0x3e
 80051ba:	7013      	strb	r3, [r2, #0]
 80051bc:	7113      	strb	r3, [r2, #4]
 80051be:	6804      	ldr	r4, [r0, #0]
 80051c0:	68e2      	ldr	r2, [r4, #12]
 80051c2:	4313      	orrs	r3, r2
 80051c4:	60e3      	str	r3, [r4, #12]
 80051c6:	6804      	ldr	r4, [r0, #0]
 80051c8:	2201      	movs	r2, #1
 80051ca:	0020      	movs	r0, r4
 80051cc:	f7ff ffd4 	bl	8005178 <TIM_CCxChannelCmd>
 80051d0:	4b1c      	ldr	r3, [pc, #112]	@ (8005244 <HAL_TIM_IC_Start_IT+0xb0>)
 80051d2:	429c      	cmp	r4, r3
 80051d4:	d006      	beq.n	80051e4 <HAL_TIM_IC_Start_IT+0x50>
 80051d6:	2380      	movs	r3, #128	@ 0x80
 80051d8:	05db      	lsls	r3, r3, #23
 80051da:	429c      	cmp	r4, r3
 80051dc:	d002      	beq.n	80051e4 <HAL_TIM_IC_Start_IT+0x50>
 80051de:	4b1a      	ldr	r3, [pc, #104]	@ (8005248 <HAL_TIM_IC_Start_IT+0xb4>)
 80051e0:	429c      	cmp	r4, r3
 80051e2:	d128      	bne.n	8005236 <HAL_TIM_IC_Start_IT+0xa2>
 80051e4:	2207      	movs	r2, #7
 80051e6:	68a3      	ldr	r3, [r4, #8]
 80051e8:	4013      	ands	r3, r2
 80051ea:	2b06      	cmp	r3, #6
 80051ec:	d123      	bne.n	8005236 <HAL_TIM_IC_Start_IT+0xa2>
 80051ee:	2000      	movs	r0, #0
 80051f0:	bd10      	pop	{r4, pc}
 80051f2:	2904      	cmp	r1, #4
 80051f4:	d101      	bne.n	80051fa <HAL_TIM_IC_Start_IT+0x66>
 80051f6:	333f      	adds	r3, #63	@ 0x3f
 80051f8:	e7d1      	b.n	800519e <HAL_TIM_IC_Start_IT+0xa>
 80051fa:	2908      	cmp	r1, #8
 80051fc:	d101      	bne.n	8005202 <HAL_TIM_IC_Start_IT+0x6e>
 80051fe:	3340      	adds	r3, #64	@ 0x40
 8005200:	e7cd      	b.n	800519e <HAL_TIM_IC_Start_IT+0xa>
 8005202:	3341      	adds	r3, #65	@ 0x41
 8005204:	e7cb      	b.n	800519e <HAL_TIM_IC_Start_IT+0xa>
 8005206:	2904      	cmp	r1, #4
 8005208:	d107      	bne.n	800521a <HAL_TIM_IC_Start_IT+0x86>
 800520a:	323f      	adds	r2, #63	@ 0x3f
 800520c:	7013      	strb	r3, [r2, #0]
 800520e:	7113      	strb	r3, [r2, #4]
 8005210:	6802      	ldr	r2, [r0, #0]
 8005212:	68d3      	ldr	r3, [r2, #12]
 8005214:	430b      	orrs	r3, r1
 8005216:	60d3      	str	r3, [r2, #12]
 8005218:	e7d5      	b.n	80051c6 <HAL_TIM_IC_Start_IT+0x32>
 800521a:	2908      	cmp	r1, #8
 800521c:	d101      	bne.n	8005222 <HAL_TIM_IC_Start_IT+0x8e>
 800521e:	3240      	adds	r2, #64	@ 0x40
 8005220:	e7f4      	b.n	800520c <HAL_TIM_IC_Start_IT+0x78>
 8005222:	3241      	adds	r2, #65	@ 0x41
 8005224:	7013      	strb	r3, [r2, #0]
 8005226:	7113      	strb	r3, [r2, #4]
 8005228:	290c      	cmp	r1, #12
 800522a:	d109      	bne.n	8005240 <HAL_TIM_IC_Start_IT+0xac>
 800522c:	2310      	movs	r3, #16
 800522e:	6802      	ldr	r2, [r0, #0]
 8005230:	68d4      	ldr	r4, [r2, #12]
 8005232:	4323      	orrs	r3, r4
 8005234:	e7ef      	b.n	8005216 <HAL_TIM_IC_Start_IT+0x82>
 8005236:	2301      	movs	r3, #1
 8005238:	6822      	ldr	r2, [r4, #0]
 800523a:	4313      	orrs	r3, r2
 800523c:	6023      	str	r3, [r4, #0]
 800523e:	e7d6      	b.n	80051ee <HAL_TIM_IC_Start_IT+0x5a>
 8005240:	2001      	movs	r0, #1
 8005242:	e7d5      	b.n	80051f0 <HAL_TIM_IC_Start_IT+0x5c>
 8005244:	40012c00 	.word	0x40012c00
 8005248:	40000400 	.word	0x40000400

0800524c <HAL_TIMEx_MasterConfigSynchronization>:
 800524c:	b570      	push	{r4, r5, r6, lr}
 800524e:	0004      	movs	r4, r0
 8005250:	2202      	movs	r2, #2
 8005252:	343c      	adds	r4, #60	@ 0x3c
 8005254:	7825      	ldrb	r5, [r4, #0]
 8005256:	0003      	movs	r3, r0
 8005258:	0010      	movs	r0, r2
 800525a:	2d01      	cmp	r5, #1
 800525c:	d01d      	beq.n	800529a <HAL_TIMEx_MasterConfigSynchronization+0x4e>
 800525e:	001d      	movs	r5, r3
 8005260:	2670      	movs	r6, #112	@ 0x70
 8005262:	353d      	adds	r5, #61	@ 0x3d
 8005264:	702a      	strb	r2, [r5, #0]
 8005266:	681b      	ldr	r3, [r3, #0]
 8005268:	6858      	ldr	r0, [r3, #4]
 800526a:	689a      	ldr	r2, [r3, #8]
 800526c:	43b0      	bics	r0, r6
 800526e:	680e      	ldr	r6, [r1, #0]
 8005270:	4330      	orrs	r0, r6
 8005272:	6058      	str	r0, [r3, #4]
 8005274:	4809      	ldr	r0, [pc, #36]	@ (800529c <HAL_TIMEx_MasterConfigSynchronization+0x50>)
 8005276:	4283      	cmp	r3, r0
 8005278:	d006      	beq.n	8005288 <HAL_TIMEx_MasterConfigSynchronization+0x3c>
 800527a:	2080      	movs	r0, #128	@ 0x80
 800527c:	05c0      	lsls	r0, r0, #23
 800527e:	4283      	cmp	r3, r0
 8005280:	d002      	beq.n	8005288 <HAL_TIMEx_MasterConfigSynchronization+0x3c>
 8005282:	4807      	ldr	r0, [pc, #28]	@ (80052a0 <HAL_TIMEx_MasterConfigSynchronization+0x54>)
 8005284:	4283      	cmp	r3, r0
 8005286:	d104      	bne.n	8005292 <HAL_TIMEx_MasterConfigSynchronization+0x46>
 8005288:	2080      	movs	r0, #128	@ 0x80
 800528a:	6849      	ldr	r1, [r1, #4]
 800528c:	4382      	bics	r2, r0
 800528e:	430a      	orrs	r2, r1
 8005290:	609a      	str	r2, [r3, #8]
 8005292:	2301      	movs	r3, #1
 8005294:	2000      	movs	r0, #0
 8005296:	702b      	strb	r3, [r5, #0]
 8005298:	7020      	strb	r0, [r4, #0]
 800529a:	bd70      	pop	{r4, r5, r6, pc}
 800529c:	40012c00 	.word	0x40012c00
 80052a0:	40000400 	.word	0x40000400

080052a4 <HAL_TIMEx_CommutCallback>:
 80052a4:	4770      	bx	lr

080052a6 <HAL_TIMEx_BreakCallback>:
 80052a6:	4770      	bx	lr

080052a8 <USB_EnableGlobalInt>:
 80052a8:	1d82      	adds	r2, r0, #6
 80052aa:	0003      	movs	r3, r0
 80052ac:	2000      	movs	r0, #0
 80052ae:	87d0      	strh	r0, [r2, #62]	@ 0x3e
 80052b0:	4a01      	ldr	r2, [pc, #4]	@ (80052b8 <USB_EnableGlobalInt+0x10>)
 80052b2:	3302      	adds	r3, #2
 80052b4:	87da      	strh	r2, [r3, #62]	@ 0x3e
 80052b6:	4770      	bx	lr
 80052b8:	ffffbf80 	.word	0xffffbf80

080052bc <USB_DisableGlobalInt>:
 80052bc:	3002      	adds	r0, #2
 80052be:	8fc3      	ldrh	r3, [r0, #62]	@ 0x3e
 80052c0:	4a02      	ldr	r2, [pc, #8]	@ (80052cc <USB_DisableGlobalInt+0x10>)
 80052c2:	4013      	ands	r3, r2
 80052c4:	87c3      	strh	r3, [r0, #62]	@ 0x3e
 80052c6:	2000      	movs	r0, #0
 80052c8:	4770      	bx	lr
 80052ca:	46c0      	nop			@ (mov r8, r8)
 80052cc:	0000407f 	.word	0x0000407f

080052d0 <USB_DevInit>:
 80052d0:	1c82      	adds	r2, r0, #2
 80052d2:	0003      	movs	r3, r0
 80052d4:	2101      	movs	r1, #1
 80052d6:	2000      	movs	r0, #0
 80052d8:	b082      	sub	sp, #8
 80052da:	87d1      	strh	r1, [r2, #62]	@ 0x3e
 80052dc:	87d0      	strh	r0, [r2, #62]	@ 0x3e
 80052de:	1d9a      	adds	r2, r3, #6
 80052e0:	3350      	adds	r3, #80	@ 0x50
 80052e2:	87d0      	strh	r0, [r2, #62]	@ 0x3e
 80052e4:	8018      	strh	r0, [r3, #0]
 80052e6:	b002      	add	sp, #8
 80052e8:	4770      	bx	lr
	...

080052ec <USB_ActivateEndpoint>:
 80052ec:	b5f7      	push	{r0, r1, r2, r4, r5, r6, r7, lr}
 80052ee:	780e      	ldrb	r6, [r1, #0]
 80052f0:	4a7a      	ldr	r2, [pc, #488]	@ (80054dc <USB_ActivateEndpoint+0x1f0>)
 80052f2:	00b3      	lsls	r3, r6, #2
 80052f4:	18c3      	adds	r3, r0, r3
 80052f6:	881c      	ldrh	r4, [r3, #0]
 80052f8:	78cf      	ldrb	r7, [r1, #3]
 80052fa:	4014      	ands	r4, r2
 80052fc:	2201      	movs	r2, #1
 80052fe:	0005      	movs	r5, r0
 8005300:	9200      	str	r2, [sp, #0]
 8005302:	2f03      	cmp	r7, #3
 8005304:	d808      	bhi.n	8005318 <USB_ActivateEndpoint+0x2c>
 8005306:	0038      	movs	r0, r7
 8005308:	f7fa ff10 	bl	800012c <__gnu_thumb1_case_uqi>
 800530c:	3c3f4202 	.word	0x3c3f4202
 8005310:	2280      	movs	r2, #128	@ 0x80
 8005312:	0092      	lsls	r2, r2, #2
 8005314:	4314      	orrs	r4, r2
 8005316:	9700      	str	r7, [sp, #0]
 8005318:	4a71      	ldr	r2, [pc, #452]	@ (80054e0 <USB_ActivateEndpoint+0x1f4>)
 800531a:	4314      	orrs	r4, r2
 800531c:	b2a4      	uxth	r4, r4
 800531e:	801c      	strh	r4, [r3, #0]
 8005320:	8818      	ldrh	r0, [r3, #0]
 8005322:	4c70      	ldr	r4, [pc, #448]	@ (80054e4 <USB_ActivateEndpoint+0x1f8>)
 8005324:	4020      	ands	r0, r4
 8005326:	4330      	orrs	r0, r6
 8005328:	4310      	orrs	r0, r2
 800532a:	b280      	uxth	r0, r0
 800532c:	8018      	strh	r0, [r3, #0]
 800532e:	00f0      	lsls	r0, r6, #3
 8005330:	4684      	mov	ip, r0
 8005332:	7b08      	ldrb	r0, [r1, #12]
 8005334:	44ac      	add	ip, r5
 8005336:	3550      	adds	r5, #80	@ 0x50
 8005338:	9501      	str	r5, [sp, #4]
 800533a:	2800      	cmp	r0, #0
 800533c:	d000      	beq.n	8005340 <USB_ActivateEndpoint+0x54>
 800533e:	e06b      	b.n	8005418 <USB_ActivateEndpoint+0x12c>
 8005340:	88cd      	ldrh	r5, [r1, #6]
 8005342:	7848      	ldrb	r0, [r1, #1]
 8005344:	086d      	lsrs	r5, r5, #1
 8005346:	006d      	lsls	r5, r5, #1
 8005348:	2800      	cmp	r0, #0
 800534a:	d023      	beq.n	8005394 <USB_ActivateEndpoint+0xa8>
 800534c:	2080      	movs	r0, #128	@ 0x80
 800534e:	9901      	ldr	r1, [sp, #4]
 8005350:	00c0      	lsls	r0, r0, #3
 8005352:	8809      	ldrh	r1, [r1, #0]
 8005354:	4461      	add	r1, ip
 8005356:	1809      	adds	r1, r1, r0
 8005358:	800d      	strh	r5, [r1, #0]
 800535a:	8819      	ldrh	r1, [r3, #0]
 800535c:	0649      	lsls	r1, r1, #25
 800535e:	d504      	bpl.n	800536a <USB_ActivateEndpoint+0x7e>
 8005360:	8819      	ldrh	r1, [r3, #0]
 8005362:	4021      	ands	r1, r4
 8005364:	4c60      	ldr	r4, [pc, #384]	@ (80054e8 <USB_ActivateEndpoint+0x1fc>)
 8005366:	4321      	orrs	r1, r4
 8005368:	8019      	strh	r1, [r3, #0]
 800536a:	4d60      	ldr	r5, [pc, #384]	@ (80054ec <USB_ActivateEndpoint+0x200>)
 800536c:	2f01      	cmp	r7, #1
 800536e:	d100      	bne.n	8005372 <USB_ActivateEndpoint+0x86>
 8005370:	e0ae      	b.n	80054d0 <USB_ActivateEndpoint+0x1e4>
 8005372:	2120      	movs	r1, #32
 8005374:	881c      	ldrh	r4, [r3, #0]
 8005376:	402c      	ands	r4, r5
 8005378:	4061      	eors	r1, r4
 800537a:	430a      	orrs	r2, r1
 800537c:	b292      	uxth	r2, r2
 800537e:	9800      	ldr	r0, [sp, #0]
 8005380:	801a      	strh	r2, [r3, #0]
 8005382:	bdfe      	pop	{r1, r2, r3, r4, r5, r6, r7, pc}
 8005384:	22c0      	movs	r2, #192	@ 0xc0
 8005386:	00d2      	lsls	r2, r2, #3
 8005388:	4314      	orrs	r4, r2
 800538a:	2200      	movs	r2, #0
 800538c:	9200      	str	r2, [sp, #0]
 800538e:	e7c3      	b.n	8005318 <USB_ActivateEndpoint+0x2c>
 8005390:	2280      	movs	r2, #128	@ 0x80
 8005392:	e7f8      	b.n	8005386 <USB_ActivateEndpoint+0x9a>
 8005394:	9801      	ldr	r0, [sp, #4]
 8005396:	6909      	ldr	r1, [r1, #16]
 8005398:	8807      	ldrh	r7, [r0, #0]
 800539a:	4855      	ldr	r0, [pc, #340]	@ (80054f0 <USB_ActivateEndpoint+0x204>)
 800539c:	4467      	add	r7, ip
 800539e:	183f      	adds	r7, r7, r0
 80053a0:	9801      	ldr	r0, [sp, #4]
 80053a2:	803d      	strh	r5, [r7, #0]
 80053a4:	8805      	ldrh	r5, [r0, #0]
 80053a6:	4853      	ldr	r0, [pc, #332]	@ (80054f4 <USB_ActivateEndpoint+0x208>)
 80053a8:	4465      	add	r5, ip
 80053aa:	182d      	adds	r5, r5, r0
 80053ac:	882f      	ldrh	r7, [r5, #0]
 80053ae:	05bf      	lsls	r7, r7, #22
 80053b0:	0dbf      	lsrs	r7, r7, #22
 80053b2:	802f      	strh	r7, [r5, #0]
 80053b4:	2900      	cmp	r1, #0
 80053b6:	d115      	bne.n	80053e4 <USB_ActivateEndpoint+0xf8>
 80053b8:	2780      	movs	r7, #128	@ 0x80
 80053ba:	8829      	ldrh	r1, [r5, #0]
 80053bc:	023f      	lsls	r7, r7, #8
 80053be:	4339      	orrs	r1, r7
 80053c0:	8029      	strh	r1, [r5, #0]
 80053c2:	8819      	ldrh	r1, [r3, #0]
 80053c4:	0449      	lsls	r1, r1, #17
 80053c6:	d504      	bpl.n	80053d2 <USB_ActivateEndpoint+0xe6>
 80053c8:	8819      	ldrh	r1, [r3, #0]
 80053ca:	4021      	ands	r1, r4
 80053cc:	4c4a      	ldr	r4, [pc, #296]	@ (80054f8 <USB_ActivateEndpoint+0x20c>)
 80053ce:	4321      	orrs	r1, r4
 80053d0:	8019      	strh	r1, [r3, #0]
 80053d2:	494a      	ldr	r1, [pc, #296]	@ (80054fc <USB_ActivateEndpoint+0x210>)
 80053d4:	881c      	ldrh	r4, [r3, #0]
 80053d6:	400c      	ands	r4, r1
 80053d8:	21c0      	movs	r1, #192	@ 0xc0
 80053da:	2e00      	cmp	r6, #0
 80053dc:	d000      	beq.n	80053e0 <USB_ActivateEndpoint+0xf4>
 80053de:	2180      	movs	r1, #128	@ 0x80
 80053e0:	0189      	lsls	r1, r1, #6
 80053e2:	e7c9      	b.n	8005378 <USB_ActivateEndpoint+0x8c>
 80053e4:	293e      	cmp	r1, #62	@ 0x3e
 80053e6:	d808      	bhi.n	80053fa <USB_ActivateEndpoint+0x10e>
 80053e8:	2001      	movs	r0, #1
 80053ea:	084f      	lsrs	r7, r1, #1
 80053ec:	4001      	ands	r1, r0
 80053ee:	187f      	adds	r7, r7, r1
 80053f0:	8829      	ldrh	r1, [r5, #0]
 80053f2:	02bf      	lsls	r7, r7, #10
 80053f4:	4339      	orrs	r1, r7
 80053f6:	b289      	uxth	r1, r1
 80053f8:	e7e2      	b.n	80053c0 <USB_ActivateEndpoint+0xd4>
 80053fa:	201f      	movs	r0, #31
 80053fc:	094f      	lsrs	r7, r1, #5
 80053fe:	4001      	ands	r1, r0
 8005400:	0008      	movs	r0, r1
 8005402:	4241      	negs	r1, r0
 8005404:	4141      	adcs	r1, r0
 8005406:	1a7f      	subs	r7, r7, r1
 8005408:	8829      	ldrh	r1, [r5, #0]
 800540a:	02bf      	lsls	r7, r7, #10
 800540c:	4339      	orrs	r1, r7
 800540e:	4f3c      	ldr	r7, [pc, #240]	@ (8005500 <USB_ActivateEndpoint+0x214>)
 8005410:	430f      	orrs	r7, r1
 8005412:	b2bf      	uxth	r7, r7
 8005414:	802f      	strh	r7, [r5, #0]
 8005416:	e7d4      	b.n	80053c2 <USB_ActivateEndpoint+0xd6>
 8005418:	881d      	ldrh	r5, [r3, #0]
 800541a:	2f02      	cmp	r7, #2
 800541c:	d13a      	bne.n	8005494 <USB_ActivateEndpoint+0x1a8>
 800541e:	4e39      	ldr	r6, [pc, #228]	@ (8005504 <USB_ActivateEndpoint+0x218>)
 8005420:	4025      	ands	r5, r4
 8005422:	4335      	orrs	r5, r6
 8005424:	9801      	ldr	r0, [sp, #4]
 8005426:	801d      	strh	r5, [r3, #0]
 8005428:	8805      	ldrh	r5, [r0, #0]
 800542a:	2080      	movs	r0, #128	@ 0x80
 800542c:	890e      	ldrh	r6, [r1, #8]
 800542e:	4465      	add	r5, ip
 8005430:	00c0      	lsls	r0, r0, #3
 8005432:	0876      	lsrs	r6, r6, #1
 8005434:	182d      	adds	r5, r5, r0
 8005436:	0076      	lsls	r6, r6, #1
 8005438:	9801      	ldr	r0, [sp, #4]
 800543a:	802e      	strh	r6, [r5, #0]
 800543c:	8805      	ldrh	r5, [r0, #0]
 800543e:	894e      	ldrh	r6, [r1, #10]
 8005440:	482b      	ldr	r0, [pc, #172]	@ (80054f0 <USB_ActivateEndpoint+0x204>)
 8005442:	4465      	add	r5, ip
 8005444:	0876      	lsrs	r6, r6, #1
 8005446:	182d      	adds	r5, r5, r0
 8005448:	0076      	lsls	r6, r6, #1
 800544a:	802e      	strh	r6, [r5, #0]
 800544c:	7849      	ldrb	r1, [r1, #1]
 800544e:	4e27      	ldr	r6, [pc, #156]	@ (80054ec <USB_ActivateEndpoint+0x200>)
 8005450:	468c      	mov	ip, r1
 8005452:	2180      	movs	r1, #128	@ 0x80
 8005454:	4660      	mov	r0, ip
 8005456:	4d29      	ldr	r5, [pc, #164]	@ (80054fc <USB_ActivateEndpoint+0x210>)
 8005458:	01c9      	lsls	r1, r1, #7
 800545a:	2800      	cmp	r0, #0
 800545c:	d11f      	bne.n	800549e <USB_ActivateEndpoint+0x1b2>
 800545e:	881f      	ldrh	r7, [r3, #0]
 8005460:	420f      	tst	r7, r1
 8005462:	d004      	beq.n	800546e <USB_ActivateEndpoint+0x182>
 8005464:	8819      	ldrh	r1, [r3, #0]
 8005466:	4f24      	ldr	r7, [pc, #144]	@ (80054f8 <USB_ActivateEndpoint+0x20c>)
 8005468:	4021      	ands	r1, r4
 800546a:	4339      	orrs	r1, r7
 800546c:	8019      	strh	r1, [r3, #0]
 800546e:	8819      	ldrh	r1, [r3, #0]
 8005470:	0649      	lsls	r1, r1, #25
 8005472:	d504      	bpl.n	800547e <USB_ActivateEndpoint+0x192>
 8005474:	8819      	ldrh	r1, [r3, #0]
 8005476:	4021      	ands	r1, r4
 8005478:	4c1b      	ldr	r4, [pc, #108]	@ (80054e8 <USB_ActivateEndpoint+0x1fc>)
 800547a:	4321      	orrs	r1, r4
 800547c:	8019      	strh	r1, [r3, #0]
 800547e:	21c0      	movs	r1, #192	@ 0xc0
 8005480:	881c      	ldrh	r4, [r3, #0]
 8005482:	0189      	lsls	r1, r1, #6
 8005484:	402c      	ands	r4, r5
 8005486:	4061      	eors	r1, r4
 8005488:	4311      	orrs	r1, r2
 800548a:	b289      	uxth	r1, r1
 800548c:	8019      	strh	r1, [r3, #0]
 800548e:	8819      	ldrh	r1, [r3, #0]
 8005490:	4031      	ands	r1, r6
 8005492:	e772      	b.n	800537a <USB_ActivateEndpoint+0x8e>
 8005494:	4e1c      	ldr	r6, [pc, #112]	@ (8005508 <USB_ActivateEndpoint+0x21c>)
 8005496:	4035      	ands	r5, r6
 8005498:	4315      	orrs	r5, r2
 800549a:	b2ad      	uxth	r5, r5
 800549c:	e7c2      	b.n	8005424 <USB_ActivateEndpoint+0x138>
 800549e:	8818      	ldrh	r0, [r3, #0]
 80054a0:	4208      	tst	r0, r1
 80054a2:	d004      	beq.n	80054ae <USB_ActivateEndpoint+0x1c2>
 80054a4:	8819      	ldrh	r1, [r3, #0]
 80054a6:	4814      	ldr	r0, [pc, #80]	@ (80054f8 <USB_ActivateEndpoint+0x20c>)
 80054a8:	4021      	ands	r1, r4
 80054aa:	4301      	orrs	r1, r0
 80054ac:	8019      	strh	r1, [r3, #0]
 80054ae:	8819      	ldrh	r1, [r3, #0]
 80054b0:	0649      	lsls	r1, r1, #25
 80054b2:	d504      	bpl.n	80054be <USB_ActivateEndpoint+0x1d2>
 80054b4:	8819      	ldrh	r1, [r3, #0]
 80054b6:	4021      	ands	r1, r4
 80054b8:	4c0b      	ldr	r4, [pc, #44]	@ (80054e8 <USB_ActivateEndpoint+0x1fc>)
 80054ba:	4321      	orrs	r1, r4
 80054bc:	8019      	strh	r1, [r3, #0]
 80054be:	2f01      	cmp	r7, #1
 80054c0:	d009      	beq.n	80054d6 <USB_ActivateEndpoint+0x1ea>
 80054c2:	2120      	movs	r1, #32
 80054c4:	881c      	ldrh	r4, [r3, #0]
 80054c6:	4034      	ands	r4, r6
 80054c8:	4061      	eors	r1, r4
 80054ca:	4311      	orrs	r1, r2
 80054cc:	b289      	uxth	r1, r1
 80054ce:	8019      	strh	r1, [r3, #0]
 80054d0:	8819      	ldrh	r1, [r3, #0]
 80054d2:	4029      	ands	r1, r5
 80054d4:	e751      	b.n	800537a <USB_ActivateEndpoint+0x8e>
 80054d6:	8819      	ldrh	r1, [r3, #0]
 80054d8:	4031      	ands	r1, r6
 80054da:	e7f6      	b.n	80054ca <USB_ActivateEndpoint+0x1de>
 80054dc:	ffff898f 	.word	0xffff898f
 80054e0:	ffff8080 	.word	0xffff8080
 80054e4:	ffff8f8f 	.word	0xffff8f8f
 80054e8:	000080c0 	.word	0x000080c0
 80054ec:	ffff8fbf 	.word	0xffff8fbf
 80054f0:	00000404 	.word	0x00000404
 80054f4:	00000406 	.word	0x00000406
 80054f8:	0000c080 	.word	0x0000c080
 80054fc:	ffffbf8f 	.word	0xffffbf8f
 8005500:	ffff8000 	.word	0xffff8000
 8005504:	00008180 	.word	0x00008180
 8005508:	ffff8e8f 	.word	0xffff8e8f

0800550c <USB_DeactivateEndpoint>:
 800550c:	b5f0      	push	{r4, r5, r6, r7, lr}
 800550e:	780b      	ldrb	r3, [r1, #0]
 8005510:	784a      	ldrb	r2, [r1, #1]
 8005512:	7b09      	ldrb	r1, [r1, #12]
 8005514:	009b      	lsls	r3, r3, #2
 8005516:	18c0      	adds	r0, r0, r3
 8005518:	4b31      	ldr	r3, [pc, #196]	@ (80055e0 <USB_DeactivateEndpoint+0xd4>)
 800551a:	2900      	cmp	r1, #0
 800551c:	d11a      	bne.n	8005554 <USB_DeactivateEndpoint+0x48>
 800551e:	2a00      	cmp	r2, #0
 8005520:	d00c      	beq.n	800553c <USB_DeactivateEndpoint+0x30>
 8005522:	8802      	ldrh	r2, [r0, #0]
 8005524:	0652      	lsls	r2, r2, #25
 8005526:	d505      	bpl.n	8005534 <USB_DeactivateEndpoint+0x28>
 8005528:	8802      	ldrh	r2, [r0, #0]
 800552a:	492e      	ldr	r1, [pc, #184]	@ (80055e4 <USB_DeactivateEndpoint+0xd8>)
 800552c:	400a      	ands	r2, r1
 800552e:	492e      	ldr	r1, [pc, #184]	@ (80055e8 <USB_DeactivateEndpoint+0xdc>)
 8005530:	430a      	orrs	r2, r1
 8005532:	8002      	strh	r2, [r0, #0]
 8005534:	8802      	ldrh	r2, [r0, #0]
 8005536:	492d      	ldr	r1, [pc, #180]	@ (80055ec <USB_DeactivateEndpoint+0xe0>)
 8005538:	400a      	ands	r2, r1
 800553a:	e02f      	b.n	800559c <USB_DeactivateEndpoint+0x90>
 800553c:	8802      	ldrh	r2, [r0, #0]
 800553e:	0452      	lsls	r2, r2, #17
 8005540:	d505      	bpl.n	800554e <USB_DeactivateEndpoint+0x42>
 8005542:	8802      	ldrh	r2, [r0, #0]
 8005544:	4927      	ldr	r1, [pc, #156]	@ (80055e4 <USB_DeactivateEndpoint+0xd8>)
 8005546:	400a      	ands	r2, r1
 8005548:	4929      	ldr	r1, [pc, #164]	@ (80055f0 <USB_DeactivateEndpoint+0xe4>)
 800554a:	430a      	orrs	r2, r1
 800554c:	8002      	strh	r2, [r0, #0]
 800554e:	8802      	ldrh	r2, [r0, #0]
 8005550:	4928      	ldr	r1, [pc, #160]	@ (80055f4 <USB_DeactivateEndpoint+0xe8>)
 8005552:	e7f1      	b.n	8005538 <USB_DeactivateEndpoint+0x2c>
 8005554:	2780      	movs	r7, #128	@ 0x80
 8005556:	4e23      	ldr	r6, [pc, #140]	@ (80055e4 <USB_DeactivateEndpoint+0xd8>)
 8005558:	4d24      	ldr	r5, [pc, #144]	@ (80055ec <USB_DeactivateEndpoint+0xe0>)
 800555a:	4926      	ldr	r1, [pc, #152]	@ (80055f4 <USB_DeactivateEndpoint+0xe8>)
 800555c:	01ff      	lsls	r7, r7, #7
 800555e:	2a00      	cmp	r2, #0
 8005560:	d121      	bne.n	80055a6 <USB_DeactivateEndpoint+0x9a>
 8005562:	8802      	ldrh	r2, [r0, #0]
 8005564:	423a      	tst	r2, r7
 8005566:	d004      	beq.n	8005572 <USB_DeactivateEndpoint+0x66>
 8005568:	8802      	ldrh	r2, [r0, #0]
 800556a:	4c21      	ldr	r4, [pc, #132]	@ (80055f0 <USB_DeactivateEndpoint+0xe4>)
 800556c:	4032      	ands	r2, r6
 800556e:	4322      	orrs	r2, r4
 8005570:	8002      	strh	r2, [r0, #0]
 8005572:	8802      	ldrh	r2, [r0, #0]
 8005574:	4c20      	ldr	r4, [pc, #128]	@ (80055f8 <USB_DeactivateEndpoint+0xec>)
 8005576:	0652      	lsls	r2, r2, #25
 8005578:	d504      	bpl.n	8005584 <USB_DeactivateEndpoint+0x78>
 800557a:	8802      	ldrh	r2, [r0, #0]
 800557c:	4032      	ands	r2, r6
 800557e:	4322      	orrs	r2, r4
 8005580:	b292      	uxth	r2, r2
 8005582:	8002      	strh	r2, [r0, #0]
 8005584:	8802      	ldrh	r2, [r0, #0]
 8005586:	4032      	ands	r2, r6
 8005588:	4314      	orrs	r4, r2
 800558a:	b2a4      	uxth	r4, r4
 800558c:	8004      	strh	r4, [r0, #0]
 800558e:	8802      	ldrh	r2, [r0, #0]
 8005590:	400a      	ands	r2, r1
 8005592:	431a      	orrs	r2, r3
 8005594:	b292      	uxth	r2, r2
 8005596:	8002      	strh	r2, [r0, #0]
 8005598:	8802      	ldrh	r2, [r0, #0]
 800559a:	402a      	ands	r2, r5
 800559c:	4313      	orrs	r3, r2
 800559e:	b29b      	uxth	r3, r3
 80055a0:	8003      	strh	r3, [r0, #0]
 80055a2:	2000      	movs	r0, #0
 80055a4:	bdf0      	pop	{r4, r5, r6, r7, pc}
 80055a6:	8802      	ldrh	r2, [r0, #0]
 80055a8:	4c14      	ldr	r4, [pc, #80]	@ (80055fc <USB_DeactivateEndpoint+0xf0>)
 80055aa:	423a      	tst	r2, r7
 80055ac:	d004      	beq.n	80055b8 <USB_DeactivateEndpoint+0xac>
 80055ae:	8802      	ldrh	r2, [r0, #0]
 80055b0:	4032      	ands	r2, r6
 80055b2:	4322      	orrs	r2, r4
 80055b4:	b292      	uxth	r2, r2
 80055b6:	8002      	strh	r2, [r0, #0]
 80055b8:	8802      	ldrh	r2, [r0, #0]
 80055ba:	0652      	lsls	r2, r2, #25
 80055bc:	d504      	bpl.n	80055c8 <USB_DeactivateEndpoint+0xbc>
 80055be:	8802      	ldrh	r2, [r0, #0]
 80055c0:	4f09      	ldr	r7, [pc, #36]	@ (80055e8 <USB_DeactivateEndpoint+0xdc>)
 80055c2:	4032      	ands	r2, r6
 80055c4:	433a      	orrs	r2, r7
 80055c6:	8002      	strh	r2, [r0, #0]
 80055c8:	8802      	ldrh	r2, [r0, #0]
 80055ca:	4032      	ands	r2, r6
 80055cc:	4314      	orrs	r4, r2
 80055ce:	b2a4      	uxth	r4, r4
 80055d0:	8004      	strh	r4, [r0, #0]
 80055d2:	8802      	ldrh	r2, [r0, #0]
 80055d4:	402a      	ands	r2, r5
 80055d6:	431a      	orrs	r2, r3
 80055d8:	b292      	uxth	r2, r2
 80055da:	8002      	strh	r2, [r0, #0]
 80055dc:	8802      	ldrh	r2, [r0, #0]
 80055de:	e7ab      	b.n	8005538 <USB_DeactivateEndpoint+0x2c>
 80055e0:	ffff8080 	.word	0xffff8080
 80055e4:	ffff8f8f 	.word	0xffff8f8f
 80055e8:	000080c0 	.word	0x000080c0
 80055ec:	ffff8fbf 	.word	0xffff8fbf
 80055f0:	0000c080 	.word	0x0000c080
 80055f4:	ffffbf8f 	.word	0xffffbf8f
 80055f8:	ffff80c0 	.word	0xffff80c0
 80055fc:	ffffc080 	.word	0xffffc080

08005600 <USB_EPSetStall>:
 8005600:	780b      	ldrb	r3, [r1, #0]
 8005602:	7849      	ldrb	r1, [r1, #1]
 8005604:	009b      	lsls	r3, r3, #2
 8005606:	4a0c      	ldr	r2, [pc, #48]	@ (8005638 <USB_EPSetStall+0x38>)
 8005608:	18c0      	adds	r0, r0, r3
 800560a:	2900      	cmp	r1, #0
 800560c:	d009      	beq.n	8005622 <USB_EPSetStall+0x22>
 800560e:	8801      	ldrh	r1, [r0, #0]
 8005610:	4b0a      	ldr	r3, [pc, #40]	@ (800563c <USB_EPSetStall+0x3c>)
 8005612:	4019      	ands	r1, r3
 8005614:	2310      	movs	r3, #16
 8005616:	404b      	eors	r3, r1
 8005618:	4313      	orrs	r3, r2
 800561a:	b29b      	uxth	r3, r3
 800561c:	8003      	strh	r3, [r0, #0]
 800561e:	2000      	movs	r0, #0
 8005620:	4770      	bx	lr
 8005622:	8801      	ldrh	r1, [r0, #0]
 8005624:	4b06      	ldr	r3, [pc, #24]	@ (8005640 <USB_EPSetStall+0x40>)
 8005626:	4019      	ands	r1, r3
 8005628:	2380      	movs	r3, #128	@ 0x80
 800562a:	015b      	lsls	r3, r3, #5
 800562c:	404b      	eors	r3, r1
 800562e:	431a      	orrs	r2, r3
 8005630:	b292      	uxth	r2, r2
 8005632:	8002      	strh	r2, [r0, #0]
 8005634:	e7f3      	b.n	800561e <USB_EPSetStall+0x1e>
 8005636:	46c0      	nop			@ (mov r8, r8)
 8005638:	ffff8080 	.word	0xffff8080
 800563c:	ffff8fbf 	.word	0xffff8fbf
 8005640:	ffffbf8f 	.word	0xffffbf8f

08005644 <USB_EPClearStall>:
 8005644:	7b0b      	ldrb	r3, [r1, #12]
 8005646:	2b00      	cmp	r3, #0
 8005648:	d119      	bne.n	800567e <USB_EPClearStall+0x3a>
 800564a:	780b      	ldrb	r3, [r1, #0]
 800564c:	784a      	ldrb	r2, [r1, #1]
 800564e:	009b      	lsls	r3, r3, #2
 8005650:	18c0      	adds	r0, r0, r3
 8005652:	8803      	ldrh	r3, [r0, #0]
 8005654:	2a00      	cmp	r2, #0
 8005656:	d014      	beq.n	8005682 <USB_EPClearStall+0x3e>
 8005658:	065b      	lsls	r3, r3, #25
 800565a:	d505      	bpl.n	8005668 <USB_EPClearStall+0x24>
 800565c:	8803      	ldrh	r3, [r0, #0]
 800565e:	4a10      	ldr	r2, [pc, #64]	@ (80056a0 <USB_EPClearStall+0x5c>)
 8005660:	4013      	ands	r3, r2
 8005662:	4a10      	ldr	r2, [pc, #64]	@ (80056a4 <USB_EPClearStall+0x60>)
 8005664:	4313      	orrs	r3, r2
 8005666:	8003      	strh	r3, [r0, #0]
 8005668:	78cb      	ldrb	r3, [r1, #3]
 800566a:	2b01      	cmp	r3, #1
 800566c:	d007      	beq.n	800567e <USB_EPClearStall+0x3a>
 800566e:	4b0e      	ldr	r3, [pc, #56]	@ (80056a8 <USB_EPClearStall+0x64>)
 8005670:	8802      	ldrh	r2, [r0, #0]
 8005672:	401a      	ands	r2, r3
 8005674:	2320      	movs	r3, #32
 8005676:	4053      	eors	r3, r2
 8005678:	4a0c      	ldr	r2, [pc, #48]	@ (80056ac <USB_EPClearStall+0x68>)
 800567a:	4313      	orrs	r3, r2
 800567c:	8003      	strh	r3, [r0, #0]
 800567e:	2000      	movs	r0, #0
 8005680:	4770      	bx	lr
 8005682:	045b      	lsls	r3, r3, #17
 8005684:	d505      	bpl.n	8005692 <USB_EPClearStall+0x4e>
 8005686:	8803      	ldrh	r3, [r0, #0]
 8005688:	4a05      	ldr	r2, [pc, #20]	@ (80056a0 <USB_EPClearStall+0x5c>)
 800568a:	4013      	ands	r3, r2
 800568c:	4a08      	ldr	r2, [pc, #32]	@ (80056b0 <USB_EPClearStall+0x6c>)
 800568e:	4313      	orrs	r3, r2
 8005690:	8003      	strh	r3, [r0, #0]
 8005692:	4b08      	ldr	r3, [pc, #32]	@ (80056b4 <USB_EPClearStall+0x70>)
 8005694:	8802      	ldrh	r2, [r0, #0]
 8005696:	401a      	ands	r2, r3
 8005698:	23c0      	movs	r3, #192	@ 0xc0
 800569a:	019b      	lsls	r3, r3, #6
 800569c:	e7eb      	b.n	8005676 <USB_EPClearStall+0x32>
 800569e:	46c0      	nop			@ (mov r8, r8)
 80056a0:	ffff8f8f 	.word	0xffff8f8f
 80056a4:	000080c0 	.word	0x000080c0
 80056a8:	ffff8fbf 	.word	0xffff8fbf
 80056ac:	00008080 	.word	0x00008080
 80056b0:	0000c080 	.word	0x0000c080
 80056b4:	ffffbf8f 	.word	0xffffbf8f

080056b8 <USB_SetDevAddress>:
 80056b8:	2900      	cmp	r1, #0
 80056ba:	d102      	bne.n	80056c2 <USB_SetDevAddress+0xa>
 80056bc:	2380      	movs	r3, #128	@ 0x80
 80056be:	304c      	adds	r0, #76	@ 0x4c
 80056c0:	8003      	strh	r3, [r0, #0]
 80056c2:	2000      	movs	r0, #0
 80056c4:	4770      	bx	lr

080056c6 <USB_DevConnect>:
 80056c6:	2280      	movs	r2, #128	@ 0x80
 80056c8:	3058      	adds	r0, #88	@ 0x58
 80056ca:	8803      	ldrh	r3, [r0, #0]
 80056cc:	0212      	lsls	r2, r2, #8
 80056ce:	4313      	orrs	r3, r2
 80056d0:	8003      	strh	r3, [r0, #0]
 80056d2:	2000      	movs	r0, #0
 80056d4:	4770      	bx	lr

080056d6 <USB_ReadInterrupts>:
 80056d6:	3006      	adds	r0, #6
 80056d8:	8fc0      	ldrh	r0, [r0, #62]	@ 0x3e
 80056da:	b280      	uxth	r0, r0
 80056dc:	4770      	bx	lr

080056de <USB_WritePMA>:
 80056de:	b530      	push	{r4, r5, lr}
 80056e0:	2480      	movs	r4, #128	@ 0x80
 80056e2:	3301      	adds	r3, #1
 80056e4:	00e4      	lsls	r4, r4, #3
 80056e6:	1912      	adds	r2, r2, r4
 80056e8:	085b      	lsrs	r3, r3, #1
 80056ea:	1880      	adds	r0, r0, r2
 80056ec:	005b      	lsls	r3, r3, #1
 80056ee:	18cb      	adds	r3, r1, r3
 80056f0:	1a40      	subs	r0, r0, r1
 80056f2:	180c      	adds	r4, r1, r0
 80056f4:	428b      	cmp	r3, r1
 80056f6:	d100      	bne.n	80056fa <USB_WritePMA+0x1c>
 80056f8:	bd30      	pop	{r4, r5, pc}
 80056fa:	784a      	ldrb	r2, [r1, #1]
 80056fc:	780d      	ldrb	r5, [r1, #0]
 80056fe:	0212      	lsls	r2, r2, #8
 8005700:	432a      	orrs	r2, r5
 8005702:	8022      	strh	r2, [r4, #0]
 8005704:	3102      	adds	r1, #2
 8005706:	e7f4      	b.n	80056f2 <USB_WritePMA+0x14>

08005708 <USB_EPStartXfer>:
 8005708:	b5f0      	push	{r4, r5, r6, r7, lr}
 800570a:	000c      	movs	r4, r1
 800570c:	7849      	ldrb	r1, [r1, #1]
 800570e:	0005      	movs	r5, r0
 8005710:	7b22      	ldrb	r2, [r4, #12]
 8005712:	b087      	sub	sp, #28
 8005714:	2901      	cmp	r1, #1
 8005716:	d000      	beq.n	800571a <USB_EPStartXfer+0x12>
 8005718:	e11b      	b.n	8005952 <USB_EPStartXfer+0x24a>
 800571a:	6923      	ldr	r3, [r4, #16]
 800571c:	69a7      	ldr	r7, [r4, #24]
 800571e:	9302      	str	r3, [sp, #8]
 8005720:	429f      	cmp	r7, r3
 8005722:	d900      	bls.n	8005726 <USB_EPStartXfer+0x1e>
 8005724:	001f      	movs	r7, r3
 8005726:	002b      	movs	r3, r5
 8005728:	3350      	adds	r3, #80	@ 0x50
 800572a:	6961      	ldr	r1, [r4, #20]
 800572c:	9301      	str	r3, [sp, #4]
 800572e:	2a00      	cmp	r2, #0
 8005730:	d11d      	bne.n	800576e <USB_EPStartXfer+0x66>
 8005732:	b2bf      	uxth	r7, r7
 8005734:	003b      	movs	r3, r7
 8005736:	88e2      	ldrh	r2, [r4, #6]
 8005738:	0028      	movs	r0, r5
 800573a:	f7ff ffd0 	bl	80056de <USB_WritePMA>
 800573e:	9b01      	ldr	r3, [sp, #4]
 8005740:	4abe      	ldr	r2, [pc, #760]	@ (8005a3c <USB_EPStartXfer+0x334>)
 8005742:	8819      	ldrh	r1, [r3, #0]
 8005744:	7823      	ldrb	r3, [r4, #0]
 8005746:	18aa      	adds	r2, r5, r2
 8005748:	00db      	lsls	r3, r3, #3
 800574a:	1852      	adds	r2, r2, r1
 800574c:	189b      	adds	r3, r3, r2
 800574e:	801f      	strh	r7, [r3, #0]
 8005750:	7823      	ldrb	r3, [r4, #0]
 8005752:	4abb      	ldr	r2, [pc, #748]	@ (8005a40 <USB_EPStartXfer+0x338>)
 8005754:	009b      	lsls	r3, r3, #2
 8005756:	18eb      	adds	r3, r5, r3
 8005758:	8819      	ldrh	r1, [r3, #0]
 800575a:	4011      	ands	r1, r2
 800575c:	2230      	movs	r2, #48	@ 0x30
 800575e:	404a      	eors	r2, r1
 8005760:	49b8      	ldr	r1, [pc, #736]	@ (8005a44 <USB_EPStartXfer+0x33c>)
 8005762:	430a      	orrs	r2, r1
 8005764:	b292      	uxth	r2, r2
 8005766:	801a      	strh	r2, [r3, #0]
 8005768:	2000      	movs	r0, #0
 800576a:	b007      	add	sp, #28
 800576c:	bdf0      	pop	{r4, r5, r6, r7, pc}
 800576e:	7822      	ldrb	r2, [r4, #0]
 8005770:	6a26      	ldr	r6, [r4, #32]
 8005772:	0093      	lsls	r3, r2, #2
 8005774:	00d2      	lsls	r2, r2, #3
 8005776:	9203      	str	r2, [sp, #12]
 8005778:	78e0      	ldrb	r0, [r4, #3]
 800577a:	18eb      	adds	r3, r5, r3
 800577c:	2802      	cmp	r0, #2
 800577e:	d000      	beq.n	8005782 <USB_EPStartXfer+0x7a>
 8005780:	e0d1      	b.n	8005926 <USB_EPStartXfer+0x21e>
 8005782:	9a02      	ldr	r2, [sp, #8]
 8005784:	42b2      	cmp	r2, r6
 8005786:	d300      	bcc.n	800578a <USB_EPStartXfer+0x82>
 8005788:	e0bb      	b.n	8005902 <USB_EPStartXfer+0x1fa>
 800578a:	881a      	ldrh	r2, [r3, #0]
 800578c:	48ae      	ldr	r0, [pc, #696]	@ (8005a48 <USB_EPStartXfer+0x340>)
 800578e:	1bf6      	subs	r6, r6, r7
 8005790:	4010      	ands	r0, r2
 8005792:	4aae      	ldr	r2, [pc, #696]	@ (8005a4c <USB_EPStartXfer+0x344>)
 8005794:	4310      	orrs	r0, r2
 8005796:	8018      	strh	r0, [r3, #0]
 8005798:	881b      	ldrh	r3, [r3, #0]
 800579a:	2040      	movs	r0, #64	@ 0x40
 800579c:	469c      	mov	ip, r3
 800579e:	4662      	mov	r2, ip
 80057a0:	4002      	ands	r2, r0
 80057a2:	9205      	str	r2, [sp, #20]
 80057a4:	4662      	mov	r2, ip
 80057a6:	19cb      	adds	r3, r1, r7
 80057a8:	9304      	str	r3, [sp, #16]
 80057aa:	6226      	str	r6, [r4, #32]
 80057ac:	b2bb      	uxth	r3, r7
 80057ae:	4202      	tst	r2, r0
 80057b0:	d055      	beq.n	800585e <USB_EPStartXfer+0x156>
 80057b2:	9a01      	ldr	r2, [sp, #4]
 80057b4:	8812      	ldrh	r2, [r2, #0]
 80057b6:	4694      	mov	ip, r2
 80057b8:	4aa5      	ldr	r2, [pc, #660]	@ (8005a50 <USB_EPStartXfer+0x348>)
 80057ba:	18a8      	adds	r0, r5, r2
 80057bc:	9a03      	ldr	r2, [sp, #12]
 80057be:	4460      	add	r0, ip
 80057c0:	1882      	adds	r2, r0, r2
 80057c2:	8013      	strh	r3, [r2, #0]
 80057c4:	8962      	ldrh	r2, [r4, #10]
 80057c6:	0028      	movs	r0, r5
 80057c8:	f7ff ff89 	bl	80056de <USB_WritePMA>
 80057cc:	9b04      	ldr	r3, [sp, #16]
 80057ce:	9a02      	ldr	r2, [sp, #8]
 80057d0:	6163      	str	r3, [r4, #20]
 80057d2:	2300      	movs	r3, #0
 80057d4:	42b2      	cmp	r2, r6
 80057d6:	d201      	bcs.n	80057dc <USB_EPStartXfer+0xd4>
 80057d8:	1bf3      	subs	r3, r6, r7
 80057da:	003e      	movs	r6, r7
 80057dc:	7862      	ldrb	r2, [r4, #1]
 80057de:	6223      	str	r3, [r4, #32]
 80057e0:	b2b3      	uxth	r3, r6
 80057e2:	2a00      	cmp	r2, #0
 80057e4:	d12e      	bne.n	8005844 <USB_EPStartXfer+0x13c>
 80057e6:	9a01      	ldr	r2, [sp, #4]
 80057e8:	4994      	ldr	r1, [pc, #592]	@ (8005a3c <USB_EPStartXfer+0x334>)
 80057ea:	8810      	ldrh	r0, [r2, #0]
 80057ec:	7822      	ldrb	r2, [r4, #0]
 80057ee:	1869      	adds	r1, r5, r1
 80057f0:	1809      	adds	r1, r1, r0
 80057f2:	00d2      	lsls	r2, r2, #3
 80057f4:	1852      	adds	r2, r2, r1
 80057f6:	8811      	ldrh	r1, [r2, #0]
 80057f8:	0589      	lsls	r1, r1, #22
 80057fa:	0d89      	lsrs	r1, r1, #22
 80057fc:	8011      	strh	r1, [r2, #0]
 80057fe:	2e00      	cmp	r6, #0
 8005800:	d10a      	bne.n	8005818 <USB_EPStartXfer+0x110>
 8005802:	2080      	movs	r0, #128	@ 0x80
 8005804:	8811      	ldrh	r1, [r2, #0]
 8005806:	0200      	lsls	r0, r0, #8
 8005808:	4301      	orrs	r1, r0
 800580a:	8011      	strh	r1, [r2, #0]
 800580c:	8922      	ldrh	r2, [r4, #8]
 800580e:	9904      	ldr	r1, [sp, #16]
 8005810:	0028      	movs	r0, r5
 8005812:	f7ff ff64 	bl	80056de <USB_WritePMA>
 8005816:	e79b      	b.n	8005750 <USB_EPStartXfer+0x48>
 8005818:	2e3e      	cmp	r6, #62	@ 0x3e
 800581a:	d808      	bhi.n	800582e <USB_EPStartXfer+0x126>
 800581c:	2101      	movs	r1, #1
 800581e:	0870      	lsrs	r0, r6, #1
 8005820:	4031      	ands	r1, r6
 8005822:	1840      	adds	r0, r0, r1
 8005824:	8811      	ldrh	r1, [r2, #0]
 8005826:	0280      	lsls	r0, r0, #10
 8005828:	4301      	orrs	r1, r0
 800582a:	b289      	uxth	r1, r1
 800582c:	e7ed      	b.n	800580a <USB_EPStartXfer+0x102>
 800582e:	201f      	movs	r0, #31
 8005830:	4030      	ands	r0, r6
 8005832:	0971      	lsrs	r1, r6, #5
 8005834:	4246      	negs	r6, r0
 8005836:	4170      	adcs	r0, r6
 8005838:	1a09      	subs	r1, r1, r0
 800583a:	8810      	ldrh	r0, [r2, #0]
 800583c:	0289      	lsls	r1, r1, #10
 800583e:	4308      	orrs	r0, r1
 8005840:	4984      	ldr	r1, [pc, #528]	@ (8005a54 <USB_EPStartXfer+0x34c>)
 8005842:	e7f1      	b.n	8005828 <USB_EPStartXfer+0x120>
 8005844:	2a01      	cmp	r2, #1
 8005846:	d1e1      	bne.n	800580c <USB_EPStartXfer+0x104>
 8005848:	002a      	movs	r2, r5
 800584a:	497c      	ldr	r1, [pc, #496]	@ (8005a3c <USB_EPStartXfer+0x334>)
 800584c:	3250      	adds	r2, #80	@ 0x50
 800584e:	8810      	ldrh	r0, [r2, #0]
 8005850:	7822      	ldrb	r2, [r4, #0]
 8005852:	1869      	adds	r1, r5, r1
 8005854:	00d2      	lsls	r2, r2, #3
 8005856:	1809      	adds	r1, r1, r0
 8005858:	1852      	adds	r2, r2, r1
 800585a:	8013      	strh	r3, [r2, #0]
 800585c:	e7d6      	b.n	800580c <USB_EPStartXfer+0x104>
 800585e:	9a01      	ldr	r2, [sp, #4]
 8005860:	8812      	ldrh	r2, [r2, #0]
 8005862:	4694      	mov	ip, r2
 8005864:	4a75      	ldr	r2, [pc, #468]	@ (8005a3c <USB_EPStartXfer+0x334>)
 8005866:	18a8      	adds	r0, r5, r2
 8005868:	9a03      	ldr	r2, [sp, #12]
 800586a:	4460      	add	r0, ip
 800586c:	1882      	adds	r2, r0, r2
 800586e:	8013      	strh	r3, [r2, #0]
 8005870:	8922      	ldrh	r2, [r4, #8]
 8005872:	0028      	movs	r0, r5
 8005874:	f7ff ff33 	bl	80056de <USB_WritePMA>
 8005878:	9b04      	ldr	r3, [sp, #16]
 800587a:	9a02      	ldr	r2, [sp, #8]
 800587c:	6163      	str	r3, [r4, #20]
 800587e:	9b05      	ldr	r3, [sp, #20]
 8005880:	42b2      	cmp	r2, r6
 8005882:	d201      	bcs.n	8005888 <USB_EPStartXfer+0x180>
 8005884:	1bf3      	subs	r3, r6, r7
 8005886:	003e      	movs	r6, r7
 8005888:	7862      	ldrb	r2, [r4, #1]
 800588a:	6223      	str	r3, [r4, #32]
 800588c:	b2b3      	uxth	r3, r6
 800588e:	2a00      	cmp	r2, #0
 8005890:	d12a      	bne.n	80058e8 <USB_EPStartXfer+0x1e0>
 8005892:	9a01      	ldr	r2, [sp, #4]
 8005894:	496e      	ldr	r1, [pc, #440]	@ (8005a50 <USB_EPStartXfer+0x348>)
 8005896:	8810      	ldrh	r0, [r2, #0]
 8005898:	7822      	ldrb	r2, [r4, #0]
 800589a:	1869      	adds	r1, r5, r1
 800589c:	1809      	adds	r1, r1, r0
 800589e:	00d2      	lsls	r2, r2, #3
 80058a0:	1852      	adds	r2, r2, r1
 80058a2:	8811      	ldrh	r1, [r2, #0]
 80058a4:	0589      	lsls	r1, r1, #22
 80058a6:	0d89      	lsrs	r1, r1, #22
 80058a8:	8011      	strh	r1, [r2, #0]
 80058aa:	2e00      	cmp	r6, #0
 80058ac:	d106      	bne.n	80058bc <USB_EPStartXfer+0x1b4>
 80058ae:	2080      	movs	r0, #128	@ 0x80
 80058b0:	8811      	ldrh	r1, [r2, #0]
 80058b2:	0200      	lsls	r0, r0, #8
 80058b4:	4301      	orrs	r1, r0
 80058b6:	8011      	strh	r1, [r2, #0]
 80058b8:	8962      	ldrh	r2, [r4, #10]
 80058ba:	e7a8      	b.n	800580e <USB_EPStartXfer+0x106>
 80058bc:	2e3e      	cmp	r6, #62	@ 0x3e
 80058be:	d808      	bhi.n	80058d2 <USB_EPStartXfer+0x1ca>
 80058c0:	2101      	movs	r1, #1
 80058c2:	0870      	lsrs	r0, r6, #1
 80058c4:	4031      	ands	r1, r6
 80058c6:	1840      	adds	r0, r0, r1
 80058c8:	8811      	ldrh	r1, [r2, #0]
 80058ca:	0280      	lsls	r0, r0, #10
 80058cc:	4301      	orrs	r1, r0
 80058ce:	b289      	uxth	r1, r1
 80058d0:	e7f1      	b.n	80058b6 <USB_EPStartXfer+0x1ae>
 80058d2:	201f      	movs	r0, #31
 80058d4:	0971      	lsrs	r1, r6, #5
 80058d6:	4006      	ands	r6, r0
 80058d8:	4270      	negs	r0, r6
 80058da:	4146      	adcs	r6, r0
 80058dc:	8810      	ldrh	r0, [r2, #0]
 80058de:	1b89      	subs	r1, r1, r6
 80058e0:	0289      	lsls	r1, r1, #10
 80058e2:	4308      	orrs	r0, r1
 80058e4:	495b      	ldr	r1, [pc, #364]	@ (8005a54 <USB_EPStartXfer+0x34c>)
 80058e6:	e7f1      	b.n	80058cc <USB_EPStartXfer+0x1c4>
 80058e8:	2a01      	cmp	r2, #1
 80058ea:	d1e5      	bne.n	80058b8 <USB_EPStartXfer+0x1b0>
 80058ec:	002a      	movs	r2, r5
 80058ee:	4958      	ldr	r1, [pc, #352]	@ (8005a50 <USB_EPStartXfer+0x348>)
 80058f0:	3250      	adds	r2, #80	@ 0x50
 80058f2:	8810      	ldrh	r0, [r2, #0]
 80058f4:	7822      	ldrb	r2, [r4, #0]
 80058f6:	1869      	adds	r1, r5, r1
 80058f8:	00d2      	lsls	r2, r2, #3
 80058fa:	1809      	adds	r1, r1, r0
 80058fc:	1852      	adds	r2, r2, r1
 80058fe:	8013      	strh	r3, [r2, #0]
 8005900:	e7da      	b.n	80058b8 <USB_EPStartXfer+0x1b0>
 8005902:	8818      	ldrh	r0, [r3, #0]
 8005904:	4f54      	ldr	r7, [pc, #336]	@ (8005a58 <USB_EPStartXfer+0x350>)
 8005906:	4a4f      	ldr	r2, [pc, #316]	@ (8005a44 <USB_EPStartXfer+0x33c>)
 8005908:	4038      	ands	r0, r7
 800590a:	4310      	orrs	r0, r2
 800590c:	b280      	uxth	r0, r0
 800590e:	8018      	strh	r0, [r3, #0]
 8005910:	9b01      	ldr	r3, [sp, #4]
 8005912:	9a03      	ldr	r2, [sp, #12]
 8005914:	8818      	ldrh	r0, [r3, #0]
 8005916:	4b49      	ldr	r3, [pc, #292]	@ (8005a3c <USB_EPStartXfer+0x334>)
 8005918:	18eb      	adds	r3, r5, r3
 800591a:	181b      	adds	r3, r3, r0
 800591c:	189a      	adds	r2, r3, r2
 800591e:	b2b3      	uxth	r3, r6
 8005920:	8013      	strh	r3, [r2, #0]
 8005922:	8922      	ldrh	r2, [r4, #8]
 8005924:	e774      	b.n	8005810 <USB_EPStartXfer+0x108>
 8005926:	8818      	ldrh	r0, [r3, #0]
 8005928:	1bf6      	subs	r6, r6, r7
 800592a:	9a01      	ldr	r2, [sp, #4]
 800592c:	6226      	str	r6, [r4, #32]
 800592e:	8816      	ldrh	r6, [r2, #0]
 8005930:	b2bb      	uxth	r3, r7
 8005932:	0640      	lsls	r0, r0, #25
 8005934:	d507      	bpl.n	8005946 <USB_EPStartXfer+0x23e>
 8005936:	4a46      	ldr	r2, [pc, #280]	@ (8005a50 <USB_EPStartXfer+0x348>)
 8005938:	18a8      	adds	r0, r5, r2
 800593a:	9a03      	ldr	r2, [sp, #12]
 800593c:	1980      	adds	r0, r0, r6
 800593e:	1882      	adds	r2, r0, r2
 8005940:	8013      	strh	r3, [r2, #0]
 8005942:	8962      	ldrh	r2, [r4, #10]
 8005944:	e764      	b.n	8005810 <USB_EPStartXfer+0x108>
 8005946:	4a3d      	ldr	r2, [pc, #244]	@ (8005a3c <USB_EPStartXfer+0x334>)
 8005948:	18a8      	adds	r0, r5, r2
 800594a:	9a03      	ldr	r2, [sp, #12]
 800594c:	1980      	adds	r0, r0, r6
 800594e:	1882      	adds	r2, r0, r2
 8005950:	e7e6      	b.n	8005920 <USB_EPStartXfer+0x218>
 8005952:	2a00      	cmp	r2, #0
 8005954:	d11c      	bne.n	8005990 <USB_EPStartXfer+0x288>
 8005956:	69a3      	ldr	r3, [r4, #24]
 8005958:	6921      	ldr	r1, [r4, #16]
 800595a:	428b      	cmp	r3, r1
 800595c:	d901      	bls.n	8005962 <USB_EPStartXfer+0x25a>
 800595e:	1a5a      	subs	r2, r3, r1
 8005960:	000b      	movs	r3, r1
 8005962:	61a2      	str	r2, [r4, #24]
 8005964:	002a      	movs	r2, r5
 8005966:	493a      	ldr	r1, [pc, #232]	@ (8005a50 <USB_EPStartXfer+0x348>)
 8005968:	3250      	adds	r2, #80	@ 0x50
 800596a:	8810      	ldrh	r0, [r2, #0]
 800596c:	7822      	ldrb	r2, [r4, #0]
 800596e:	1869      	adds	r1, r5, r1
 8005970:	00d2      	lsls	r2, r2, #3
 8005972:	1809      	adds	r1, r1, r0
 8005974:	1852      	adds	r2, r2, r1
 8005976:	8811      	ldrh	r1, [r2, #0]
 8005978:	0589      	lsls	r1, r1, #22
 800597a:	0d89      	lsrs	r1, r1, #22
 800597c:	8011      	strh	r1, [r2, #0]
 800597e:	2b00      	cmp	r3, #0
 8005980:	d000      	beq.n	8005984 <USB_EPStartXfer+0x27c>
 8005982:	e0d6      	b.n	8005b32 <USB_EPStartXfer+0x42a>
 8005984:	2180      	movs	r1, #128	@ 0x80
 8005986:	8813      	ldrh	r3, [r2, #0]
 8005988:	0209      	lsls	r1, r1, #8
 800598a:	430b      	orrs	r3, r1
 800598c:	8013      	strh	r3, [r2, #0]
 800598e:	e03d      	b.n	8005a0c <USB_EPStartXfer+0x304>
 8005990:	78e3      	ldrb	r3, [r4, #3]
 8005992:	2b02      	cmp	r3, #2
 8005994:	d000      	beq.n	8005998 <USB_EPStartXfer+0x290>
 8005996:	e08c      	b.n	8005ab2 <USB_EPStartXfer+0x3aa>
 8005998:	2900      	cmp	r1, #0
 800599a:	d124      	bne.n	80059e6 <USB_EPStartXfer+0x2de>
 800599c:	0006      	movs	r6, r0
 800599e:	4a27      	ldr	r2, [pc, #156]	@ (8005a3c <USB_EPStartXfer+0x334>)
 80059a0:	3650      	adds	r6, #80	@ 0x50
 80059a2:	8833      	ldrh	r3, [r6, #0]
 80059a4:	7820      	ldrb	r0, [r4, #0]
 80059a6:	18aa      	adds	r2, r5, r2
 80059a8:	18d2      	adds	r2, r2, r3
 80059aa:	00c0      	lsls	r0, r0, #3
 80059ac:	1812      	adds	r2, r2, r0
 80059ae:	8813      	ldrh	r3, [r2, #0]
 80059b0:	059b      	lsls	r3, r3, #22
 80059b2:	0d9b      	lsrs	r3, r3, #22
 80059b4:	8013      	strh	r3, [r2, #0]
 80059b6:	6923      	ldr	r3, [r4, #16]
 80059b8:	2b00      	cmp	r3, #0
 80059ba:	d134      	bne.n	8005a26 <USB_EPStartXfer+0x31e>
 80059bc:	2780      	movs	r7, #128	@ 0x80
 80059be:	8811      	ldrh	r1, [r2, #0]
 80059c0:	023f      	lsls	r7, r7, #8
 80059c2:	4339      	orrs	r1, r7
 80059c4:	8011      	strh	r1, [r2, #0]
 80059c6:	4a22      	ldr	r2, [pc, #136]	@ (8005a50 <USB_EPStartXfer+0x348>)
 80059c8:	8831      	ldrh	r1, [r6, #0]
 80059ca:	18aa      	adds	r2, r5, r2
 80059cc:	1852      	adds	r2, r2, r1
 80059ce:	1812      	adds	r2, r2, r0
 80059d0:	8811      	ldrh	r1, [r2, #0]
 80059d2:	0589      	lsls	r1, r1, #22
 80059d4:	0d89      	lsrs	r1, r1, #22
 80059d6:	8011      	strh	r1, [r2, #0]
 80059d8:	2b00      	cmp	r3, #0
 80059da:	d154      	bne.n	8005a86 <USB_EPStartXfer+0x37e>
 80059dc:	2180      	movs	r1, #128	@ 0x80
 80059de:	8813      	ldrh	r3, [r2, #0]
 80059e0:	0209      	lsls	r1, r1, #8
 80059e2:	430b      	orrs	r3, r1
 80059e4:	8013      	strh	r3, [r2, #0]
 80059e6:	69e3      	ldr	r3, [r4, #28]
 80059e8:	2b00      	cmp	r3, #0
 80059ea:	d00f      	beq.n	8005a0c <USB_EPStartXfer+0x304>
 80059ec:	7823      	ldrb	r3, [r4, #0]
 80059ee:	491b      	ldr	r1, [pc, #108]	@ (8005a5c <USB_EPStartXfer+0x354>)
 80059f0:	009b      	lsls	r3, r3, #2
 80059f2:	18eb      	adds	r3, r5, r3
 80059f4:	881a      	ldrh	r2, [r3, #0]
 80059f6:	400a      	ands	r2, r1
 80059f8:	428a      	cmp	r2, r1
 80059fa:	d001      	beq.n	8005a00 <USB_EPStartXfer+0x2f8>
 80059fc:	2a00      	cmp	r2, #0
 80059fe:	d105      	bne.n	8005a0c <USB_EPStartXfer+0x304>
 8005a00:	881a      	ldrh	r2, [r3, #0]
 8005a02:	4911      	ldr	r1, [pc, #68]	@ (8005a48 <USB_EPStartXfer+0x340>)
 8005a04:	400a      	ands	r2, r1
 8005a06:	4916      	ldr	r1, [pc, #88]	@ (8005a60 <USB_EPStartXfer+0x358>)
 8005a08:	430a      	orrs	r2, r1
 8005a0a:	801a      	strh	r2, [r3, #0]
 8005a0c:	7823      	ldrb	r3, [r4, #0]
 8005a0e:	009b      	lsls	r3, r3, #2
 8005a10:	18ed      	adds	r5, r5, r3
 8005a12:	882a      	ldrh	r2, [r5, #0]
 8005a14:	4b13      	ldr	r3, [pc, #76]	@ (8005a64 <USB_EPStartXfer+0x35c>)
 8005a16:	401a      	ands	r2, r3
 8005a18:	23c0      	movs	r3, #192	@ 0xc0
 8005a1a:	019b      	lsls	r3, r3, #6
 8005a1c:	4053      	eors	r3, r2
 8005a1e:	4a12      	ldr	r2, [pc, #72]	@ (8005a68 <USB_EPStartXfer+0x360>)
 8005a20:	4313      	orrs	r3, r2
 8005a22:	802b      	strh	r3, [r5, #0]
 8005a24:	e6a0      	b.n	8005768 <USB_EPStartXfer+0x60>
 8005a26:	2b3e      	cmp	r3, #62	@ 0x3e
 8005a28:	d820      	bhi.n	8005a6c <USB_EPStartXfer+0x364>
 8005a2a:	2101      	movs	r1, #1
 8005a2c:	085f      	lsrs	r7, r3, #1
 8005a2e:	4019      	ands	r1, r3
 8005a30:	187f      	adds	r7, r7, r1
 8005a32:	8811      	ldrh	r1, [r2, #0]
 8005a34:	02bf      	lsls	r7, r7, #10
 8005a36:	4339      	orrs	r1, r7
 8005a38:	b289      	uxth	r1, r1
 8005a3a:	e7c3      	b.n	80059c4 <USB_EPStartXfer+0x2bc>
 8005a3c:	00000402 	.word	0x00000402
 8005a40:	ffff8fbf 	.word	0xffff8fbf
 8005a44:	ffff8080 	.word	0xffff8080
 8005a48:	ffff8f8f 	.word	0xffff8f8f
 8005a4c:	00008180 	.word	0x00008180
 8005a50:	00000406 	.word	0x00000406
 8005a54:	ffff8000 	.word	0xffff8000
 8005a58:	ffff8e8f 	.word	0xffff8e8f
 8005a5c:	00004040 	.word	0x00004040
 8005a60:	000080c0 	.word	0x000080c0
 8005a64:	ffffbf8f 	.word	0xffffbf8f
 8005a68:	00008080 	.word	0x00008080
 8005a6c:	271f      	movs	r7, #31
 8005a6e:	401f      	ands	r7, r3
 8005a70:	0039      	movs	r1, r7
 8005a72:	424f      	negs	r7, r1
 8005a74:	414f      	adcs	r7, r1
 8005a76:	0959      	lsrs	r1, r3, #5
 8005a78:	1bc9      	subs	r1, r1, r7
 8005a7a:	8817      	ldrh	r7, [r2, #0]
 8005a7c:	9101      	str	r1, [sp, #4]
 8005a7e:	0289      	lsls	r1, r1, #10
 8005a80:	430f      	orrs	r7, r1
 8005a82:	4937      	ldr	r1, [pc, #220]	@ (8005b60 <USB_EPStartXfer+0x458>)
 8005a84:	e7d7      	b.n	8005a36 <USB_EPStartXfer+0x32e>
 8005a86:	2b3e      	cmp	r3, #62	@ 0x3e
 8005a88:	d808      	bhi.n	8005a9c <USB_EPStartXfer+0x394>
 8005a8a:	2001      	movs	r0, #1
 8005a8c:	0859      	lsrs	r1, r3, #1
 8005a8e:	4003      	ands	r3, r0
 8005a90:	18c9      	adds	r1, r1, r3
 8005a92:	8813      	ldrh	r3, [r2, #0]
 8005a94:	0289      	lsls	r1, r1, #10
 8005a96:	430b      	orrs	r3, r1
 8005a98:	b29b      	uxth	r3, r3
 8005a9a:	e7a3      	b.n	80059e4 <USB_EPStartXfer+0x2dc>
 8005a9c:	201f      	movs	r0, #31
 8005a9e:	0959      	lsrs	r1, r3, #5
 8005aa0:	4003      	ands	r3, r0
 8005aa2:	4258      	negs	r0, r3
 8005aa4:	4143      	adcs	r3, r0
 8005aa6:	1ac9      	subs	r1, r1, r3
 8005aa8:	8813      	ldrh	r3, [r2, #0]
 8005aaa:	0289      	lsls	r1, r1, #10
 8005aac:	4319      	orrs	r1, r3
 8005aae:	4b2c      	ldr	r3, [pc, #176]	@ (8005b60 <USB_EPStartXfer+0x458>)
 8005ab0:	e7f1      	b.n	8005a96 <USB_EPStartXfer+0x38e>
 8005ab2:	2001      	movs	r0, #1
 8005ab4:	4283      	cmp	r3, r0
 8005ab6:	d000      	beq.n	8005aba <USB_EPStartXfer+0x3b2>
 8005ab8:	e657      	b.n	800576a <USB_EPStartXfer+0x62>
 8005aba:	69a3      	ldr	r3, [r4, #24]
 8005abc:	6922      	ldr	r2, [r4, #16]
 8005abe:	2000      	movs	r0, #0
 8005ac0:	4293      	cmp	r3, r2
 8005ac2:	d901      	bls.n	8005ac8 <USB_EPStartXfer+0x3c0>
 8005ac4:	1a98      	subs	r0, r3, r2
 8005ac6:	0013      	movs	r3, r2
 8005ac8:	61a0      	str	r0, [r4, #24]
 8005aca:	2900      	cmp	r1, #0
 8005acc:	d19e      	bne.n	8005a0c <USB_EPStartXfer+0x304>
 8005ace:	002e      	movs	r6, r5
 8005ad0:	4a24      	ldr	r2, [pc, #144]	@ (8005b64 <USB_EPStartXfer+0x45c>)
 8005ad2:	3650      	adds	r6, #80	@ 0x50
 8005ad4:	8831      	ldrh	r1, [r6, #0]
 8005ad6:	7820      	ldrb	r0, [r4, #0]
 8005ad8:	18aa      	adds	r2, r5, r2
 8005ada:	1852      	adds	r2, r2, r1
 8005adc:	00c0      	lsls	r0, r0, #3
 8005ade:	1812      	adds	r2, r2, r0
 8005ae0:	8811      	ldrh	r1, [r2, #0]
 8005ae2:	0589      	lsls	r1, r1, #22
 8005ae4:	0d89      	lsrs	r1, r1, #22
 8005ae6:	8011      	strh	r1, [r2, #0]
 8005ae8:	2b00      	cmp	r3, #0
 8005aea:	d10a      	bne.n	8005b02 <USB_EPStartXfer+0x3fa>
 8005aec:	2780      	movs	r7, #128	@ 0x80
 8005aee:	8811      	ldrh	r1, [r2, #0]
 8005af0:	023f      	lsls	r7, r7, #8
 8005af2:	4339      	orrs	r1, r7
 8005af4:	8011      	strh	r1, [r2, #0]
 8005af6:	4a1c      	ldr	r2, [pc, #112]	@ (8005b68 <USB_EPStartXfer+0x460>)
 8005af8:	8831      	ldrh	r1, [r6, #0]
 8005afa:	18aa      	adds	r2, r5, r2
 8005afc:	1852      	adds	r2, r2, r1
 8005afe:	1812      	adds	r2, r2, r0
 8005b00:	e739      	b.n	8005976 <USB_EPStartXfer+0x26e>
 8005b02:	2b3e      	cmp	r3, #62	@ 0x3e
 8005b04:	d808      	bhi.n	8005b18 <USB_EPStartXfer+0x410>
 8005b06:	2101      	movs	r1, #1
 8005b08:	085f      	lsrs	r7, r3, #1
 8005b0a:	4019      	ands	r1, r3
 8005b0c:	187f      	adds	r7, r7, r1
 8005b0e:	8811      	ldrh	r1, [r2, #0]
 8005b10:	02bf      	lsls	r7, r7, #10
 8005b12:	4339      	orrs	r1, r7
 8005b14:	b289      	uxth	r1, r1
 8005b16:	e7ed      	b.n	8005af4 <USB_EPStartXfer+0x3ec>
 8005b18:	271f      	movs	r7, #31
 8005b1a:	401f      	ands	r7, r3
 8005b1c:	0039      	movs	r1, r7
 8005b1e:	424f      	negs	r7, r1
 8005b20:	414f      	adcs	r7, r1
 8005b22:	0959      	lsrs	r1, r3, #5
 8005b24:	1bc9      	subs	r1, r1, r7
 8005b26:	8817      	ldrh	r7, [r2, #0]
 8005b28:	9101      	str	r1, [sp, #4]
 8005b2a:	0289      	lsls	r1, r1, #10
 8005b2c:	430f      	orrs	r7, r1
 8005b2e:	490c      	ldr	r1, [pc, #48]	@ (8005b60 <USB_EPStartXfer+0x458>)
 8005b30:	e7ef      	b.n	8005b12 <USB_EPStartXfer+0x40a>
 8005b32:	2b3e      	cmp	r3, #62	@ 0x3e
 8005b34:	d808      	bhi.n	8005b48 <USB_EPStartXfer+0x440>
 8005b36:	2001      	movs	r0, #1
 8005b38:	0859      	lsrs	r1, r3, #1
 8005b3a:	4003      	ands	r3, r0
 8005b3c:	18c9      	adds	r1, r1, r3
 8005b3e:	8813      	ldrh	r3, [r2, #0]
 8005b40:	0289      	lsls	r1, r1, #10
 8005b42:	430b      	orrs	r3, r1
 8005b44:	b29b      	uxth	r3, r3
 8005b46:	e721      	b.n	800598c <USB_EPStartXfer+0x284>
 8005b48:	201f      	movs	r0, #31
 8005b4a:	0959      	lsrs	r1, r3, #5
 8005b4c:	4003      	ands	r3, r0
 8005b4e:	4258      	negs	r0, r3
 8005b50:	4143      	adcs	r3, r0
 8005b52:	1ac9      	subs	r1, r1, r3
 8005b54:	8813      	ldrh	r3, [r2, #0]
 8005b56:	0289      	lsls	r1, r1, #10
 8005b58:	4319      	orrs	r1, r3
 8005b5a:	4b01      	ldr	r3, [pc, #4]	@ (8005b60 <USB_EPStartXfer+0x458>)
 8005b5c:	e7f1      	b.n	8005b42 <USB_EPStartXfer+0x43a>
 8005b5e:	46c0      	nop			@ (mov r8, r8)
 8005b60:	ffff8000 	.word	0xffff8000
 8005b64:	00000402 	.word	0x00000402
 8005b68:	00000406 	.word	0x00000406

08005b6c <USB_ReadPMA>:
 8005b6c:	b5f0      	push	{r4, r5, r6, r7, lr}
 8005b6e:	2580      	movs	r5, #128	@ 0x80
 8005b70:	085c      	lsrs	r4, r3, #1
 8005b72:	00ed      	lsls	r5, r5, #3
 8005b74:	1952      	adds	r2, r2, r5
 8005b76:	0026      	movs	r6, r4
 8005b78:	000d      	movs	r5, r1
 8005b7a:	1880      	adds	r0, r0, r2
 8005b7c:	1a47      	subs	r7, r0, r1
 8005b7e:	19ea      	adds	r2, r5, r7
 8005b80:	2e00      	cmp	r6, #0
 8005b82:	d106      	bne.n	8005b92 <USB_ReadPMA+0x26>
 8005b84:	07db      	lsls	r3, r3, #31
 8005b86:	d503      	bpl.n	8005b90 <USB_ReadPMA+0x24>
 8005b88:	0064      	lsls	r4, r4, #1
 8005b8a:	1900      	adds	r0, r0, r4
 8005b8c:	8803      	ldrh	r3, [r0, #0]
 8005b8e:	550b      	strb	r3, [r1, r4]
 8005b90:	bdf0      	pop	{r4, r5, r6, r7, pc}
 8005b92:	8812      	ldrh	r2, [r2, #0]
 8005b94:	3e01      	subs	r6, #1
 8005b96:	b292      	uxth	r2, r2
 8005b98:	702a      	strb	r2, [r5, #0]
 8005b9a:	0a12      	lsrs	r2, r2, #8
 8005b9c:	706a      	strb	r2, [r5, #1]
 8005b9e:	3502      	adds	r5, #2
 8005ba0:	e7ed      	b.n	8005b7e <USB_ReadPMA+0x12>
	...

08005ba4 <USBD_CDC_EP0_RxReady>:
 8005ba4:	23af      	movs	r3, #175	@ 0xaf
 8005ba6:	009b      	lsls	r3, r3, #2
 8005ba8:	58c3      	ldr	r3, [r0, r3]
 8005baa:	b570      	push	{r4, r5, r6, lr}
 8005bac:	2b00      	cmp	r3, #0
 8005bae:	d00e      	beq.n	8005bce <USBD_CDC_EP0_RxReady+0x2a>
 8005bb0:	22ae      	movs	r2, #174	@ 0xae
 8005bb2:	2580      	movs	r5, #128	@ 0x80
 8005bb4:	0092      	lsls	r2, r2, #2
 8005bb6:	5884      	ldr	r4, [r0, r2]
 8005bb8:	00ad      	lsls	r5, r5, #2
 8005bba:	5d60      	ldrb	r0, [r4, r5]
 8005bbc:	28ff      	cmp	r0, #255	@ 0xff
 8005bbe:	d006      	beq.n	8005bce <USBD_CDC_EP0_RxReady+0x2a>
 8005bc0:	4a04      	ldr	r2, [pc, #16]	@ (8005bd4 <USBD_CDC_EP0_RxReady+0x30>)
 8005bc2:	689b      	ldr	r3, [r3, #8]
 8005bc4:	0021      	movs	r1, r4
 8005bc6:	5ca2      	ldrb	r2, [r4, r2]
 8005bc8:	4798      	blx	r3
 8005bca:	23ff      	movs	r3, #255	@ 0xff
 8005bcc:	5563      	strb	r3, [r4, r5]
 8005bce:	2000      	movs	r0, #0
 8005bd0:	bd70      	pop	{r4, r5, r6, pc}
 8005bd2:	46c0      	nop			@ (mov r8, r8)
 8005bd4:	00000201 	.word	0x00000201

08005bd8 <USBD_CDC_GetFSCfgDesc>:
 8005bd8:	2343      	movs	r3, #67	@ 0x43
 8005bda:	8003      	strh	r3, [r0, #0]
 8005bdc:	4800      	ldr	r0, [pc, #0]	@ (8005be0 <USBD_CDC_GetFSCfgDesc+0x8>)
 8005bde:	4770      	bx	lr
 8005be0:	20000050 	.word	0x20000050

08005be4 <USBD_CDC_GetHSCfgDesc>:
 8005be4:	2343      	movs	r3, #67	@ 0x43
 8005be6:	8003      	strh	r3, [r0, #0]
 8005be8:	4800      	ldr	r0, [pc, #0]	@ (8005bec <USBD_CDC_GetHSCfgDesc+0x8>)
 8005bea:	4770      	bx	lr
 8005bec:	20000094 	.word	0x20000094

08005bf0 <USBD_CDC_GetOtherSpeedCfgDesc>:
 8005bf0:	2343      	movs	r3, #67	@ 0x43
 8005bf2:	8003      	strh	r3, [r0, #0]
 8005bf4:	4800      	ldr	r0, [pc, #0]	@ (8005bf8 <USBD_CDC_GetOtherSpeedCfgDesc+0x8>)
 8005bf6:	4770      	bx	lr
 8005bf8:	2000000c 	.word	0x2000000c

08005bfc <USBD_CDC_GetDeviceQualifierDescriptor>:
 8005bfc:	230a      	movs	r3, #10
 8005bfe:	8003      	strh	r3, [r0, #0]
 8005c00:	4800      	ldr	r0, [pc, #0]	@ (8005c04 <USBD_CDC_GetDeviceQualifierDescriptor+0x8>)
 8005c02:	4770      	bx	lr
 8005c04:	20000110 	.word	0x20000110

08005c08 <USBD_CDC_DataOut>:
 8005c08:	b570      	push	{r4, r5, r6, lr}
 8005c0a:	26ae      	movs	r6, #174	@ 0xae
 8005c0c:	00b6      	lsls	r6, r6, #2
 8005c0e:	0004      	movs	r4, r0
 8005c10:	5985      	ldr	r5, [r0, r6]
 8005c12:	f000 ff4d 	bl	8006ab0 <USBD_LL_GetRxDataSize>
 8005c16:	2383      	movs	r3, #131	@ 0x83
 8005c18:	009b      	lsls	r3, r3, #2
 8005c1a:	50e8      	str	r0, [r5, r3]
 8005c1c:	59a3      	ldr	r3, [r4, r6]
 8005c1e:	2002      	movs	r0, #2
 8005c20:	2b00      	cmp	r3, #0
 8005c22:	d00a      	beq.n	8005c3a <USBD_CDC_DataOut+0x32>
 8005c24:	2383      	movs	r3, #131	@ 0x83
 8005c26:	2281      	movs	r2, #129	@ 0x81
 8005c28:	009b      	lsls	r3, r3, #2
 8005c2a:	18e9      	adds	r1, r5, r3
 8005c2c:	33b0      	adds	r3, #176	@ 0xb0
 8005c2e:	58e3      	ldr	r3, [r4, r3]
 8005c30:	0092      	lsls	r2, r2, #2
 8005c32:	68db      	ldr	r3, [r3, #12]
 8005c34:	58a8      	ldr	r0, [r5, r2]
 8005c36:	4798      	blx	r3
 8005c38:	2000      	movs	r0, #0
 8005c3a:	bd70      	pop	{r4, r5, r6, pc}

08005c3c <USBD_CDC_DataIn>:
 8005c3c:	b5f8      	push	{r3, r4, r5, r6, r7, lr}
 8005c3e:	23ae      	movs	r3, #174	@ 0xae
 8005c40:	009b      	lsls	r3, r3, #2
 8005c42:	58c7      	ldr	r7, [r0, r3]
 8005c44:	0004      	movs	r4, r0
 8005c46:	000e      	movs	r6, r1
 8005c48:	2002      	movs	r0, #2
 8005c4a:	2f00      	cmp	r7, #0
 8005c4c:	d016      	beq.n	8005c7c <USBD_CDC_DataIn+0x40>
 8005c4e:	2514      	movs	r5, #20
 8005c50:	434d      	muls	r5, r1
 8005c52:	1965      	adds	r5, r4, r5
 8005c54:	69e8      	ldr	r0, [r5, #28]
 8005c56:	3308      	adds	r3, #8
 8005c58:	58e3      	ldr	r3, [r4, r3]
 8005c5a:	2800      	cmp	r0, #0
 8005c5c:	d00f      	beq.n	8005c7e <USBD_CDC_DataIn+0x42>
 8005c5e:	2228      	movs	r2, #40	@ 0x28
 8005c60:	434a      	muls	r2, r1
 8005c62:	189b      	adds	r3, r3, r2
 8005c64:	6a19      	ldr	r1, [r3, #32]
 8005c66:	f7fa fafb 	bl	8000260 <__aeabi_uidivmod>
 8005c6a:	1e0a      	subs	r2, r1, #0
 8005c6c:	d107      	bne.n	8005c7e <USBD_CDC_DataIn+0x42>
 8005c6e:	000b      	movs	r3, r1
 8005c70:	61e9      	str	r1, [r5, #28]
 8005c72:	0020      	movs	r0, r4
 8005c74:	0031      	movs	r1, r6
 8005c76:	f000 ff09 	bl	8006a8c <USBD_LL_Transmit>
 8005c7a:	2000      	movs	r0, #0
 8005c7c:	bdf8      	pop	{r3, r4, r5, r6, r7, pc}
 8005c7e:	2385      	movs	r3, #133	@ 0x85
 8005c80:	2200      	movs	r2, #0
 8005c82:	009b      	lsls	r3, r3, #2
 8005c84:	50fa      	str	r2, [r7, r3]
 8005c86:	e7f8      	b.n	8005c7a <USBD_CDC_DataIn+0x3e>

08005c88 <USBD_CDC_Setup>:
 8005c88:	23ae      	movs	r3, #174	@ 0xae
 8005c8a:	b5f7      	push	{r0, r1, r2, r4, r5, r6, r7, lr}
 8005c8c:	009b      	lsls	r3, r3, #2
 8005c8e:	58c6      	ldr	r6, [r0, r3]
 8005c90:	466b      	mov	r3, sp
 8005c92:	466a      	mov	r2, sp
 8005c94:	000d      	movs	r5, r1
 8005c96:	1d59      	adds	r1, r3, #5
 8005c98:	2300      	movs	r3, #0
 8005c9a:	0004      	movs	r4, r0
 8005c9c:	700b      	strb	r3, [r1, #0]
 8005c9e:	80d3      	strh	r3, [r2, #6]
 8005ca0:	782b      	ldrb	r3, [r5, #0]
 8005ca2:	1d90      	adds	r0, r2, #6
 8005ca4:	001f      	movs	r7, r3
 8005ca6:	2260      	movs	r2, #96	@ 0x60
 8005ca8:	4017      	ands	r7, r2
 8005caa:	4213      	tst	r3, r2
 8005cac:	d026      	beq.n	8005cfc <USBD_CDC_Setup+0x74>
 8005cae:	2f20      	cmp	r7, #32
 8005cb0:	d13f      	bne.n	8005d32 <USBD_CDC_Setup+0xaa>
 8005cb2:	88ea      	ldrh	r2, [r5, #6]
 8005cb4:	7868      	ldrb	r0, [r5, #1]
 8005cb6:	2a00      	cmp	r2, #0
 8005cb8:	d019      	beq.n	8005cee <USBD_CDC_Setup+0x66>
 8005cba:	b25b      	sxtb	r3, r3
 8005cbc:	2b00      	cmp	r3, #0
 8005cbe:	da0b      	bge.n	8005cd8 <USBD_CDC_Setup+0x50>
 8005cc0:	23af      	movs	r3, #175	@ 0xaf
 8005cc2:	009b      	lsls	r3, r3, #2
 8005cc4:	58e3      	ldr	r3, [r4, r3]
 8005cc6:	0031      	movs	r1, r6
 8005cc8:	689b      	ldr	r3, [r3, #8]
 8005cca:	4798      	blx	r3
 8005ccc:	0031      	movs	r1, r6
 8005cce:	88ea      	ldrh	r2, [r5, #6]
 8005cd0:	0020      	movs	r0, r4
 8005cd2:	f000 fca0 	bl	8006616 <USBD_CtlSendData>
 8005cd6:	e008      	b.n	8005cea <USBD_CDC_Setup+0x62>
 8005cd8:	2380      	movs	r3, #128	@ 0x80
 8005cda:	009b      	lsls	r3, r3, #2
 8005cdc:	54f0      	strb	r0, [r6, r3]
 8005cde:	4b18      	ldr	r3, [pc, #96]	@ (8005d40 <USBD_CDC_Setup+0xb8>)
 8005ce0:	0031      	movs	r1, r6
 8005ce2:	0020      	movs	r0, r4
 8005ce4:	54f2      	strb	r2, [r6, r3]
 8005ce6:	f000 fcac 	bl	8006642 <USBD_CtlPrepareRx>
 8005cea:	2000      	movs	r0, #0
 8005cec:	bdfe      	pop	{r1, r2, r3, r4, r5, r6, r7, pc}
 8005cee:	23af      	movs	r3, #175	@ 0xaf
 8005cf0:	009b      	lsls	r3, r3, #2
 8005cf2:	58e3      	ldr	r3, [r4, r3]
 8005cf4:	0029      	movs	r1, r5
 8005cf6:	689b      	ldr	r3, [r3, #8]
 8005cf8:	4798      	blx	r3
 8005cfa:	e7f6      	b.n	8005cea <USBD_CDC_Setup+0x62>
 8005cfc:	786b      	ldrb	r3, [r5, #1]
 8005cfe:	2b0a      	cmp	r3, #10
 8005d00:	d00b      	beq.n	8005d1a <USBD_CDC_Setup+0x92>
 8005d02:	2b0b      	cmp	r3, #11
 8005d04:	d010      	beq.n	8005d28 <USBD_CDC_Setup+0xa0>
 8005d06:	2b00      	cmp	r3, #0
 8005d08:	d113      	bne.n	8005d32 <USBD_CDC_Setup+0xaa>
 8005d0a:	23a7      	movs	r3, #167	@ 0xa7
 8005d0c:	009b      	lsls	r3, r3, #2
 8005d0e:	5ce3      	ldrb	r3, [r4, r3]
 8005d10:	2b03      	cmp	r3, #3
 8005d12:	d10e      	bne.n	8005d32 <USBD_CDC_Setup+0xaa>
 8005d14:	2202      	movs	r2, #2
 8005d16:	0001      	movs	r1, r0
 8005d18:	e7da      	b.n	8005cd0 <USBD_CDC_Setup+0x48>
 8005d1a:	23a7      	movs	r3, #167	@ 0xa7
 8005d1c:	009b      	lsls	r3, r3, #2
 8005d1e:	5ce3      	ldrb	r3, [r4, r3]
 8005d20:	2b03      	cmp	r3, #3
 8005d22:	d106      	bne.n	8005d32 <USBD_CDC_Setup+0xaa>
 8005d24:	2201      	movs	r2, #1
 8005d26:	e7d3      	b.n	8005cd0 <USBD_CDC_Setup+0x48>
 8005d28:	23a7      	movs	r3, #167	@ 0xa7
 8005d2a:	009b      	lsls	r3, r3, #2
 8005d2c:	5ce3      	ldrb	r3, [r4, r3]
 8005d2e:	2b03      	cmp	r3, #3
 8005d30:	d0db      	beq.n	8005cea <USBD_CDC_Setup+0x62>
 8005d32:	0020      	movs	r0, r4
 8005d34:	0029      	movs	r1, r5
 8005d36:	f000 fc47 	bl	80065c8 <USBD_CtlError>
 8005d3a:	2002      	movs	r0, #2
 8005d3c:	e7d6      	b.n	8005cec <USBD_CDC_Setup+0x64>
 8005d3e:	46c0      	nop			@ (mov r8, r8)
 8005d40:	00000201 	.word	0x00000201

08005d44 <USBD_CDC_DeInit>:
 8005d44:	b570      	push	{r4, r5, r6, lr}
 8005d46:	0004      	movs	r4, r0
 8005d48:	2500      	movs	r5, #0
 8005d4a:	2181      	movs	r1, #129	@ 0x81
 8005d4c:	f000 fe67 	bl	8006a1e <USBD_LL_CloseEP>
 8005d50:	2101      	movs	r1, #1
 8005d52:	0020      	movs	r0, r4
 8005d54:	62e5      	str	r5, [r4, #44]	@ 0x2c
 8005d56:	f000 fe62 	bl	8006a1e <USBD_LL_CloseEP>
 8005d5a:	0023      	movs	r3, r4
 8005d5c:	26ae      	movs	r6, #174	@ 0xae
 8005d5e:	33fc      	adds	r3, #252	@ 0xfc
 8005d60:	671d      	str	r5, [r3, #112]	@ 0x70
 8005d62:	2182      	movs	r1, #130	@ 0x82
 8005d64:	0020      	movs	r0, r4
 8005d66:	00b6      	lsls	r6, r6, #2
 8005d68:	f000 fe59 	bl	8006a1e <USBD_LL_CloseEP>
 8005d6c:	59a3      	ldr	r3, [r4, r6]
 8005d6e:	6425      	str	r5, [r4, #64]	@ 0x40
 8005d70:	42ab      	cmp	r3, r5
 8005d72:	d008      	beq.n	8005d86 <USBD_CDC_DeInit+0x42>
 8005d74:	23af      	movs	r3, #175	@ 0xaf
 8005d76:	009b      	lsls	r3, r3, #2
 8005d78:	58e3      	ldr	r3, [r4, r3]
 8005d7a:	685b      	ldr	r3, [r3, #4]
 8005d7c:	4798      	blx	r3
 8005d7e:	59a0      	ldr	r0, [r4, r6]
 8005d80:	f000 fea2 	bl	8006ac8 <USBD_static_free>
 8005d84:	51a5      	str	r5, [r4, r6]
 8005d86:	2000      	movs	r0, #0
 8005d88:	bd70      	pop	{r4, r5, r6, pc}

08005d8a <USBD_CDC_Init>:
 8005d8a:	b570      	push	{r4, r5, r6, lr}
 8005d8c:	7c03      	ldrb	r3, [r0, #16]
 8005d8e:	0004      	movs	r4, r0
 8005d90:	2b00      	cmp	r3, #0
 8005d92:	d13a      	bne.n	8005e0a <USBD_CDC_Init+0x80>
 8005d94:	2380      	movs	r3, #128	@ 0x80
 8005d96:	2181      	movs	r1, #129	@ 0x81
 8005d98:	009b      	lsls	r3, r3, #2
 8005d9a:	2202      	movs	r2, #2
 8005d9c:	f000 fe33 	bl	8006a06 <USBD_LL_OpenEP>
 8005da0:	2101      	movs	r1, #1
 8005da2:	2380      	movs	r3, #128	@ 0x80
 8005da4:	62e1      	str	r1, [r4, #44]	@ 0x2c
 8005da6:	009b      	lsls	r3, r3, #2
 8005da8:	2202      	movs	r2, #2
 8005daa:	0020      	movs	r0, r4
 8005dac:	f000 fe2b 	bl	8006a06 <USBD_LL_OpenEP>
 8005db0:	0023      	movs	r3, r4
 8005db2:	2601      	movs	r6, #1
 8005db4:	33fc      	adds	r3, #252	@ 0xfc
 8005db6:	2203      	movs	r2, #3
 8005db8:	2182      	movs	r1, #130	@ 0x82
 8005dba:	671e      	str	r6, [r3, #112]	@ 0x70
 8005dbc:	0020      	movs	r0, r4
 8005dbe:	2308      	movs	r3, #8
 8005dc0:	f000 fe21 	bl	8006a06 <USBD_LL_OpenEP>
 8005dc4:	2087      	movs	r0, #135	@ 0x87
 8005dc6:	6426      	str	r6, [r4, #64]	@ 0x40
 8005dc8:	0080      	lsls	r0, r0, #2
 8005dca:	f000 fe79 	bl	8006ac0 <USBD_static_malloc>
 8005dce:	23ae      	movs	r3, #174	@ 0xae
 8005dd0:	009b      	lsls	r3, r3, #2
 8005dd2:	0005      	movs	r5, r0
 8005dd4:	50e0      	str	r0, [r4, r3]
 8005dd6:	0030      	movs	r0, r6
 8005dd8:	2d00      	cmp	r5, #0
 8005dda:	d015      	beq.n	8005e08 <USBD_CDC_Init+0x7e>
 8005ddc:	3304      	adds	r3, #4
 8005dde:	58e3      	ldr	r3, [r4, r3]
 8005de0:	681b      	ldr	r3, [r3, #0]
 8005de2:	4798      	blx	r3
 8005de4:	2285      	movs	r2, #133	@ 0x85
 8005de6:	2300      	movs	r3, #0
 8005de8:	0092      	lsls	r2, r2, #2
 8005dea:	50ab      	str	r3, [r5, r2]
 8005dec:	3204      	adds	r2, #4
 8005dee:	50ab      	str	r3, [r5, r2]
 8005df0:	7c23      	ldrb	r3, [r4, #16]
 8005df2:	3a14      	subs	r2, #20
 8005df4:	2b00      	cmp	r3, #0
 8005df6:	d111      	bne.n	8005e1c <USBD_CDC_Init+0x92>
 8005df8:	2380      	movs	r3, #128	@ 0x80
 8005dfa:	009b      	lsls	r3, r3, #2
 8005dfc:	0031      	movs	r1, r6
 8005dfe:	0020      	movs	r0, r4
 8005e00:	58aa      	ldr	r2, [r5, r2]
 8005e02:	f000 fe4c 	bl	8006a9e <USBD_LL_PrepareReceive>
 8005e06:	2000      	movs	r0, #0
 8005e08:	bd70      	pop	{r4, r5, r6, pc}
 8005e0a:	2340      	movs	r3, #64	@ 0x40
 8005e0c:	2181      	movs	r1, #129	@ 0x81
 8005e0e:	2202      	movs	r2, #2
 8005e10:	f000 fdf9 	bl	8006a06 <USBD_LL_OpenEP>
 8005e14:	2101      	movs	r1, #1
 8005e16:	2340      	movs	r3, #64	@ 0x40
 8005e18:	62e1      	str	r1, [r4, #44]	@ 0x2c
 8005e1a:	e7c5      	b.n	8005da8 <USBD_CDC_Init+0x1e>
 8005e1c:	2340      	movs	r3, #64	@ 0x40
 8005e1e:	e7ed      	b.n	8005dfc <USBD_CDC_Init+0x72>

08005e20 <USBD_CDC_RegisterInterface>:
 8005e20:	0003      	movs	r3, r0
 8005e22:	2002      	movs	r0, #2
 8005e24:	2900      	cmp	r1, #0
 8005e26:	d003      	beq.n	8005e30 <USBD_CDC_RegisterInterface+0x10>
 8005e28:	22af      	movs	r2, #175	@ 0xaf
 8005e2a:	2000      	movs	r0, #0
 8005e2c:	0092      	lsls	r2, r2, #2
 8005e2e:	5099      	str	r1, [r3, r2]
 8005e30:	4770      	bx	lr

08005e32 <USBD_CDC_SetTxBuffer>:
 8005e32:	23ae      	movs	r3, #174	@ 0xae
 8005e34:	009b      	lsls	r3, r3, #2
 8005e36:	58c3      	ldr	r3, [r0, r3]
 8005e38:	2082      	movs	r0, #130	@ 0x82
 8005e3a:	0080      	lsls	r0, r0, #2
 8005e3c:	5019      	str	r1, [r3, r0]
 8005e3e:	2184      	movs	r1, #132	@ 0x84
 8005e40:	0089      	lsls	r1, r1, #2
 8005e42:	2000      	movs	r0, #0
 8005e44:	505a      	str	r2, [r3, r1]
 8005e46:	4770      	bx	lr

08005e48 <USBD_CDC_SetRxBuffer>:
 8005e48:	23ae      	movs	r3, #174	@ 0xae
 8005e4a:	009b      	lsls	r3, r3, #2
 8005e4c:	58c2      	ldr	r2, [r0, r3]
 8005e4e:	3bb4      	subs	r3, #180	@ 0xb4
 8005e50:	2000      	movs	r0, #0
 8005e52:	50d1      	str	r1, [r2, r3]
 8005e54:	4770      	bx	lr

08005e56 <USBD_CDC_TransmitPacket>:
 8005e56:	23ae      	movs	r3, #174	@ 0xae
 8005e58:	009b      	lsls	r3, r3, #2
 8005e5a:	58c2      	ldr	r2, [r0, r3]
 8005e5c:	b510      	push	{r4, lr}
 8005e5e:	2302      	movs	r3, #2
 8005e60:	2a00      	cmp	r2, #0
 8005e62:	d012      	beq.n	8005e8a <USBD_CDC_TransmitPacket+0x34>
 8005e64:	2185      	movs	r1, #133	@ 0x85
 8005e66:	0089      	lsls	r1, r1, #2
 8005e68:	5854      	ldr	r4, [r2, r1]
 8005e6a:	3b01      	subs	r3, #1
 8005e6c:	2c00      	cmp	r4, #0
 8005e6e:	d10c      	bne.n	8005e8a <USBD_CDC_TransmitPacket+0x34>
 8005e70:	5053      	str	r3, [r2, r1]
 8005e72:	2384      	movs	r3, #132	@ 0x84
 8005e74:	009b      	lsls	r3, r3, #2
 8005e76:	58d3      	ldr	r3, [r2, r3]
 8005e78:	390c      	subs	r1, #12
 8005e7a:	5852      	ldr	r2, [r2, r1]
 8005e7c:	3988      	subs	r1, #136	@ 0x88
 8005e7e:	6303      	str	r3, [r0, #48]	@ 0x30
 8005e80:	39ff      	subs	r1, #255	@ 0xff
 8005e82:	b29b      	uxth	r3, r3
 8005e84:	f000 fe02 	bl	8006a8c <USBD_LL_Transmit>
 8005e88:	0023      	movs	r3, r4
 8005e8a:	0018      	movs	r0, r3
 8005e8c:	bd10      	pop	{r4, pc}

08005e8e <USBD_CDC_ReceivePacket>:
 8005e8e:	23ae      	movs	r3, #174	@ 0xae
 8005e90:	009b      	lsls	r3, r3, #2
 8005e92:	58c2      	ldr	r2, [r0, r3]
 8005e94:	b510      	push	{r4, lr}
 8005e96:	2302      	movs	r3, #2
 8005e98:	2a00      	cmp	r2, #0
 8005e9a:	d00b      	beq.n	8005eb4 <USBD_CDC_ReceivePacket+0x26>
 8005e9c:	2381      	movs	r3, #129	@ 0x81
 8005e9e:	009b      	lsls	r3, r3, #2
 8005ea0:	58d2      	ldr	r2, [r2, r3]
 8005ea2:	7c03      	ldrb	r3, [r0, #16]
 8005ea4:	2b00      	cmp	r3, #0
 8005ea6:	d107      	bne.n	8005eb8 <USBD_CDC_ReceivePacket+0x2a>
 8005ea8:	2380      	movs	r3, #128	@ 0x80
 8005eaa:	009b      	lsls	r3, r3, #2
 8005eac:	2101      	movs	r1, #1
 8005eae:	f000 fdf6 	bl	8006a9e <USBD_LL_PrepareReceive>
 8005eb2:	2300      	movs	r3, #0
 8005eb4:	0018      	movs	r0, r3
 8005eb6:	bd10      	pop	{r4, pc}
 8005eb8:	2340      	movs	r3, #64	@ 0x40
 8005eba:	e7f7      	b.n	8005eac <USBD_CDC_ReceivePacket+0x1e>

08005ebc <USBD_Init>:
 8005ebc:	2302      	movs	r3, #2
 8005ebe:	b510      	push	{r4, lr}
 8005ec0:	2800      	cmp	r0, #0
 8005ec2:	d013      	beq.n	8005eec <USBD_Init+0x30>
 8005ec4:	23ad      	movs	r3, #173	@ 0xad
 8005ec6:	009b      	lsls	r3, r3, #2
 8005ec8:	58c4      	ldr	r4, [r0, r3]
 8005eca:	2c00      	cmp	r4, #0
 8005ecc:	d001      	beq.n	8005ed2 <USBD_Init+0x16>
 8005ece:	2400      	movs	r4, #0
 8005ed0:	50c4      	str	r4, [r0, r3]
 8005ed2:	2900      	cmp	r1, #0
 8005ed4:	d002      	beq.n	8005edc <USBD_Init+0x20>
 8005ed6:	23ac      	movs	r3, #172	@ 0xac
 8005ed8:	009b      	lsls	r3, r3, #2
 8005eda:	50c1      	str	r1, [r0, r3]
 8005edc:	23a7      	movs	r3, #167	@ 0xa7
 8005ede:	2101      	movs	r1, #1
 8005ee0:	009b      	lsls	r3, r3, #2
 8005ee2:	54c1      	strb	r1, [r0, r3]
 8005ee4:	7002      	strb	r2, [r0, #0]
 8005ee6:	f000 fd45 	bl	8006974 <USBD_LL_Init>
 8005eea:	2300      	movs	r3, #0
 8005eec:	0018      	movs	r0, r3
 8005eee:	bd10      	pop	{r4, pc}

08005ef0 <USBD_RegisterClass>:
 8005ef0:	0003      	movs	r3, r0
 8005ef2:	2002      	movs	r0, #2
 8005ef4:	2900      	cmp	r1, #0
 8005ef6:	d003      	beq.n	8005f00 <USBD_RegisterClass+0x10>
 8005ef8:	22ad      	movs	r2, #173	@ 0xad
 8005efa:	2000      	movs	r0, #0
 8005efc:	0092      	lsls	r2, r2, #2
 8005efe:	5099      	str	r1, [r3, r2]
 8005f00:	4770      	bx	lr

08005f02 <USBD_Start>:
 8005f02:	b510      	push	{r4, lr}
 8005f04:	f000 fd76 	bl	80069f4 <USBD_LL_Start>
 8005f08:	2000      	movs	r0, #0
 8005f0a:	bd10      	pop	{r4, pc}

08005f0c <USBD_SetClassConfig>:
 8005f0c:	23ad      	movs	r3, #173	@ 0xad
 8005f0e:	009b      	lsls	r3, r3, #2
 8005f10:	58c2      	ldr	r2, [r0, r3]
 8005f12:	b510      	push	{r4, lr}
 8005f14:	2302      	movs	r3, #2
 8005f16:	2a00      	cmp	r2, #0
 8005f18:	d004      	beq.n	8005f24 <USBD_SetClassConfig+0x18>
 8005f1a:	6813      	ldr	r3, [r2, #0]
 8005f1c:	4798      	blx	r3
 8005f1e:	1e43      	subs	r3, r0, #1
 8005f20:	4198      	sbcs	r0, r3
 8005f22:	0043      	lsls	r3, r0, #1
 8005f24:	0018      	movs	r0, r3
 8005f26:	bd10      	pop	{r4, pc}

08005f28 <USBD_ClrClassConfig>:
 8005f28:	23ad      	movs	r3, #173	@ 0xad
 8005f2a:	b510      	push	{r4, lr}
 8005f2c:	009b      	lsls	r3, r3, #2
 8005f2e:	58c3      	ldr	r3, [r0, r3]
 8005f30:	685b      	ldr	r3, [r3, #4]
 8005f32:	4798      	blx	r3
 8005f34:	2000      	movs	r0, #0
 8005f36:	bd10      	pop	{r4, pc}

08005f38 <USBD_LL_SetupStage>:
 8005f38:	23aa      	movs	r3, #170	@ 0xaa
 8005f3a:	009b      	lsls	r3, r3, #2
 8005f3c:	b570      	push	{r4, r5, r6, lr}
 8005f3e:	18c5      	adds	r5, r0, r3
 8005f40:	0004      	movs	r4, r0
 8005f42:	0028      	movs	r0, r5
 8005f44:	f000 fb2c 	bl	80065a0 <USBD_ParseSetupRequest>
 8005f48:	23a5      	movs	r3, #165	@ 0xa5
 8005f4a:	2201      	movs	r2, #1
 8005f4c:	009b      	lsls	r3, r3, #2
 8005f4e:	50e2      	str	r2, [r4, r3]
 8005f50:	4b11      	ldr	r3, [pc, #68]	@ (8005f98 <USBD_LL_SetupStage+0x60>)
 8005f52:	5ae2      	ldrh	r2, [r4, r3]
 8005f54:	3b16      	subs	r3, #22
 8005f56:	50e2      	str	r2, [r4, r3]
 8005f58:	3310      	adds	r3, #16
 8005f5a:	5ce1      	ldrb	r1, [r4, r3]
 8005f5c:	231f      	movs	r3, #31
 8005f5e:	400b      	ands	r3, r1
 8005f60:	2b01      	cmp	r3, #1
 8005f62:	d009      	beq.n	8005f78 <USBD_LL_SetupStage+0x40>
 8005f64:	2b02      	cmp	r3, #2
 8005f66:	d00c      	beq.n	8005f82 <USBD_LL_SetupStage+0x4a>
 8005f68:	2b00      	cmp	r3, #0
 8005f6a:	d10f      	bne.n	8005f8c <USBD_LL_SetupStage+0x54>
 8005f6c:	0029      	movs	r1, r5
 8005f6e:	0020      	movs	r0, r4
 8005f70:	f000 f91a 	bl	80061a8 <USBD_StdDevReq>
 8005f74:	2000      	movs	r0, #0
 8005f76:	bd70      	pop	{r4, r5, r6, pc}
 8005f78:	0029      	movs	r1, r5
 8005f7a:	0020      	movs	r0, r4
 8005f7c:	f000 fa54 	bl	8006428 <USBD_StdItfReq>
 8005f80:	e7f8      	b.n	8005f74 <USBD_LL_SetupStage+0x3c>
 8005f82:	0029      	movs	r1, r5
 8005f84:	0020      	movs	r0, r4
 8005f86:	f000 fa77 	bl	8006478 <USBD_StdEPReq>
 8005f8a:	e7f3      	b.n	8005f74 <USBD_LL_SetupStage+0x3c>
 8005f8c:	237f      	movs	r3, #127	@ 0x7f
 8005f8e:	0020      	movs	r0, r4
 8005f90:	4399      	bics	r1, r3
 8005f92:	f000 fd4d 	bl	8006a30 <USBD_LL_StallEP>
 8005f96:	e7ed      	b.n	8005f74 <USBD_LL_SetupStage+0x3c>
 8005f98:	000002ae 	.word	0x000002ae

08005f9c <USBD_LL_DataOutStage>:
 8005f9c:	b570      	push	{r4, r5, r6, lr}
 8005f9e:	0004      	movs	r4, r0
 8005fa0:	0015      	movs	r5, r2
 8005fa2:	2900      	cmp	r1, #0
 8005fa4:	d12e      	bne.n	8006004 <USBD_LL_DataOutStage+0x68>
 8005fa6:	23a5      	movs	r3, #165	@ 0xa5
 8005fa8:	009b      	lsls	r3, r3, #2
 8005faa:	58c2      	ldr	r2, [r0, r3]
 8005fac:	2a03      	cmp	r2, #3
 8005fae:	d123      	bne.n	8005ff8 <USBD_LL_DataOutStage+0x5c>
 8005fb0:	0002      	movs	r2, r0
 8005fb2:	3255      	adds	r2, #85	@ 0x55
 8005fb4:	32ff      	adds	r2, #255	@ 0xff
 8005fb6:	68d3      	ldr	r3, [r2, #12]
 8005fb8:	6910      	ldr	r0, [r2, #16]
 8005fba:	4283      	cmp	r3, r0
 8005fbc:	d90b      	bls.n	8005fd6 <USBD_LL_DataOutStage+0x3a>
 8005fbe:	1a1b      	subs	r3, r3, r0
 8005fc0:	60d3      	str	r3, [r2, #12]
 8005fc2:	b282      	uxth	r2, r0
 8005fc4:	4298      	cmp	r0, r3
 8005fc6:	d900      	bls.n	8005fca <USBD_LL_DataOutStage+0x2e>
 8005fc8:	b29a      	uxth	r2, r3
 8005fca:	0029      	movs	r1, r5
 8005fcc:	0020      	movs	r0, r4
 8005fce:	f000 fb48 	bl	8006662 <USBD_CtlContinueRx>
 8005fd2:	2000      	movs	r0, #0
 8005fd4:	bd70      	pop	{r4, r5, r6, pc}
 8005fd6:	23ad      	movs	r3, #173	@ 0xad
 8005fd8:	009b      	lsls	r3, r3, #2
 8005fda:	58e3      	ldr	r3, [r4, r3]
 8005fdc:	691b      	ldr	r3, [r3, #16]
 8005fde:	2b00      	cmp	r3, #0
 8005fe0:	d006      	beq.n	8005ff0 <USBD_LL_DataOutStage+0x54>
 8005fe2:	22a7      	movs	r2, #167	@ 0xa7
 8005fe4:	0092      	lsls	r2, r2, #2
 8005fe6:	5ca2      	ldrb	r2, [r4, r2]
 8005fe8:	2a03      	cmp	r2, #3
 8005fea:	d101      	bne.n	8005ff0 <USBD_LL_DataOutStage+0x54>
 8005fec:	0020      	movs	r0, r4
 8005fee:	4798      	blx	r3
 8005ff0:	0020      	movs	r0, r4
 8005ff2:	f000 fb3e 	bl	8006672 <USBD_CtlSendStatus>
 8005ff6:	e7ec      	b.n	8005fd2 <USBD_LL_DataOutStage+0x36>
 8005ff8:	2a05      	cmp	r2, #5
 8005ffa:	d1ea      	bne.n	8005fd2 <USBD_LL_DataOutStage+0x36>
 8005ffc:	50c1      	str	r1, [r0, r3]
 8005ffe:	f000 fd17 	bl	8006a30 <USBD_LL_StallEP>
 8006002:	e7e6      	b.n	8005fd2 <USBD_LL_DataOutStage+0x36>
 8006004:	23ad      	movs	r3, #173	@ 0xad
 8006006:	009b      	lsls	r3, r3, #2
 8006008:	58c3      	ldr	r3, [r0, r3]
 800600a:	2002      	movs	r0, #2
 800600c:	699b      	ldr	r3, [r3, #24]
 800600e:	2b00      	cmp	r3, #0
 8006010:	d0e0      	beq.n	8005fd4 <USBD_LL_DataOutStage+0x38>
 8006012:	22a7      	movs	r2, #167	@ 0xa7
 8006014:	0092      	lsls	r2, r2, #2
 8006016:	5ca2      	ldrb	r2, [r4, r2]
 8006018:	2a03      	cmp	r2, #3
 800601a:	d1db      	bne.n	8005fd4 <USBD_LL_DataOutStage+0x38>
 800601c:	0020      	movs	r0, r4
 800601e:	4798      	blx	r3
 8006020:	e7d7      	b.n	8005fd2 <USBD_LL_DataOutStage+0x36>

08006022 <USBD_LL_DataInStage>:
 8006022:	b5f8      	push	{r3, r4, r5, r6, r7, lr}
 8006024:	000d      	movs	r5, r1
 8006026:	0004      	movs	r4, r0
 8006028:	0011      	movs	r1, r2
 800602a:	2d00      	cmp	r5, #0
 800602c:	d14d      	bne.n	80060ca <USBD_LL_DataInStage+0xa8>
 800602e:	23a5      	movs	r3, #165	@ 0xa5
 8006030:	009b      	lsls	r3, r3, #2
 8006032:	58c3      	ldr	r3, [r0, r3]
 8006034:	2b02      	cmp	r3, #2
 8006036:	d13e      	bne.n	80060b6 <USBD_LL_DataInStage+0x94>
 8006038:	6a03      	ldr	r3, [r0, #32]
 800603a:	6a46      	ldr	r6, [r0, #36]	@ 0x24
 800603c:	42b3      	cmp	r3, r6
 800603e:	d911      	bls.n	8006064 <USBD_LL_DataInStage+0x42>
 8006040:	1b9b      	subs	r3, r3, r6
 8006042:	6203      	str	r3, [r0, #32]
 8006044:	b29a      	uxth	r2, r3
 8006046:	f000 faf4 	bl	8006632 <USBD_CtlContinueSendData>
 800604a:	002b      	movs	r3, r5
 800604c:	002a      	movs	r2, r5
 800604e:	0029      	movs	r1, r5
 8006050:	0020      	movs	r0, r4
 8006052:	f000 fd24 	bl	8006a9e <USBD_LL_PrepareReceive>
 8006056:	23a8      	movs	r3, #168	@ 0xa8
 8006058:	009b      	lsls	r3, r3, #2
 800605a:	5ce2      	ldrb	r2, [r4, r3]
 800605c:	2a01      	cmp	r2, #1
 800605e:	d031      	beq.n	80060c4 <USBD_LL_DataInStage+0xa2>
 8006060:	2000      	movs	r0, #0
 8006062:	bdf8      	pop	{r3, r4, r5, r6, r7, pc}
 8006064:	69c7      	ldr	r7, [r0, #28]
 8006066:	0031      	movs	r1, r6
 8006068:	0038      	movs	r0, r7
 800606a:	f7fa f8f9 	bl	8000260 <__aeabi_uidivmod>
 800606e:	1e0d      	subs	r5, r1, #0
 8006070:	d10c      	bne.n	800608c <USBD_LL_DataInStage+0x6a>
 8006072:	42be      	cmp	r6, r7
 8006074:	d80a      	bhi.n	800608c <USBD_LL_DataInStage+0x6a>
 8006076:	26a6      	movs	r6, #166	@ 0xa6
 8006078:	00b6      	lsls	r6, r6, #2
 800607a:	59a3      	ldr	r3, [r4, r6]
 800607c:	429f      	cmp	r7, r3
 800607e:	d205      	bcs.n	800608c <USBD_LL_DataInStage+0x6a>
 8006080:	000a      	movs	r2, r1
 8006082:	0020      	movs	r0, r4
 8006084:	f000 fad5 	bl	8006632 <USBD_CtlContinueSendData>
 8006088:	51a5      	str	r5, [r4, r6]
 800608a:	e7de      	b.n	800604a <USBD_LL_DataInStage+0x28>
 800608c:	23ad      	movs	r3, #173	@ 0xad
 800608e:	009b      	lsls	r3, r3, #2
 8006090:	58e3      	ldr	r3, [r4, r3]
 8006092:	68db      	ldr	r3, [r3, #12]
 8006094:	2b00      	cmp	r3, #0
 8006096:	d006      	beq.n	80060a6 <USBD_LL_DataInStage+0x84>
 8006098:	22a7      	movs	r2, #167	@ 0xa7
 800609a:	0092      	lsls	r2, r2, #2
 800609c:	5ca2      	ldrb	r2, [r4, r2]
 800609e:	2a03      	cmp	r2, #3
 80060a0:	d101      	bne.n	80060a6 <USBD_LL_DataInStage+0x84>
 80060a2:	0020      	movs	r0, r4
 80060a4:	4798      	blx	r3
 80060a6:	2180      	movs	r1, #128	@ 0x80
 80060a8:	0020      	movs	r0, r4
 80060aa:	f000 fcc1 	bl	8006a30 <USBD_LL_StallEP>
 80060ae:	0020      	movs	r0, r4
 80060b0:	f000 faeb 	bl	800668a <USBD_CtlReceiveStatus>
 80060b4:	e7cf      	b.n	8006056 <USBD_LL_DataInStage+0x34>
 80060b6:	2204      	movs	r2, #4
 80060b8:	4393      	bics	r3, r2
 80060ba:	d1cc      	bne.n	8006056 <USBD_LL_DataInStage+0x34>
 80060bc:	2180      	movs	r1, #128	@ 0x80
 80060be:	f000 fcb7 	bl	8006a30 <USBD_LL_StallEP>
 80060c2:	e7c8      	b.n	8006056 <USBD_LL_DataInStage+0x34>
 80060c4:	2200      	movs	r2, #0
 80060c6:	54e2      	strb	r2, [r4, r3]
 80060c8:	e7ca      	b.n	8006060 <USBD_LL_DataInStage+0x3e>
 80060ca:	23ad      	movs	r3, #173	@ 0xad
 80060cc:	009b      	lsls	r3, r3, #2
 80060ce:	58c3      	ldr	r3, [r0, r3]
 80060d0:	2002      	movs	r0, #2
 80060d2:	695b      	ldr	r3, [r3, #20]
 80060d4:	2b00      	cmp	r3, #0
 80060d6:	d0c4      	beq.n	8006062 <USBD_LL_DataInStage+0x40>
 80060d8:	22a7      	movs	r2, #167	@ 0xa7
 80060da:	0092      	lsls	r2, r2, #2
 80060dc:	5ca2      	ldrb	r2, [r4, r2]
 80060de:	2a03      	cmp	r2, #3
 80060e0:	d1bf      	bne.n	8006062 <USBD_LL_DataInStage+0x40>
 80060e2:	0029      	movs	r1, r5
 80060e4:	0020      	movs	r0, r4
 80060e6:	4798      	blx	r3
 80060e8:	e7ba      	b.n	8006060 <USBD_LL_DataInStage+0x3e>

080060ea <USBD_LL_Reset>:
 80060ea:	2200      	movs	r2, #0
 80060ec:	b570      	push	{r4, r5, r6, lr}
 80060ee:	0004      	movs	r4, r0
 80060f0:	0011      	movs	r1, r2
 80060f2:	2340      	movs	r3, #64	@ 0x40
 80060f4:	f000 fc87 	bl	8006a06 <USBD_LL_OpenEP>
 80060f8:	0023      	movs	r3, r4
 80060fa:	2501      	movs	r5, #1
 80060fc:	2640      	movs	r6, #64	@ 0x40
 80060fe:	33fc      	adds	r3, #252	@ 0xfc
 8006100:	2180      	movs	r1, #128	@ 0x80
 8006102:	65dd      	str	r5, [r3, #92]	@ 0x5c
 8006104:	669e      	str	r6, [r3, #104]	@ 0x68
 8006106:	2200      	movs	r2, #0
 8006108:	0033      	movs	r3, r6
 800610a:	0020      	movs	r0, r4
 800610c:	f000 fc7b 	bl	8006a06 <USBD_LL_OpenEP>
 8006110:	23a7      	movs	r3, #167	@ 0xa7
 8006112:	2100      	movs	r1, #0
 8006114:	009b      	lsls	r3, r3, #2
 8006116:	61a5      	str	r5, [r4, #24]
 8006118:	6266      	str	r6, [r4, #36]	@ 0x24
 800611a:	54e5      	strb	r5, [r4, r3]
 800611c:	3b08      	subs	r3, #8
 800611e:	50e1      	str	r1, [r4, r3]
 8006120:	3310      	adds	r3, #16
 8006122:	6061      	str	r1, [r4, #4]
 8006124:	50e1      	str	r1, [r4, r3]
 8006126:	3314      	adds	r3, #20
 8006128:	58e3      	ldr	r3, [r4, r3]
 800612a:	428b      	cmp	r3, r1
 800612c:	d005      	beq.n	800613a <USBD_LL_Reset+0x50>
 800612e:	23ad      	movs	r3, #173	@ 0xad
 8006130:	009b      	lsls	r3, r3, #2
 8006132:	58e3      	ldr	r3, [r4, r3]
 8006134:	0020      	movs	r0, r4
 8006136:	685b      	ldr	r3, [r3, #4]
 8006138:	4798      	blx	r3
 800613a:	2000      	movs	r0, #0
 800613c:	bd70      	pop	{r4, r5, r6, pc}

0800613e <USBD_LL_SetSpeed>:
 800613e:	7401      	strb	r1, [r0, #16]
 8006140:	2000      	movs	r0, #0
 8006142:	4770      	bx	lr

08006144 <USBD_LL_Suspend>:
 8006144:	23a7      	movs	r3, #167	@ 0xa7
 8006146:	009b      	lsls	r3, r3, #2
 8006148:	5cc1      	ldrb	r1, [r0, r3]
 800614a:	4a03      	ldr	r2, [pc, #12]	@ (8006158 <USBD_LL_Suspend+0x14>)
 800614c:	5481      	strb	r1, [r0, r2]
 800614e:	2204      	movs	r2, #4
 8006150:	54c2      	strb	r2, [r0, r3]
 8006152:	2000      	movs	r0, #0
 8006154:	4770      	bx	lr
 8006156:	46c0      	nop			@ (mov r8, r8)
 8006158:	0000029d 	.word	0x0000029d

0800615c <USBD_LL_Resume>:
 800615c:	23a7      	movs	r3, #167	@ 0xa7
 800615e:	009b      	lsls	r3, r3, #2
 8006160:	5cc2      	ldrb	r2, [r0, r3]
 8006162:	2a04      	cmp	r2, #4
 8006164:	d102      	bne.n	800616c <USBD_LL_Resume+0x10>
 8006166:	4a02      	ldr	r2, [pc, #8]	@ (8006170 <USBD_LL_Resume+0x14>)
 8006168:	5c82      	ldrb	r2, [r0, r2]
 800616a:	54c2      	strb	r2, [r0, r3]
 800616c:	2000      	movs	r0, #0
 800616e:	4770      	bx	lr
 8006170:	0000029d 	.word	0x0000029d

08006174 <USBD_LL_SOF>:
 8006174:	23a7      	movs	r3, #167	@ 0xa7
 8006176:	b510      	push	{r4, lr}
 8006178:	009b      	lsls	r3, r3, #2
 800617a:	5cc3      	ldrb	r3, [r0, r3]
 800617c:	2b03      	cmp	r3, #3
 800617e:	d106      	bne.n	800618e <USBD_LL_SOF+0x1a>
 8006180:	23ad      	movs	r3, #173	@ 0xad
 8006182:	009b      	lsls	r3, r3, #2
 8006184:	58c3      	ldr	r3, [r0, r3]
 8006186:	69db      	ldr	r3, [r3, #28]
 8006188:	2b00      	cmp	r3, #0
 800618a:	d000      	beq.n	800618e <USBD_LL_SOF+0x1a>
 800618c:	4798      	blx	r3
 800618e:	2000      	movs	r0, #0
 8006190:	bd10      	pop	{r4, pc}

08006192 <USBD_CtlError.constprop.0>:
 8006192:	b510      	push	{r4, lr}
 8006194:	0004      	movs	r4, r0
 8006196:	2180      	movs	r1, #128	@ 0x80
 8006198:	f000 fc4a 	bl	8006a30 <USBD_LL_StallEP>
 800619c:	2100      	movs	r1, #0
 800619e:	0020      	movs	r0, r4
 80061a0:	f000 fc46 	bl	8006a30 <USBD_LL_StallEP>
 80061a4:	bd10      	pop	{r4, pc}
	...

080061a8 <USBD_StdDevReq>:
 80061a8:	2260      	movs	r2, #96	@ 0x60
 80061aa:	780b      	ldrb	r3, [r1, #0]
 80061ac:	b573      	push	{r0, r1, r4, r5, r6, lr}
 80061ae:	4013      	ands	r3, r2
 80061b0:	000d      	movs	r5, r1
 80061b2:	0019      	movs	r1, r3
 80061b4:	1892      	adds	r2, r2, r2
 80061b6:	3920      	subs	r1, #32
 80061b8:	0004      	movs	r4, r0
 80061ba:	4211      	tst	r1, r2
 80061bc:	d005      	beq.n	80061ca <USBD_StdDevReq+0x22>
 80061be:	2b00      	cmp	r3, #0
 80061c0:	d00b      	beq.n	80061da <USBD_StdDevReq+0x32>
 80061c2:	0020      	movs	r0, r4
 80061c4:	f7ff ffe5 	bl	8006192 <USBD_CtlError.constprop.0>
 80061c8:	e005      	b.n	80061d6 <USBD_StdDevReq+0x2e>
 80061ca:	23ad      	movs	r3, #173	@ 0xad
 80061cc:	009b      	lsls	r3, r3, #2
 80061ce:	58c3      	ldr	r3, [r0, r3]
 80061d0:	0029      	movs	r1, r5
 80061d2:	689b      	ldr	r3, [r3, #8]
 80061d4:	4798      	blx	r3
 80061d6:	2000      	movs	r0, #0
 80061d8:	bd76      	pop	{r1, r2, r4, r5, r6, pc}
 80061da:	7868      	ldrb	r0, [r5, #1]
 80061dc:	2809      	cmp	r0, #9
 80061de:	d8f0      	bhi.n	80061c2 <USBD_StdDevReq+0x1a>
 80061e0:	f7f9 ffae 	bl	8000140 <__gnu_thumb1_case_shi>
 80061e4:	010e00ef 	.word	0x010e00ef
 80061e8:	0106ffef 	.word	0x0106ffef
 80061ec:	007dffef 	.word	0x007dffef
 80061f0:	ffef000a 	.word	0xffef000a
 80061f4:	009f00d6 	.word	0x009f00d6
 80061f8:	2300      	movs	r3, #0
 80061fa:	466a      	mov	r2, sp
 80061fc:	80d3      	strh	r3, [r2, #6]
 80061fe:	886b      	ldrh	r3, [r5, #2]
 8006200:	0a18      	lsrs	r0, r3, #8
 8006202:	3801      	subs	r0, #1
 8006204:	2806      	cmp	r0, #6
 8006206:	d8dc      	bhi.n	80061c2 <USBD_StdDevReq+0x1a>
 8006208:	f7f9 ff86 	bl	8000118 <__gnu_thumb1_case_sqi>
 800620c:	db261704 	.word	0xdb261704
 8006210:	40db      	.short	0x40db
 8006212:	4c          	.byte	0x4c
 8006213:	00          	.byte	0x00
 8006214:	23ac      	movs	r3, #172	@ 0xac
 8006216:	009b      	lsls	r3, r3, #2
 8006218:	58e3      	ldr	r3, [r4, r3]
 800621a:	7c20      	ldrb	r0, [r4, #16]
 800621c:	681b      	ldr	r3, [r3, #0]
 800621e:	466a      	mov	r2, sp
 8006220:	1d91      	adds	r1, r2, #6
 8006222:	4798      	blx	r3
 8006224:	466b      	mov	r3, sp
 8006226:	88d9      	ldrh	r1, [r3, #6]
 8006228:	88ea      	ldrh	r2, [r5, #6]
 800622a:	2900      	cmp	r1, #0
 800622c:	d052      	beq.n	80062d4 <USBD_StdDevReq+0x12c>
 800622e:	2a00      	cmp	r2, #0
 8006230:	d145      	bne.n	80062be <USBD_StdDevReq+0x116>
 8006232:	0020      	movs	r0, r4
 8006234:	f000 fa1d 	bl	8006672 <USBD_CtlSendStatus>
 8006238:	e7cd      	b.n	80061d6 <USBD_StdDevReq+0x2e>
 800623a:	23ad      	movs	r3, #173	@ 0xad
 800623c:	7c22      	ldrb	r2, [r4, #16]
 800623e:	009b      	lsls	r3, r3, #2
 8006240:	58e3      	ldr	r3, [r4, r3]
 8006242:	2a00      	cmp	r2, #0
 8006244:	d106      	bne.n	8006254 <USBD_StdDevReq+0xac>
 8006246:	6a9b      	ldr	r3, [r3, #40]	@ 0x28
 8006248:	466a      	mov	r2, sp
 800624a:	1d90      	adds	r0, r2, #6
 800624c:	4798      	blx	r3
 800624e:	2302      	movs	r3, #2
 8006250:	7043      	strb	r3, [r0, #1]
 8006252:	e7e7      	b.n	8006224 <USBD_StdDevReq+0x7c>
 8006254:	6adb      	ldr	r3, [r3, #44]	@ 0x2c
 8006256:	e7f7      	b.n	8006248 <USBD_StdDevReq+0xa0>
 8006258:	b2d8      	uxtb	r0, r3
 800625a:	2805      	cmp	r0, #5
 800625c:	d8b1      	bhi.n	80061c2 <USBD_StdDevReq+0x1a>
 800625e:	23ac      	movs	r3, #172	@ 0xac
 8006260:	009b      	lsls	r3, r3, #2
 8006262:	58e3      	ldr	r3, [r4, r3]
 8006264:	f7f9 ff62 	bl	800012c <__gnu_thumb1_case_uqi>
 8006268:	0c0a0803 	.word	0x0c0a0803
 800626c:	100e      	.short	0x100e
 800626e:	685b      	ldr	r3, [r3, #4]
 8006270:	2b00      	cmp	r3, #0
 8006272:	d0a6      	beq.n	80061c2 <USBD_StdDevReq+0x1a>
 8006274:	7c20      	ldrb	r0, [r4, #16]
 8006276:	e7d2      	b.n	800621e <USBD_StdDevReq+0x76>
 8006278:	689b      	ldr	r3, [r3, #8]
 800627a:	e7f9      	b.n	8006270 <USBD_StdDevReq+0xc8>
 800627c:	68db      	ldr	r3, [r3, #12]
 800627e:	e7f7      	b.n	8006270 <USBD_StdDevReq+0xc8>
 8006280:	691b      	ldr	r3, [r3, #16]
 8006282:	e7f5      	b.n	8006270 <USBD_StdDevReq+0xc8>
 8006284:	695b      	ldr	r3, [r3, #20]
 8006286:	e7f3      	b.n	8006270 <USBD_StdDevReq+0xc8>
 8006288:	699b      	ldr	r3, [r3, #24]
 800628a:	e7f1      	b.n	8006270 <USBD_StdDevReq+0xc8>
 800628c:	7c23      	ldrb	r3, [r4, #16]
 800628e:	2b00      	cmp	r3, #0
 8006290:	d000      	beq.n	8006294 <USBD_StdDevReq+0xec>
 8006292:	e796      	b.n	80061c2 <USBD_StdDevReq+0x1a>
 8006294:	23ad      	movs	r3, #173	@ 0xad
 8006296:	466a      	mov	r2, sp
 8006298:	009b      	lsls	r3, r3, #2
 800629a:	58e3      	ldr	r3, [r4, r3]
 800629c:	1d90      	adds	r0, r2, #6
 800629e:	6b5b      	ldr	r3, [r3, #52]	@ 0x34
 80062a0:	4798      	blx	r3
 80062a2:	e7bf      	b.n	8006224 <USBD_StdDevReq+0x7c>
 80062a4:	7c23      	ldrb	r3, [r4, #16]
 80062a6:	2b00      	cmp	r3, #0
 80062a8:	d000      	beq.n	80062ac <USBD_StdDevReq+0x104>
 80062aa:	e78a      	b.n	80061c2 <USBD_StdDevReq+0x1a>
 80062ac:	23ad      	movs	r3, #173	@ 0xad
 80062ae:	466a      	mov	r2, sp
 80062b0:	009b      	lsls	r3, r3, #2
 80062b2:	58e3      	ldr	r3, [r4, r3]
 80062b4:	1d90      	adds	r0, r2, #6
 80062b6:	6b1b      	ldr	r3, [r3, #48]	@ 0x30
 80062b8:	4798      	blx	r3
 80062ba:	2307      	movs	r3, #7
 80062bc:	e7c8      	b.n	8006250 <USBD_StdDevReq+0xa8>
 80062be:	1c0b      	adds	r3, r1, #0
 80062c0:	4291      	cmp	r1, r2
 80062c2:	d900      	bls.n	80062c6 <USBD_StdDevReq+0x11e>
 80062c4:	1c13      	adds	r3, r2, #0
 80062c6:	4669      	mov	r1, sp
 80062c8:	b29a      	uxth	r2, r3
 80062ca:	80cb      	strh	r3, [r1, #6]
 80062cc:	0001      	movs	r1, r0
 80062ce:	0020      	movs	r0, r4
 80062d0:	f000 f9a1 	bl	8006616 <USBD_CtlSendData>
 80062d4:	88eb      	ldrh	r3, [r5, #6]
 80062d6:	2b00      	cmp	r3, #0
 80062d8:	d000      	beq.n	80062dc <USBD_StdDevReq+0x134>
 80062da:	e77c      	b.n	80061d6 <USBD_StdDevReq+0x2e>
 80062dc:	e7a9      	b.n	8006232 <USBD_StdDevReq+0x8a>
 80062de:	88ab      	ldrh	r3, [r5, #4]
 80062e0:	2b00      	cmp	r3, #0
 80062e2:	d000      	beq.n	80062e6 <USBD_StdDevReq+0x13e>
 80062e4:	e76d      	b.n	80061c2 <USBD_StdDevReq+0x1a>
 80062e6:	88eb      	ldrh	r3, [r5, #6]
 80062e8:	2b00      	cmp	r3, #0
 80062ea:	d000      	beq.n	80062ee <USBD_StdDevReq+0x146>
 80062ec:	e769      	b.n	80061c2 <USBD_StdDevReq+0x1a>
 80062ee:	886d      	ldrh	r5, [r5, #2]
 80062f0:	2d7f      	cmp	r5, #127	@ 0x7f
 80062f2:	d900      	bls.n	80062f6 <USBD_StdDevReq+0x14e>
 80062f4:	e765      	b.n	80061c2 <USBD_StdDevReq+0x1a>
 80062f6:	26a7      	movs	r6, #167	@ 0xa7
 80062f8:	00b6      	lsls	r6, r6, #2
 80062fa:	5da3      	ldrb	r3, [r4, r6]
 80062fc:	2b03      	cmp	r3, #3
 80062fe:	d100      	bne.n	8006302 <USBD_StdDevReq+0x15a>
 8006300:	e75f      	b.n	80061c2 <USBD_StdDevReq+0x1a>
 8006302:	4b47      	ldr	r3, [pc, #284]	@ (8006420 <USBD_StdDevReq+0x278>)
 8006304:	b2ed      	uxtb	r5, r5
 8006306:	54e5      	strb	r5, [r4, r3]
 8006308:	0029      	movs	r1, r5
 800630a:	0020      	movs	r0, r4
 800630c:	f000 fbb5 	bl	8006a7a <USBD_LL_SetUSBAddress>
 8006310:	0020      	movs	r0, r4
 8006312:	f000 f9ae 	bl	8006672 <USBD_CtlSendStatus>
 8006316:	2302      	movs	r3, #2
 8006318:	2d00      	cmp	r5, #0
 800631a:	d100      	bne.n	800631e <USBD_StdDevReq+0x176>
 800631c:	2301      	movs	r3, #1
 800631e:	55a3      	strb	r3, [r4, r6]
 8006320:	e759      	b.n	80061d6 <USBD_StdDevReq+0x2e>
 8006322:	78a9      	ldrb	r1, [r5, #2]
 8006324:	4d3f      	ldr	r5, [pc, #252]	@ (8006424 <USBD_StdDevReq+0x27c>)
 8006326:	7029      	strb	r1, [r5, #0]
 8006328:	2901      	cmp	r1, #1
 800632a:	d900      	bls.n	800632e <USBD_StdDevReq+0x186>
 800632c:	e749      	b.n	80061c2 <USBD_StdDevReq+0x1a>
 800632e:	23a7      	movs	r3, #167	@ 0xa7
 8006330:	009b      	lsls	r3, r3, #2
 8006332:	5ce2      	ldrb	r2, [r4, r3]
 8006334:	2a02      	cmp	r2, #2
 8006336:	d009      	beq.n	800634c <USBD_StdDevReq+0x1a4>
 8006338:	2a03      	cmp	r2, #3
 800633a:	d015      	beq.n	8006368 <USBD_StdDevReq+0x1c0>
 800633c:	0020      	movs	r0, r4
 800633e:	f7ff ff28 	bl	8006192 <USBD_CtlError.constprop.0>
 8006342:	0020      	movs	r0, r4
 8006344:	7829      	ldrb	r1, [r5, #0]
 8006346:	f7ff fdef 	bl	8005f28 <USBD_ClrClassConfig>
 800634a:	e744      	b.n	80061d6 <USBD_StdDevReq+0x2e>
 800634c:	2900      	cmp	r1, #0
 800634e:	d100      	bne.n	8006352 <USBD_StdDevReq+0x1aa>
 8006350:	e76f      	b.n	8006232 <USBD_StdDevReq+0x8a>
 8006352:	2101      	movs	r1, #1
 8006354:	2203      	movs	r2, #3
 8006356:	6061      	str	r1, [r4, #4]
 8006358:	54e2      	strb	r2, [r4, r3]
 800635a:	0020      	movs	r0, r4
 800635c:	f7ff fdd6 	bl	8005f0c <USBD_SetClassConfig>
 8006360:	2802      	cmp	r0, #2
 8006362:	d000      	beq.n	8006366 <USBD_StdDevReq+0x1be>
 8006364:	e765      	b.n	8006232 <USBD_StdDevReq+0x8a>
 8006366:	e72c      	b.n	80061c2 <USBD_StdDevReq+0x1a>
 8006368:	2900      	cmp	r1, #0
 800636a:	d106      	bne.n	800637a <USBD_StdDevReq+0x1d2>
 800636c:	2202      	movs	r2, #2
 800636e:	0020      	movs	r0, r4
 8006370:	54e2      	strb	r2, [r4, r3]
 8006372:	6061      	str	r1, [r4, #4]
 8006374:	f7ff fdd8 	bl	8005f28 <USBD_ClrClassConfig>
 8006378:	e75b      	b.n	8006232 <USBD_StdDevReq+0x8a>
 800637a:	6861      	ldr	r1, [r4, #4]
 800637c:	2901      	cmp	r1, #1
 800637e:	d100      	bne.n	8006382 <USBD_StdDevReq+0x1da>
 8006380:	e757      	b.n	8006232 <USBD_StdDevReq+0x8a>
 8006382:	b2c9      	uxtb	r1, r1
 8006384:	0020      	movs	r0, r4
 8006386:	f7ff fdcf 	bl	8005f28 <USBD_ClrClassConfig>
 800638a:	7829      	ldrb	r1, [r5, #0]
 800638c:	6061      	str	r1, [r4, #4]
 800638e:	e7e4      	b.n	800635a <USBD_StdDevReq+0x1b2>
 8006390:	88ea      	ldrh	r2, [r5, #6]
 8006392:	2a01      	cmp	r2, #1
 8006394:	d000      	beq.n	8006398 <USBD_StdDevReq+0x1f0>
 8006396:	e714      	b.n	80061c2 <USBD_StdDevReq+0x1a>
 8006398:	23a7      	movs	r3, #167	@ 0xa7
 800639a:	009b      	lsls	r3, r3, #2
 800639c:	5ce3      	ldrb	r3, [r4, r3]
 800639e:	2b02      	cmp	r3, #2
 80063a0:	d807      	bhi.n	80063b2 <USBD_StdDevReq+0x20a>
 80063a2:	2b00      	cmp	r3, #0
 80063a4:	d100      	bne.n	80063a8 <USBD_StdDevReq+0x200>
 80063a6:	e70c      	b.n	80061c2 <USBD_StdDevReq+0x1a>
 80063a8:	2300      	movs	r3, #0
 80063aa:	0021      	movs	r1, r4
 80063ac:	60a3      	str	r3, [r4, #8]
 80063ae:	3108      	adds	r1, #8
 80063b0:	e003      	b.n	80063ba <USBD_StdDevReq+0x212>
 80063b2:	1d21      	adds	r1, r4, #4
 80063b4:	2b03      	cmp	r3, #3
 80063b6:	d000      	beq.n	80063ba <USBD_StdDevReq+0x212>
 80063b8:	e703      	b.n	80061c2 <USBD_StdDevReq+0x1a>
 80063ba:	0020      	movs	r0, r4
 80063bc:	f000 f92b 	bl	8006616 <USBD_CtlSendData>
 80063c0:	e709      	b.n	80061d6 <USBD_StdDevReq+0x2e>
 80063c2:	23a7      	movs	r3, #167	@ 0xa7
 80063c4:	009b      	lsls	r3, r3, #2
 80063c6:	5ce3      	ldrb	r3, [r4, r3]
 80063c8:	3b01      	subs	r3, #1
 80063ca:	2b02      	cmp	r3, #2
 80063cc:	d900      	bls.n	80063d0 <USBD_StdDevReq+0x228>
 80063ce:	e6f8      	b.n	80061c2 <USBD_StdDevReq+0x1a>
 80063d0:	88eb      	ldrh	r3, [r5, #6]
 80063d2:	2b02      	cmp	r3, #2
 80063d4:	d000      	beq.n	80063d8 <USBD_StdDevReq+0x230>
 80063d6:	e6f4      	b.n	80061c2 <USBD_StdDevReq+0x1a>
 80063d8:	23a9      	movs	r3, #169	@ 0xa9
 80063da:	009b      	lsls	r3, r3, #2
 80063dc:	58e2      	ldr	r2, [r4, r3]
 80063de:	2301      	movs	r3, #1
 80063e0:	2a00      	cmp	r2, #0
 80063e2:	d000      	beq.n	80063e6 <USBD_StdDevReq+0x23e>
 80063e4:	3302      	adds	r3, #2
 80063e6:	0021      	movs	r1, r4
 80063e8:	2202      	movs	r2, #2
 80063ea:	60e3      	str	r3, [r4, #12]
 80063ec:	310c      	adds	r1, #12
 80063ee:	e7e4      	b.n	80063ba <USBD_StdDevReq+0x212>
 80063f0:	886b      	ldrh	r3, [r5, #2]
 80063f2:	2b01      	cmp	r3, #1
 80063f4:	d000      	beq.n	80063f8 <USBD_StdDevReq+0x250>
 80063f6:	e6ee      	b.n	80061d6 <USBD_StdDevReq+0x2e>
 80063f8:	22a9      	movs	r2, #169	@ 0xa9
 80063fa:	0092      	lsls	r2, r2, #2
 80063fc:	50a3      	str	r3, [r4, r2]
 80063fe:	e718      	b.n	8006232 <USBD_StdDevReq+0x8a>
 8006400:	23a7      	movs	r3, #167	@ 0xa7
 8006402:	009b      	lsls	r3, r3, #2
 8006404:	5ce3      	ldrb	r3, [r4, r3]
 8006406:	3b01      	subs	r3, #1
 8006408:	2b02      	cmp	r3, #2
 800640a:	d900      	bls.n	800640e <USBD_StdDevReq+0x266>
 800640c:	e6d9      	b.n	80061c2 <USBD_StdDevReq+0x1a>
 800640e:	886b      	ldrh	r3, [r5, #2]
 8006410:	2b01      	cmp	r3, #1
 8006412:	d000      	beq.n	8006416 <USBD_StdDevReq+0x26e>
 8006414:	e6df      	b.n	80061d6 <USBD_StdDevReq+0x2e>
 8006416:	23a9      	movs	r3, #169	@ 0xa9
 8006418:	2200      	movs	r2, #0
 800641a:	009b      	lsls	r3, r3, #2
 800641c:	50e2      	str	r2, [r4, r3]
 800641e:	e708      	b.n	8006232 <USBD_StdDevReq+0x8a>
 8006420:	0000029e 	.word	0x0000029e
 8006424:	2000054c 	.word	0x2000054c

08006428 <USBD_StdItfReq>:
 8006428:	2360      	movs	r3, #96	@ 0x60
 800642a:	780a      	ldrb	r2, [r1, #0]
 800642c:	b570      	push	{r4, r5, r6, lr}
 800642e:	4013      	ands	r3, r2
 8006430:	0004      	movs	r4, r0
 8006432:	000d      	movs	r5, r1
 8006434:	0652      	lsls	r2, r2, #25
 8006436:	d501      	bpl.n	800643c <USBD_StdItfReq+0x14>
 8006438:	2b40      	cmp	r3, #64	@ 0x40
 800643a:	d119      	bne.n	8006470 <USBD_StdItfReq+0x48>
 800643c:	23a7      	movs	r3, #167	@ 0xa7
 800643e:	009b      	lsls	r3, r3, #2
 8006440:	5ce3      	ldrb	r3, [r4, r3]
 8006442:	3b01      	subs	r3, #1
 8006444:	2b02      	cmp	r3, #2
 8006446:	d813      	bhi.n	8006470 <USBD_StdItfReq+0x48>
 8006448:	792b      	ldrb	r3, [r5, #4]
 800644a:	2b01      	cmp	r3, #1
 800644c:	d810      	bhi.n	8006470 <USBD_StdItfReq+0x48>
 800644e:	23ad      	movs	r3, #173	@ 0xad
 8006450:	009b      	lsls	r3, r3, #2
 8006452:	58e3      	ldr	r3, [r4, r3]
 8006454:	0029      	movs	r1, r5
 8006456:	689b      	ldr	r3, [r3, #8]
 8006458:	0020      	movs	r0, r4
 800645a:	4798      	blx	r3
 800645c:	88eb      	ldrh	r3, [r5, #6]
 800645e:	2b00      	cmp	r3, #0
 8006460:	d104      	bne.n	800646c <USBD_StdItfReq+0x44>
 8006462:	2800      	cmp	r0, #0
 8006464:	d102      	bne.n	800646c <USBD_StdItfReq+0x44>
 8006466:	0020      	movs	r0, r4
 8006468:	f000 f903 	bl	8006672 <USBD_CtlSendStatus>
 800646c:	2000      	movs	r0, #0
 800646e:	bd70      	pop	{r4, r5, r6, pc}
 8006470:	0020      	movs	r0, r4
 8006472:	f7ff fe8e 	bl	8006192 <USBD_CtlError.constprop.0>
 8006476:	e7f9      	b.n	800646c <USBD_StdItfReq+0x44>

08006478 <USBD_StdEPReq>:
 8006478:	b570      	push	{r4, r5, r6, lr}
 800647a:	0004      	movs	r4, r0
 800647c:	2060      	movs	r0, #96	@ 0x60
 800647e:	000b      	movs	r3, r1
 8006480:	888a      	ldrh	r2, [r1, #4]
 8006482:	7809      	ldrb	r1, [r1, #0]
 8006484:	4001      	ands	r1, r0
 8006486:	000d      	movs	r5, r1
 8006488:	1800      	adds	r0, r0, r0
 800648a:	3d20      	subs	r5, #32
 800648c:	4205      	tst	r5, r0
 800648e:	d005      	beq.n	800649c <USBD_StdEPReq+0x24>
 8006490:	2900      	cmp	r1, #0
 8006492:	d00c      	beq.n	80064ae <USBD_StdEPReq+0x36>
 8006494:	0020      	movs	r0, r4
 8006496:	f7ff fe7c 	bl	8006192 <USBD_CtlError.constprop.0>
 800649a:	e006      	b.n	80064aa <USBD_StdEPReq+0x32>
 800649c:	22ad      	movs	r2, #173	@ 0xad
 800649e:	0092      	lsls	r2, r2, #2
 80064a0:	58a2      	ldr	r2, [r4, r2]
 80064a2:	0019      	movs	r1, r3
 80064a4:	0020      	movs	r0, r4
 80064a6:	6892      	ldr	r2, [r2, #8]
 80064a8:	4790      	blx	r2
 80064aa:	2000      	movs	r0, #0
 80064ac:	bd70      	pop	{r4, r5, r6, pc}
 80064ae:	7858      	ldrb	r0, [r3, #1]
 80064b0:	b2d1      	uxtb	r1, r2
 80064b2:	2801      	cmp	r0, #1
 80064b4:	d038      	beq.n	8006528 <USBD_StdEPReq+0xb0>
 80064b6:	2803      	cmp	r0, #3
 80064b8:	d020      	beq.n	80064fc <USBD_StdEPReq+0x84>
 80064ba:	2800      	cmp	r0, #0
 80064bc:	d1ea      	bne.n	8006494 <USBD_StdEPReq+0x1c>
 80064be:	23a7      	movs	r3, #167	@ 0xa7
 80064c0:	009b      	lsls	r3, r3, #2
 80064c2:	5ce3      	ldrb	r3, [r4, r3]
 80064c4:	2b02      	cmp	r3, #2
 80064c6:	d049      	beq.n	800655c <USBD_StdEPReq+0xe4>
 80064c8:	2b03      	cmp	r3, #3
 80064ca:	d1e3      	bne.n	8006494 <USBD_StdEPReq+0x1c>
 80064cc:	230f      	movs	r3, #15
 80064ce:	2514      	movs	r5, #20
 80064d0:	400b      	ands	r3, r1
 80064d2:	436b      	muls	r3, r5
 80064d4:	18e3      	adds	r3, r4, r3
 80064d6:	0612      	lsls	r2, r2, #24
 80064d8:	d550      	bpl.n	800657c <USBD_StdEPReq+0x104>
 80064da:	699b      	ldr	r3, [r3, #24]
 80064dc:	2b00      	cmp	r3, #0
 80064de:	d0d9      	beq.n	8006494 <USBD_StdEPReq+0x1c>
 80064e0:	237f      	movs	r3, #127	@ 0x7f
 80064e2:	400b      	ands	r3, r1
 80064e4:	3301      	adds	r3, #1
 80064e6:	435d      	muls	r5, r3
 80064e8:	1965      	adds	r5, r4, r5
 80064ea:	2980      	cmp	r1, #128	@ 0x80
 80064ec:	d051      	beq.n	8006592 <USBD_StdEPReq+0x11a>
 80064ee:	0020      	movs	r0, r4
 80064f0:	f000 fab0 	bl	8006a54 <USBD_LL_IsStallEP>
 80064f4:	2800      	cmp	r0, #0
 80064f6:	d051      	beq.n	800659c <USBD_StdEPReq+0x124>
 80064f8:	2301      	movs	r3, #1
 80064fa:	e04b      	b.n	8006594 <USBD_StdEPReq+0x11c>
 80064fc:	22a7      	movs	r2, #167	@ 0xa7
 80064fe:	0092      	lsls	r2, r2, #2
 8006500:	5ca2      	ldrb	r2, [r4, r2]
 8006502:	2a02      	cmp	r2, #2
 8006504:	d020      	beq.n	8006548 <USBD_StdEPReq+0xd0>
 8006506:	2a03      	cmp	r2, #3
 8006508:	d1c4      	bne.n	8006494 <USBD_StdEPReq+0x1c>
 800650a:	885a      	ldrh	r2, [r3, #2]
 800650c:	2a00      	cmp	r2, #0
 800650e:	d107      	bne.n	8006520 <USBD_StdEPReq+0xa8>
 8006510:	064a      	lsls	r2, r1, #25
 8006512:	d005      	beq.n	8006520 <USBD_StdEPReq+0xa8>
 8006514:	88db      	ldrh	r3, [r3, #6]
 8006516:	2b00      	cmp	r3, #0
 8006518:	d102      	bne.n	8006520 <USBD_StdEPReq+0xa8>
 800651a:	0020      	movs	r0, r4
 800651c:	f000 fa88 	bl	8006a30 <USBD_LL_StallEP>
 8006520:	0020      	movs	r0, r4
 8006522:	f000 f8a6 	bl	8006672 <USBD_CtlSendStatus>
 8006526:	e7c0      	b.n	80064aa <USBD_StdEPReq+0x32>
 8006528:	22a7      	movs	r2, #167	@ 0xa7
 800652a:	0092      	lsls	r2, r2, #2
 800652c:	5ca2      	ldrb	r2, [r4, r2]
 800652e:	2a02      	cmp	r2, #2
 8006530:	d00a      	beq.n	8006548 <USBD_StdEPReq+0xd0>
 8006532:	2a03      	cmp	r2, #3
 8006534:	d1ae      	bne.n	8006494 <USBD_StdEPReq+0x1c>
 8006536:	885b      	ldrh	r3, [r3, #2]
 8006538:	2b00      	cmp	r3, #0
 800653a:	d1b6      	bne.n	80064aa <USBD_StdEPReq+0x32>
 800653c:	064b      	lsls	r3, r1, #25
 800653e:	d0ef      	beq.n	8006520 <USBD_StdEPReq+0xa8>
 8006540:	0020      	movs	r0, r4
 8006542:	f000 fa7e 	bl	8006a42 <USBD_LL_ClearStallEP>
 8006546:	e7eb      	b.n	8006520 <USBD_StdEPReq+0xa8>
 8006548:	064b      	lsls	r3, r1, #25
 800654a:	d0a3      	beq.n	8006494 <USBD_StdEPReq+0x1c>
 800654c:	0020      	movs	r0, r4
 800654e:	f000 fa6f 	bl	8006a30 <USBD_LL_StallEP>
 8006552:	2180      	movs	r1, #128	@ 0x80
 8006554:	0020      	movs	r0, r4
 8006556:	f000 fa6b 	bl	8006a30 <USBD_LL_StallEP>
 800655a:	e7a6      	b.n	80064aa <USBD_StdEPReq+0x32>
 800655c:	0649      	lsls	r1, r1, #25
 800655e:	d199      	bne.n	8006494 <USBD_StdEPReq+0x1c>
 8006560:	0021      	movs	r1, r4
 8006562:	3155      	adds	r1, #85	@ 0x55
 8006564:	31ff      	adds	r1, #255	@ 0xff
 8006566:	0612      	lsls	r2, r2, #24
 8006568:	d501      	bpl.n	800656e <USBD_StdEPReq+0xf6>
 800656a:	3941      	subs	r1, #65	@ 0x41
 800656c:	39ff      	subs	r1, #255	@ 0xff
 800656e:	2300      	movs	r3, #0
 8006570:	2202      	movs	r2, #2
 8006572:	600b      	str	r3, [r1, #0]
 8006574:	0020      	movs	r0, r4
 8006576:	f000 f84e 	bl	8006616 <USBD_CtlSendData>
 800657a:	e796      	b.n	80064aa <USBD_StdEPReq+0x32>
 800657c:	33fc      	adds	r3, #252	@ 0xfc
 800657e:	6ddb      	ldr	r3, [r3, #92]	@ 0x5c
 8006580:	2b00      	cmp	r3, #0
 8006582:	d100      	bne.n	8006586 <USBD_StdEPReq+0x10e>
 8006584:	e786      	b.n	8006494 <USBD_StdEPReq+0x1c>
 8006586:	434d      	muls	r5, r1
 8006588:	3555      	adds	r5, #85	@ 0x55
 800658a:	35ff      	adds	r5, #255	@ 0xff
 800658c:	1965      	adds	r5, r4, r5
 800658e:	2900      	cmp	r1, #0
 8006590:	d1ad      	bne.n	80064ee <USBD_StdEPReq+0x76>
 8006592:	2300      	movs	r3, #0
 8006594:	602b      	str	r3, [r5, #0]
 8006596:	2202      	movs	r2, #2
 8006598:	0029      	movs	r1, r5
 800659a:	e7eb      	b.n	8006574 <USBD_StdEPReq+0xfc>
 800659c:	6028      	str	r0, [r5, #0]
 800659e:	e7fa      	b.n	8006596 <USBD_StdEPReq+0x11e>

080065a0 <USBD_ParseSetupRequest>:
 80065a0:	780b      	ldrb	r3, [r1, #0]
 80065a2:	7003      	strb	r3, [r0, #0]
 80065a4:	784b      	ldrb	r3, [r1, #1]
 80065a6:	7043      	strb	r3, [r0, #1]
 80065a8:	78cb      	ldrb	r3, [r1, #3]
 80065aa:	788a      	ldrb	r2, [r1, #2]
 80065ac:	021b      	lsls	r3, r3, #8
 80065ae:	4313      	orrs	r3, r2
 80065b0:	8043      	strh	r3, [r0, #2]
 80065b2:	794b      	ldrb	r3, [r1, #5]
 80065b4:	790a      	ldrb	r2, [r1, #4]
 80065b6:	021b      	lsls	r3, r3, #8
 80065b8:	4313      	orrs	r3, r2
 80065ba:	8083      	strh	r3, [r0, #4]
 80065bc:	79cb      	ldrb	r3, [r1, #7]
 80065be:	798a      	ldrb	r2, [r1, #6]
 80065c0:	021b      	lsls	r3, r3, #8
 80065c2:	4313      	orrs	r3, r2
 80065c4:	80c3      	strh	r3, [r0, #6]
 80065c6:	4770      	bx	lr

080065c8 <USBD_CtlError>:
 80065c8:	b510      	push	{r4, lr}
 80065ca:	0004      	movs	r4, r0
 80065cc:	2180      	movs	r1, #128	@ 0x80
 80065ce:	f000 fa2f 	bl	8006a30 <USBD_LL_StallEP>
 80065d2:	2100      	movs	r1, #0
 80065d4:	0020      	movs	r0, r4
 80065d6:	f000 fa2b 	bl	8006a30 <USBD_LL_StallEP>
 80065da:	bd10      	pop	{r4, pc}

080065dc <USBD_GetString>:
 80065dc:	b570      	push	{r4, r5, r6, lr}
 80065de:	0004      	movs	r4, r0
 80065e0:	000d      	movs	r5, r1
 80065e2:	0016      	movs	r6, r2
 80065e4:	2800      	cmp	r0, #0
 80065e6:	d00d      	beq.n	8006604 <USBD_GetString+0x28>
 80065e8:	f7f9 fd8e 	bl	8000108 <strlen>
 80065ec:	b2c3      	uxtb	r3, r0
 80065ee:	3301      	adds	r3, #1
 80065f0:	005b      	lsls	r3, r3, #1
 80065f2:	8033      	strh	r3, [r6, #0]
 80065f4:	702b      	strb	r3, [r5, #0]
 80065f6:	2303      	movs	r3, #3
 80065f8:	2000      	movs	r0, #0
 80065fa:	706b      	strb	r3, [r5, #1]
 80065fc:	3b01      	subs	r3, #1
 80065fe:	7821      	ldrb	r1, [r4, #0]
 8006600:	2900      	cmp	r1, #0
 8006602:	d100      	bne.n	8006606 <USBD_GetString+0x2a>
 8006604:	bd70      	pop	{r4, r5, r6, pc}
 8006606:	1c5a      	adds	r2, r3, #1
 8006608:	54e9      	strb	r1, [r5, r3]
 800660a:	b2d2      	uxtb	r2, r2
 800660c:	3302      	adds	r3, #2
 800660e:	3401      	adds	r4, #1
 8006610:	b2db      	uxtb	r3, r3
 8006612:	54a8      	strb	r0, [r5, r2]
 8006614:	e7f3      	b.n	80065fe <USBD_GetString+0x22>

08006616 <USBD_CtlSendData>:
 8006616:	0013      	movs	r3, r2
 8006618:	22a5      	movs	r2, #165	@ 0xa5
 800661a:	b510      	push	{r4, lr}
 800661c:	2402      	movs	r4, #2
 800661e:	0092      	lsls	r2, r2, #2
 8006620:	5084      	str	r4, [r0, r2]
 8006622:	000a      	movs	r2, r1
 8006624:	61c3      	str	r3, [r0, #28]
 8006626:	2100      	movs	r1, #0
 8006628:	6203      	str	r3, [r0, #32]
 800662a:	f000 fa2f 	bl	8006a8c <USBD_LL_Transmit>
 800662e:	2000      	movs	r0, #0
 8006630:	bd10      	pop	{r4, pc}

08006632 <USBD_CtlContinueSendData>:
 8006632:	b510      	push	{r4, lr}
 8006634:	0013      	movs	r3, r2
 8006636:	000a      	movs	r2, r1
 8006638:	2100      	movs	r1, #0
 800663a:	f000 fa27 	bl	8006a8c <USBD_LL_Transmit>
 800663e:	2000      	movs	r0, #0
 8006640:	bd10      	pop	{r4, pc}

08006642 <USBD_CtlPrepareRx>:
 8006642:	0013      	movs	r3, r2
 8006644:	22a5      	movs	r2, #165	@ 0xa5
 8006646:	b510      	push	{r4, lr}
 8006648:	2403      	movs	r4, #3
 800664a:	0092      	lsls	r2, r2, #2
 800664c:	5084      	str	r4, [r0, r2]
 800664e:	0002      	movs	r2, r0
 8006650:	32fc      	adds	r2, #252	@ 0xfc
 8006652:	6613      	str	r3, [r2, #96]	@ 0x60
 8006654:	6653      	str	r3, [r2, #100]	@ 0x64
 8006656:	000a      	movs	r2, r1
 8006658:	2100      	movs	r1, #0
 800665a:	f000 fa20 	bl	8006a9e <USBD_LL_PrepareReceive>
 800665e:	2000      	movs	r0, #0
 8006660:	bd10      	pop	{r4, pc}

08006662 <USBD_CtlContinueRx>:
 8006662:	b510      	push	{r4, lr}
 8006664:	0013      	movs	r3, r2
 8006666:	000a      	movs	r2, r1
 8006668:	2100      	movs	r1, #0
 800666a:	f000 fa18 	bl	8006a9e <USBD_LL_PrepareReceive>
 800666e:	2000      	movs	r0, #0
 8006670:	bd10      	pop	{r4, pc}

08006672 <USBD_CtlSendStatus>:
 8006672:	23a5      	movs	r3, #165	@ 0xa5
 8006674:	2204      	movs	r2, #4
 8006676:	009b      	lsls	r3, r3, #2
 8006678:	b510      	push	{r4, lr}
 800667a:	50c2      	str	r2, [r0, r3]
 800667c:	2300      	movs	r3, #0
 800667e:	001a      	movs	r2, r3
 8006680:	0019      	movs	r1, r3
 8006682:	f000 fa03 	bl	8006a8c <USBD_LL_Transmit>
 8006686:	2000      	movs	r0, #0
 8006688:	bd10      	pop	{r4, pc}

0800668a <USBD_CtlReceiveStatus>:
 800668a:	23a5      	movs	r3, #165	@ 0xa5
 800668c:	2205      	movs	r2, #5
 800668e:	009b      	lsls	r3, r3, #2
 8006690:	b510      	push	{r4, lr}
 8006692:	50c2      	str	r2, [r0, r3]
 8006694:	2300      	movs	r3, #0
 8006696:	001a      	movs	r2, r3
 8006698:	0019      	movs	r1, r3
 800669a:	f000 fa00 	bl	8006a9e <USBD_LL_PrepareReceive>
 800669e:	2000      	movs	r0, #0
 80066a0:	bd10      	pop	{r4, pc}
	...

080066a4 <MX_USB_DEVICE_Init>:
 80066a4:	b510      	push	{r4, lr}
 80066a6:	4c11      	ldr	r4, [pc, #68]	@ (80066ec <MX_USB_DEVICE_Init+0x48>)
 80066a8:	2200      	movs	r2, #0
 80066aa:	0020      	movs	r0, r4
 80066ac:	4910      	ldr	r1, [pc, #64]	@ (80066f0 <MX_USB_DEVICE_Init+0x4c>)
 80066ae:	f7ff fc05 	bl	8005ebc <USBD_Init>
 80066b2:	2800      	cmp	r0, #0
 80066b4:	d001      	beq.n	80066ba <MX_USB_DEVICE_Init+0x16>
 80066b6:	f7fa f853 	bl	8000760 <Error_Handler>
 80066ba:	0020      	movs	r0, r4
 80066bc:	490d      	ldr	r1, [pc, #52]	@ (80066f4 <MX_USB_DEVICE_Init+0x50>)
 80066be:	f7ff fc17 	bl	8005ef0 <USBD_RegisterClass>
 80066c2:	2800      	cmp	r0, #0
 80066c4:	d001      	beq.n	80066ca <MX_USB_DEVICE_Init+0x26>
 80066c6:	f7fa f84b 	bl	8000760 <Error_Handler>
 80066ca:	0020      	movs	r0, r4
 80066cc:	490a      	ldr	r1, [pc, #40]	@ (80066f8 <MX_USB_DEVICE_Init+0x54>)
 80066ce:	f7ff fba7 	bl	8005e20 <USBD_CDC_RegisterInterface>
 80066d2:	2800      	cmp	r0, #0
 80066d4:	d001      	beq.n	80066da <MX_USB_DEVICE_Init+0x36>
 80066d6:	f7fa f843 	bl	8000760 <Error_Handler>
 80066da:	0020      	movs	r0, r4
 80066dc:	f7ff fc11 	bl	8005f02 <USBD_Start>
 80066e0:	2800      	cmp	r0, #0
 80066e2:	d001      	beq.n	80066e8 <MX_USB_DEVICE_Init+0x44>
 80066e4:	f7fa f83c 	bl	8000760 <Error_Handler>
 80066e8:	bd10      	pop	{r4, pc}
 80066ea:	46c0      	nop			@ (mov r8, r8)
 80066ec:	20000550 	.word	0x20000550
 80066f0:	20000160 	.word	0x20000160
 80066f4:	200000d8 	.word	0x200000d8
 80066f8:	2000011c 	.word	0x2000011c

080066fc <CDC_DeInit_FS>:
 80066fc:	2000      	movs	r0, #0
 80066fe:	4770      	bx	lr

08006700 <CDC_Control_FS>:
 8006700:	2000      	movs	r0, #0
 8006702:	4770      	bx	lr

08006704 <CDC_Receive_FS>:
 8006704:	b570      	push	{r4, r5, r6, lr}
 8006706:	0005      	movs	r5, r0
 8006708:	6809      	ldr	r1, [r1, #0]
 800670a:	f7fa faca 	bl	8000ca2 <SentApp_OnUsbRx>
 800670e:	4c05      	ldr	r4, [pc, #20]	@ (8006724 <CDC_Receive_FS+0x20>)
 8006710:	0029      	movs	r1, r5
 8006712:	0020      	movs	r0, r4
 8006714:	f7ff fb98 	bl	8005e48 <USBD_CDC_SetRxBuffer>
 8006718:	0020      	movs	r0, r4
 800671a:	f7ff fbb8 	bl	8005e8e <USBD_CDC_ReceivePacket>
 800671e:	2000      	movs	r0, #0
 8006720:	bd70      	pop	{r4, r5, r6, pc}
 8006722:	46c0      	nop			@ (mov r8, r8)
 8006724:	20000550 	.word	0x20000550

08006728 <CDC_Init_FS>:
 8006728:	b510      	push	{r4, lr}
 800672a:	4c06      	ldr	r4, [pc, #24]	@ (8006744 <CDC_Init_FS+0x1c>)
 800672c:	2200      	movs	r2, #0
 800672e:	0020      	movs	r0, r4
 8006730:	4905      	ldr	r1, [pc, #20]	@ (8006748 <CDC_Init_FS+0x20>)
 8006732:	f7ff fb7e 	bl	8005e32 <USBD_CDC_SetTxBuffer>
 8006736:	0020      	movs	r0, r4
 8006738:	4904      	ldr	r1, [pc, #16]	@ (800674c <CDC_Init_FS+0x24>)
 800673a:	f7ff fb85 	bl	8005e48 <USBD_CDC_SetRxBuffer>
 800673e:	2000      	movs	r0, #0
 8006740:	bd10      	pop	{r4, pc}
 8006742:	46c0      	nop			@ (mov r8, r8)
 8006744:	20000550 	.word	0x20000550
 8006748:	20000814 	.word	0x20000814
 800674c:	20000a14 	.word	0x20000a14

08006750 <CDC_Transmit_FS>:
 8006750:	000a      	movs	r2, r1
 8006752:	21ae      	movs	r1, #174	@ 0xae
 8006754:	b510      	push	{r4, lr}
 8006756:	4c08      	ldr	r4, [pc, #32]	@ (8006778 <CDC_Transmit_FS+0x28>)
 8006758:	0089      	lsls	r1, r1, #2
 800675a:	0003      	movs	r3, r0
 800675c:	5860      	ldr	r0, [r4, r1]
 800675e:	39a4      	subs	r1, #164	@ 0xa4
 8006760:	5841      	ldr	r1, [r0, r1]
 8006762:	2001      	movs	r0, #1
 8006764:	2900      	cmp	r1, #0
 8006766:	d106      	bne.n	8006776 <CDC_Transmit_FS+0x26>
 8006768:	0019      	movs	r1, r3
 800676a:	0020      	movs	r0, r4
 800676c:	f7ff fb61 	bl	8005e32 <USBD_CDC_SetTxBuffer>
 8006770:	0020      	movs	r0, r4
 8006772:	f7ff fb70 	bl	8005e56 <USBD_CDC_TransmitPacket>
 8006776:	bd10      	pop	{r4, pc}
 8006778:	20000550 	.word	0x20000550

0800677c <USBD_FS_DeviceDescriptor>:
 800677c:	2312      	movs	r3, #18
 800677e:	4801      	ldr	r0, [pc, #4]	@ (8006784 <USBD_FS_DeviceDescriptor+0x8>)
 8006780:	800b      	strh	r3, [r1, #0]
 8006782:	4770      	bx	lr
 8006784:	2000014c 	.word	0x2000014c

08006788 <USBD_FS_LangIDStrDescriptor>:
 8006788:	2304      	movs	r3, #4
 800678a:	4801      	ldr	r0, [pc, #4]	@ (8006790 <USBD_FS_LangIDStrDescriptor+0x8>)
 800678c:	800b      	strh	r3, [r1, #0]
 800678e:	4770      	bx	lr
 8006790:	20000148 	.word	0x20000148

08006794 <IntToUnicode>:
 8006794:	b570      	push	{r4, r5, r6, lr}
 8006796:	2600      	movs	r6, #0
 8006798:	0052      	lsls	r2, r2, #1
 800679a:	188a      	adds	r2, r1, r2
 800679c:	0f05      	lsrs	r5, r0, #28
 800679e:	b2ec      	uxtb	r4, r5
 80067a0:	0023      	movs	r3, r4
 80067a2:	3337      	adds	r3, #55	@ 0x37
 80067a4:	2d09      	cmp	r5, #9
 80067a6:	d800      	bhi.n	80067aa <IntToUnicode+0x16>
 80067a8:	3b07      	subs	r3, #7
 80067aa:	700b      	strb	r3, [r1, #0]
 80067ac:	704e      	strb	r6, [r1, #1]
 80067ae:	3102      	adds	r1, #2
 80067b0:	0100      	lsls	r0, r0, #4
 80067b2:	428a      	cmp	r2, r1
 80067b4:	d1f2      	bne.n	800679c <IntToUnicode+0x8>
 80067b6:	bd70      	pop	{r4, r5, r6, pc}

080067b8 <USBD_FS_SerialStrDescriptor>:
 80067b8:	231a      	movs	r3, #26
 80067ba:	b510      	push	{r4, lr}
 80067bc:	800b      	strh	r3, [r1, #0]
 80067be:	4b0a      	ldr	r3, [pc, #40]	@ (80067e8 <USBD_FS_SerialStrDescriptor+0x30>)
 80067c0:	6818      	ldr	r0, [r3, #0]
 80067c2:	4b0a      	ldr	r3, [pc, #40]	@ (80067ec <USBD_FS_SerialStrDescriptor+0x34>)
 80067c4:	681b      	ldr	r3, [r3, #0]
 80067c6:	18c0      	adds	r0, r0, r3
 80067c8:	2800      	cmp	r0, #0
 80067ca:	d00a      	beq.n	80067e2 <USBD_FS_SerialStrDescriptor+0x2a>
 80067cc:	4b08      	ldr	r3, [pc, #32]	@ (80067f0 <USBD_FS_SerialStrDescriptor+0x38>)
 80067ce:	2208      	movs	r2, #8
 80067d0:	681c      	ldr	r4, [r3, #0]
 80067d2:	4908      	ldr	r1, [pc, #32]	@ (80067f4 <USBD_FS_SerialStrDescriptor+0x3c>)
 80067d4:	f7ff ffde 	bl	8006794 <IntToUnicode>
 80067d8:	2204      	movs	r2, #4
 80067da:	0020      	movs	r0, r4
 80067dc:	4906      	ldr	r1, [pc, #24]	@ (80067f8 <USBD_FS_SerialStrDescriptor+0x40>)
 80067de:	f7ff ffd9 	bl	8006794 <IntToUnicode>
 80067e2:	4806      	ldr	r0, [pc, #24]	@ (80067fc <USBD_FS_SerialStrDescriptor+0x44>)
 80067e4:	bd10      	pop	{r4, pc}
 80067e6:	46c0      	nop			@ (mov r8, r8)
 80067e8:	1ffff7ac 	.word	0x1ffff7ac
 80067ec:	1ffff7b4 	.word	0x1ffff7b4
 80067f0:	1ffff7b0 	.word	0x1ffff7b0
 80067f4:	2000012e 	.word	0x2000012e
 80067f8:	2000013e 	.word	0x2000013e
 80067fc:	2000012c 	.word	0x2000012c

08006800 <USBD_FS_ManufacturerStrDescriptor>:
 8006800:	b510      	push	{r4, lr}
 8006802:	4c04      	ldr	r4, [pc, #16]	@ (8006814 <USBD_FS_ManufacturerStrDescriptor+0x14>)
 8006804:	000a      	movs	r2, r1
 8006806:	0021      	movs	r1, r4
 8006808:	4803      	ldr	r0, [pc, #12]	@ (8006818 <USBD_FS_ManufacturerStrDescriptor+0x18>)
 800680a:	f7ff fee7 	bl	80065dc <USBD_GetString>
 800680e:	0020      	movs	r0, r4
 8006810:	bd10      	pop	{r4, pc}
 8006812:	46c0      	nop			@ (mov r8, r8)
 8006814:	20000c14 	.word	0x20000c14
 8006818:	08006bbb 	.word	0x08006bbb

0800681c <USBD_FS_ProductStrDescriptor>:
 800681c:	b510      	push	{r4, lr}
 800681e:	4c04      	ldr	r4, [pc, #16]	@ (8006830 <USBD_FS_ProductStrDescriptor+0x14>)
 8006820:	000a      	movs	r2, r1
 8006822:	0021      	movs	r1, r4
 8006824:	4803      	ldr	r0, [pc, #12]	@ (8006834 <USBD_FS_ProductStrDescriptor+0x18>)
 8006826:	f7ff fed9 	bl	80065dc <USBD_GetString>
 800682a:	0020      	movs	r0, r4
 800682c:	bd10      	pop	{r4, pc}
 800682e:	46c0      	nop			@ (mov r8, r8)
 8006830:	20000c14 	.word	0x20000c14
 8006834:	08006bce 	.word	0x08006bce

08006838 <USBD_FS_ConfigStrDescriptor>:
 8006838:	b510      	push	{r4, lr}
 800683a:	4c04      	ldr	r4, [pc, #16]	@ (800684c <USBD_FS_ConfigStrDescriptor+0x14>)
 800683c:	000a      	movs	r2, r1
 800683e:	0021      	movs	r1, r4
 8006840:	4803      	ldr	r0, [pc, #12]	@ (8006850 <USBD_FS_ConfigStrDescriptor+0x18>)
 8006842:	f7ff fecb 	bl	80065dc <USBD_GetString>
 8006846:	0020      	movs	r0, r4
 8006848:	bd10      	pop	{r4, pc}
 800684a:	46c0      	nop			@ (mov r8, r8)
 800684c:	20000c14 	.word	0x20000c14
 8006850:	08006be4 	.word	0x08006be4

08006854 <USBD_FS_InterfaceStrDescriptor>:
 8006854:	b510      	push	{r4, lr}
 8006856:	4c04      	ldr	r4, [pc, #16]	@ (8006868 <USBD_FS_InterfaceStrDescriptor+0x14>)
 8006858:	000a      	movs	r2, r1
 800685a:	0021      	movs	r1, r4
 800685c:	4803      	ldr	r0, [pc, #12]	@ (800686c <USBD_FS_InterfaceStrDescriptor+0x18>)
 800685e:	f7ff febd 	bl	80065dc <USBD_GetString>
 8006862:	0020      	movs	r0, r4
 8006864:	bd10      	pop	{r4, pc}
 8006866:	46c0      	nop			@ (mov r8, r8)
 8006868:	20000c14 	.word	0x20000c14
 800686c:	08006bef 	.word	0x08006bef

08006870 <USBD_Get_USB_Status>:
 8006870:	2800      	cmp	r0, #0
 8006872:	d003      	beq.n	800687c <USBD_Get_USB_Status+0xc>
 8006874:	3802      	subs	r0, #2
 8006876:	1e43      	subs	r3, r0, #1
 8006878:	4198      	sbcs	r0, r3
 800687a:	3001      	adds	r0, #1
 800687c:	4770      	bx	lr
	...

08006880 <HAL_PCD_MspInit>:
 8006880:	b507      	push	{r0, r1, r2, lr}
 8006882:	4b0b      	ldr	r3, [pc, #44]	@ (80068b0 <HAL_PCD_MspInit+0x30>)
 8006884:	6802      	ldr	r2, [r0, #0]
 8006886:	429a      	cmp	r2, r3
 8006888:	d111      	bne.n	80068ae <HAL_PCD_MspInit+0x2e>
 800688a:	2180      	movs	r1, #128	@ 0x80
 800688c:	4b09      	ldr	r3, [pc, #36]	@ (80068b4 <HAL_PCD_MspInit+0x34>)
 800688e:	0409      	lsls	r1, r1, #16
 8006890:	69da      	ldr	r2, [r3, #28]
 8006892:	201f      	movs	r0, #31
 8006894:	430a      	orrs	r2, r1
 8006896:	61da      	str	r2, [r3, #28]
 8006898:	69db      	ldr	r3, [r3, #28]
 800689a:	2200      	movs	r2, #0
 800689c:	400b      	ands	r3, r1
 800689e:	9301      	str	r3, [sp, #4]
 80068a0:	2102      	movs	r1, #2
 80068a2:	9b01      	ldr	r3, [sp, #4]
 80068a4:	f7fc fe46 	bl	8003534 <HAL_NVIC_SetPriority>
 80068a8:	201f      	movs	r0, #31
 80068aa:	f7fc fe6d 	bl	8003588 <HAL_NVIC_EnableIRQ>
 80068ae:	bd07      	pop	{r0, r1, r2, pc}
 80068b0:	40005c00 	.word	0x40005c00
 80068b4:	40021000 	.word	0x40021000

080068b8 <HAL_PCD_SetupStageCallback>:
 80068b8:	23a6      	movs	r3, #166	@ 0xa6
 80068ba:	b510      	push	{r4, lr}
 80068bc:	009b      	lsls	r3, r3, #2
 80068be:	18c1      	adds	r1, r0, r3
 80068c0:	3340      	adds	r3, #64	@ 0x40
 80068c2:	58c0      	ldr	r0, [r0, r3]
 80068c4:	f7ff fb38 	bl	8005f38 <USBD_LL_SetupStage>
 80068c8:	bd10      	pop	{r4, pc}

080068ca <HAL_PCD_DataOutStageCallback>:
 80068ca:	2328      	movs	r3, #40	@ 0x28
 80068cc:	434b      	muls	r3, r1
 80068ce:	18c3      	adds	r3, r0, r3
 80068d0:	33fc      	adds	r3, #252	@ 0xfc
 80068d2:	6e9a      	ldr	r2, [r3, #104]	@ 0x68
 80068d4:	23b6      	movs	r3, #182	@ 0xb6
 80068d6:	b510      	push	{r4, lr}
 80068d8:	009b      	lsls	r3, r3, #2
 80068da:	58c0      	ldr	r0, [r0, r3]
 80068dc:	f7ff fb5e 	bl	8005f9c <USBD_LL_DataOutStage>
 80068e0:	bd10      	pop	{r4, pc}

080068e2 <HAL_PCD_DataInStageCallback>:
 80068e2:	2328      	movs	r3, #40	@ 0x28
 80068e4:	434b      	muls	r3, r1
 80068e6:	18c3      	adds	r3, r0, r3
 80068e8:	6a5a      	ldr	r2, [r3, #36]	@ 0x24
 80068ea:	23b6      	movs	r3, #182	@ 0xb6
 80068ec:	b510      	push	{r4, lr}
 80068ee:	009b      	lsls	r3, r3, #2
 80068f0:	58c0      	ldr	r0, [r0, r3]
 80068f2:	f7ff fb96 	bl	8006022 <USBD_LL_DataInStage>
 80068f6:	bd10      	pop	{r4, pc}

080068f8 <HAL_PCD_SOFCallback>:
 80068f8:	23b6      	movs	r3, #182	@ 0xb6
 80068fa:	b510      	push	{r4, lr}
 80068fc:	009b      	lsls	r3, r3, #2
 80068fe:	58c0      	ldr	r0, [r0, r3]
 8006900:	f7ff fc38 	bl	8006174 <USBD_LL_SOF>
 8006904:	bd10      	pop	{r4, pc}

08006906 <HAL_PCD_ResetCallback>:
 8006906:	b570      	push	{r4, r5, r6, lr}
 8006908:	7943      	ldrb	r3, [r0, #5]
 800690a:	0004      	movs	r4, r0
 800690c:	2b02      	cmp	r3, #2
 800690e:	d001      	beq.n	8006914 <HAL_PCD_ResetCallback+0xe>
 8006910:	f7f9 ff26 	bl	8000760 <Error_Handler>
 8006914:	25b6      	movs	r5, #182	@ 0xb6
 8006916:	00ad      	lsls	r5, r5, #2
 8006918:	2101      	movs	r1, #1
 800691a:	5960      	ldr	r0, [r4, r5]
 800691c:	f7ff fc0f 	bl	800613e <USBD_LL_SetSpeed>
 8006920:	5960      	ldr	r0, [r4, r5]
 8006922:	f7ff fbe2 	bl	80060ea <USBD_LL_Reset>
 8006926:	bd70      	pop	{r4, r5, r6, pc}

08006928 <HAL_PCD_SuspendCallback>:
 8006928:	23b6      	movs	r3, #182	@ 0xb6
 800692a:	b510      	push	{r4, lr}
 800692c:	0004      	movs	r4, r0
 800692e:	009b      	lsls	r3, r3, #2
 8006930:	58c0      	ldr	r0, [r0, r3]
 8006932:	f7ff fc07 	bl	8006144 <USBD_LL_Suspend>
 8006936:	7a63      	ldrb	r3, [r4, #9]
 8006938:	2b00      	cmp	r3, #0
 800693a:	d004      	beq.n	8006946 <HAL_PCD_SuspendCallback+0x1e>
 800693c:	2306      	movs	r3, #6
 800693e:	4a02      	ldr	r2, [pc, #8]	@ (8006948 <HAL_PCD_SuspendCallback+0x20>)
 8006940:	6911      	ldr	r1, [r2, #16]
 8006942:	430b      	orrs	r3, r1
 8006944:	6113      	str	r3, [r2, #16]
 8006946:	bd10      	pop	{r4, pc}
 8006948:	e000ed00 	.word	0xe000ed00

0800694c <HAL_PCD_ResumeCallback>:
 800694c:	b510      	push	{r4, lr}
 800694e:	7a43      	ldrb	r3, [r0, #9]
 8006950:	0004      	movs	r4, r0
 8006952:	2b00      	cmp	r3, #0
 8006954:	d006      	beq.n	8006964 <HAL_PCD_ResumeCallback+0x18>
 8006956:	2106      	movs	r1, #6
 8006958:	4a05      	ldr	r2, [pc, #20]	@ (8006970 <HAL_PCD_ResumeCallback+0x24>)
 800695a:	6913      	ldr	r3, [r2, #16]
 800695c:	438b      	bics	r3, r1
 800695e:	6113      	str	r3, [r2, #16]
 8006960:	f7f9 fca8 	bl	80002b4 <SystemClock_Config>
 8006964:	23b6      	movs	r3, #182	@ 0xb6
 8006966:	009b      	lsls	r3, r3, #2
 8006968:	58e0      	ldr	r0, [r4, r3]
 800696a:	f7ff fbf7 	bl	800615c <USBD_LL_Resume>
 800696e:	bd10      	pop	{r4, pc}
 8006970:	e000ed00 	.word	0xe000ed00

08006974 <USBD_LL_Init>:
 8006974:	23b6      	movs	r3, #182	@ 0xb6
 8006976:	b570      	push	{r4, r5, r6, lr}
 8006978:	0004      	movs	r4, r0
 800697a:	481c      	ldr	r0, [pc, #112]	@ (80069ec <USBD_LL_Init+0x78>)
 800697c:	009b      	lsls	r3, r3, #2
 800697e:	50c4      	str	r4, [r0, r3]
 8006980:	4b1b      	ldr	r3, [pc, #108]	@ (80069f0 <USBD_LL_Init+0x7c>)
 8006982:	25b0      	movs	r5, #176	@ 0xb0
 8006984:	6003      	str	r3, [r0, #0]
 8006986:	2382      	movs	r3, #130	@ 0x82
 8006988:	009b      	lsls	r3, r3, #2
 800698a:	8083      	strh	r3, [r0, #4]
 800698c:	2302      	movs	r3, #2
 800698e:	71c3      	strb	r3, [r0, #7]
 8006990:	2300      	movs	r3, #0
 8006992:	00ad      	lsls	r5, r5, #2
 8006994:	5160      	str	r0, [r4, r5]
 8006996:	7243      	strb	r3, [r0, #9]
 8006998:	8143      	strh	r3, [r0, #10]
 800699a:	f7fc fed3 	bl	8003744 <HAL_PCD_Init>
 800699e:	2800      	cmp	r0, #0
 80069a0:	d001      	beq.n	80069a6 <USBD_LL_Init+0x32>
 80069a2:	f7f9 fedd 	bl	8000760 <Error_Handler>
 80069a6:	2200      	movs	r2, #0
 80069a8:	5960      	ldr	r0, [r4, r5]
 80069aa:	0011      	movs	r1, r2
 80069ac:	2318      	movs	r3, #24
 80069ae:	f7fd fd08 	bl	80043c2 <HAL_PCDEx_PMAConfig>
 80069b2:	5960      	ldr	r0, [r4, r5]
 80069b4:	2358      	movs	r3, #88	@ 0x58
 80069b6:	2200      	movs	r2, #0
 80069b8:	2180      	movs	r1, #128	@ 0x80
 80069ba:	f7fd fd02 	bl	80043c2 <HAL_PCDEx_PMAConfig>
 80069be:	5960      	ldr	r0, [r4, r5]
 80069c0:	23c0      	movs	r3, #192	@ 0xc0
 80069c2:	2200      	movs	r2, #0
 80069c4:	2181      	movs	r1, #129	@ 0x81
 80069c6:	f7fd fcfc 	bl	80043c2 <HAL_PCDEx_PMAConfig>
 80069ca:	2388      	movs	r3, #136	@ 0x88
 80069cc:	5960      	ldr	r0, [r4, r5]
 80069ce:	2200      	movs	r2, #0
 80069d0:	2101      	movs	r1, #1
 80069d2:	005b      	lsls	r3, r3, #1
 80069d4:	f7fd fcf5 	bl	80043c2 <HAL_PCDEx_PMAConfig>
 80069d8:	2380      	movs	r3, #128	@ 0x80
 80069da:	5960      	ldr	r0, [r4, r5]
 80069dc:	2200      	movs	r2, #0
 80069de:	2182      	movs	r1, #130	@ 0x82
 80069e0:	005b      	lsls	r3, r3, #1
 80069e2:	f7fd fcee 	bl	80043c2 <HAL_PCDEx_PMAConfig>
 80069e6:	2000      	movs	r0, #0
 80069e8:	bd70      	pop	{r4, r5, r6, pc}
 80069ea:	46c0      	nop			@ (mov r8, r8)
 80069ec:	20001034 	.word	0x20001034
 80069f0:	40005c00 	.word	0x40005c00

080069f4 <USBD_LL_Start>:
 80069f4:	23b0      	movs	r3, #176	@ 0xb0
 80069f6:	b510      	push	{r4, lr}
 80069f8:	009b      	lsls	r3, r3, #2
 80069fa:	58c0      	ldr	r0, [r0, r3]
 80069fc:	f7fc feee 	bl	80037dc <HAL_PCD_Start>
 8006a00:	f7ff ff36 	bl	8006870 <USBD_Get_USB_Status>
 8006a04:	bd10      	pop	{r4, pc}

08006a06 <USBD_LL_OpenEP>:
 8006a06:	b510      	push	{r4, lr}
 8006a08:	0014      	movs	r4, r2
 8006a0a:	001a      	movs	r2, r3
 8006a0c:	0023      	movs	r3, r4
 8006a0e:	24b0      	movs	r4, #176	@ 0xb0
 8006a10:	00a4      	lsls	r4, r4, #2
 8006a12:	5900      	ldr	r0, [r0, r4]
 8006a14:	f7fd fbec 	bl	80041f0 <HAL_PCD_EP_Open>
 8006a18:	f7ff ff2a 	bl	8006870 <USBD_Get_USB_Status>
 8006a1c:	bd10      	pop	{r4, pc}

08006a1e <USBD_LL_CloseEP>:
 8006a1e:	23b0      	movs	r3, #176	@ 0xb0
 8006a20:	b510      	push	{r4, lr}
 8006a22:	009b      	lsls	r3, r3, #2
 8006a24:	58c0      	ldr	r0, [r0, r3]
 8006a26:	f7fd fc0f 	bl	8004248 <HAL_PCD_EP_Close>
 8006a2a:	f7ff ff21 	bl	8006870 <USBD_Get_USB_Status>
 8006a2e:	bd10      	pop	{r4, pc}

08006a30 <USBD_LL_StallEP>:
 8006a30:	23b0      	movs	r3, #176	@ 0xb0
 8006a32:	b510      	push	{r4, lr}
 8006a34:	009b      	lsls	r3, r3, #2
 8006a36:	58c0      	ldr	r0, [r0, r3]
 8006a38:	f7fd fc67 	bl	800430a <HAL_PCD_EP_SetStall>
 8006a3c:	f7ff ff18 	bl	8006870 <USBD_Get_USB_Status>
 8006a40:	bd10      	pop	{r4, pc}

08006a42 <USBD_LL_ClearStallEP>:
 8006a42:	23b0      	movs	r3, #176	@ 0xb0
 8006a44:	b510      	push	{r4, lr}
 8006a46:	009b      	lsls	r3, r3, #2
 8006a48:	58c0      	ldr	r0, [r0, r3]
 8006a4a:	f7fd fc8c 	bl	8004366 <HAL_PCD_EP_ClrStall>
 8006a4e:	f7ff ff0f 	bl	8006870 <USBD_Get_USB_Status>
 8006a52:	bd10      	pop	{r4, pc}

08006a54 <USBD_LL_IsStallEP>:
 8006a54:	23b0      	movs	r3, #176	@ 0xb0
 8006a56:	009b      	lsls	r3, r3, #2
 8006a58:	58c3      	ldr	r3, [r0, r3]
 8006a5a:	b248      	sxtb	r0, r1
 8006a5c:	2228      	movs	r2, #40	@ 0x28
 8006a5e:	2800      	cmp	r0, #0
 8006a60:	da05      	bge.n	8006a6e <USBD_LL_IsStallEP+0x1a>
 8006a62:	207f      	movs	r0, #127	@ 0x7f
 8006a64:	4001      	ands	r1, r0
 8006a66:	434a      	muls	r2, r1
 8006a68:	189b      	adds	r3, r3, r2
 8006a6a:	7c98      	ldrb	r0, [r3, #18]
 8006a6c:	4770      	bx	lr
 8006a6e:	434a      	muls	r2, r1
 8006a70:	189b      	adds	r3, r3, r2
 8006a72:	3353      	adds	r3, #83	@ 0x53
 8006a74:	33ff      	adds	r3, #255	@ 0xff
 8006a76:	7818      	ldrb	r0, [r3, #0]
 8006a78:	e7f8      	b.n	8006a6c <USBD_LL_IsStallEP+0x18>

08006a7a <USBD_LL_SetUSBAddress>:
 8006a7a:	23b0      	movs	r3, #176	@ 0xb0
 8006a7c:	b510      	push	{r4, lr}
 8006a7e:	009b      	lsls	r3, r3, #2
 8006a80:	58c0      	ldr	r0, [r0, r3]
 8006a82:	f7fc febe 	bl	8003802 <HAL_PCD_SetAddress>
 8006a86:	f7ff fef3 	bl	8006870 <USBD_Get_USB_Status>
 8006a8a:	bd10      	pop	{r4, pc}

08006a8c <USBD_LL_Transmit>:
 8006a8c:	b510      	push	{r4, lr}
 8006a8e:	24b0      	movs	r4, #176	@ 0xb0
 8006a90:	00a4      	lsls	r4, r4, #2
 8006a92:	5900      	ldr	r0, [r0, r4]
 8006a94:	f7fd fc21 	bl	80042da <HAL_PCD_EP_Transmit>
 8006a98:	f7ff feea 	bl	8006870 <USBD_Get_USB_Status>
 8006a9c:	bd10      	pop	{r4, pc}

08006a9e <USBD_LL_PrepareReceive>:
 8006a9e:	b510      	push	{r4, lr}
 8006aa0:	24b0      	movs	r4, #176	@ 0xb0
 8006aa2:	00a4      	lsls	r4, r4, #2
 8006aa4:	5900      	ldr	r0, [r0, r4]
 8006aa6:	f7fd fbf5 	bl	8004294 <HAL_PCD_EP_Receive>
 8006aaa:	f7ff fee1 	bl	8006870 <USBD_Get_USB_Status>
 8006aae:	bd10      	pop	{r4, pc}

08006ab0 <USBD_LL_GetRxDataSize>:
 8006ab0:	23b0      	movs	r3, #176	@ 0xb0
 8006ab2:	b510      	push	{r4, lr}
 8006ab4:	009b      	lsls	r3, r3, #2
 8006ab6:	58c0      	ldr	r0, [r0, r3]
 8006ab8:	f7fd fc07 	bl	80042ca <HAL_PCD_EP_GetRxCount>
 8006abc:	bd10      	pop	{r4, pc}
	...

08006ac0 <USBD_static_malloc>:
 8006ac0:	4800      	ldr	r0, [pc, #0]	@ (8006ac4 <USBD_static_malloc+0x4>)
 8006ac2:	4770      	bx	lr
 8006ac4:	20000e14 	.word	0x20000e14

08006ac8 <USBD_static_free>:
 8006ac8:	4770      	bx	lr

08006aca <memset>:
 8006aca:	0003      	movs	r3, r0
 8006acc:	1882      	adds	r2, r0, r2
 8006ace:	4293      	cmp	r3, r2
 8006ad0:	d100      	bne.n	8006ad4 <memset+0xa>
 8006ad2:	4770      	bx	lr
 8006ad4:	7019      	strb	r1, [r3, #0]
 8006ad6:	3301      	adds	r3, #1
 8006ad8:	e7f9      	b.n	8006ace <memset+0x4>
	...

08006adc <__libc_init_array>:
 8006adc:	b570      	push	{r4, r5, r6, lr}
 8006ade:	2600      	movs	r6, #0
 8006ae0:	4c0c      	ldr	r4, [pc, #48]	@ (8006b14 <__libc_init_array+0x38>)
 8006ae2:	4d0d      	ldr	r5, [pc, #52]	@ (8006b18 <__libc_init_array+0x3c>)
 8006ae4:	1b64      	subs	r4, r4, r5
 8006ae6:	10a4      	asrs	r4, r4, #2
 8006ae8:	42a6      	cmp	r6, r4
 8006aea:	d109      	bne.n	8006b00 <__libc_init_array+0x24>
 8006aec:	2600      	movs	r6, #0
 8006aee:	f000 f823 	bl	8006b38 <_init>
 8006af2:	4c0a      	ldr	r4, [pc, #40]	@ (8006b1c <__libc_init_array+0x40>)
 8006af4:	4d0a      	ldr	r5, [pc, #40]	@ (8006b20 <__libc_init_array+0x44>)
 8006af6:	1b64      	subs	r4, r4, r5
 8006af8:	10a4      	asrs	r4, r4, #2
 8006afa:	42a6      	cmp	r6, r4
 8006afc:	d105      	bne.n	8006b0a <__libc_init_array+0x2e>
 8006afe:	bd70      	pop	{r4, r5, r6, pc}
 8006b00:	00b3      	lsls	r3, r6, #2
 8006b02:	58eb      	ldr	r3, [r5, r3]
 8006b04:	4798      	blx	r3
 8006b06:	3601      	adds	r6, #1
 8006b08:	e7ee      	b.n	8006ae8 <__libc_init_array+0xc>
 8006b0a:	00b3      	lsls	r3, r6, #2
 8006b0c:	58eb      	ldr	r3, [r5, r3]
 8006b0e:	4798      	blx	r3
 8006b10:	3601      	adds	r6, #1
 8006b12:	e7f2      	b.n	8006afa <__libc_init_array+0x1e>
 8006b14:	08006c00 	.word	0x08006c00
 8006b18:	08006c00 	.word	0x08006c00
 8006b1c:	08006c04 	.word	0x08006c04
 8006b20:	08006c00 	.word	0x08006c00

08006b24 <memcpy>:
 8006b24:	2300      	movs	r3, #0
 8006b26:	b510      	push	{r4, lr}
 8006b28:	429a      	cmp	r2, r3
 8006b2a:	d100      	bne.n	8006b2e <memcpy+0xa>
 8006b2c:	bd10      	pop	{r4, pc}
 8006b2e:	5ccc      	ldrb	r4, [r1, r3]
 8006b30:	54c4      	strb	r4, [r0, r3]
 8006b32:	3301      	adds	r3, #1
 8006b34:	e7f8      	b.n	8006b28 <memcpy+0x4>
	...

08006b38 <_init>:
 8006b38:	b5f8      	push	{r3, r4, r5, r6, r7, lr}
 8006b3a:	46c0      	nop			@ (mov r8, r8)
 8006b3c:	bcf8      	pop	{r3, r4, r5, r6, r7}
 8006b3e:	bc08      	pop	{r3}
 8006b40:	469e      	mov	lr, r3
 8006b42:	4770      	bx	lr

08006b44 <_fini>:
 8006b44:	b5f8      	push	{r3, r4, r5, r6, r7, lr}
 8006b46:	46c0      	nop			@ (mov r8, r8)
 8006b48:	bcf8      	pop	{r3, r4, r5, r6, r7}
 8006b4a:	bc08      	pop	{r3}
 8006b4c:	469e      	mov	lr, r3
 8006b4e:	4770      	bx	lr
